

Microchip Technology PIC LITE Macro Assembler V1.38 build -256452561 
                                                                                               Wed Jan 04 10:15:25 2017

Microchip Technology Omniscient Code Generator v1.38 (Free mode) build 201607010351
     1                           	processor	16F1828
     2                           	opt	pw 120
     3                           	opt	lm
     4                           	psect	stringtext,global,class=STRCODE,delta=2
     5                           	psect	cinit,global,class=CODE,merge=1,delta=2
     6                           	psect	bssBANK0,global,class=BANK0,space=1,delta=1
     7                           	psect	clrtext,global,class=CODE,delta=2
     8                           	psect	cstackCOMMON,global,class=COMMON,space=1,delta=1
     9                           	psect	cstackBANK0,global,class=BANK0,space=1,delta=1
    10                           	psect	maintext,global,class=CODE,merge=1,split=1,delta=2
    11                           	psect	text1,local,class=CODE,merge=1,delta=2
    12                           	psect	text2,local,class=CODE,merge=1,delta=2
    13                           	psect	text3,local,class=CODE,merge=1,delta=2
    14                           	psect	text4,local,class=CODE,merge=1,delta=2
    15                           	psect	text5,local,class=CODE,merge=1,delta=2
    16                           	psect	text6,local,class=CODE,merge=1,delta=2
    17                           	psect	text7,local,class=CODE,merge=1,delta=2
    18                           	psect	text8,local,class=CODE,merge=1,delta=2
    19                           	psect	text9,local,class=CODE,merge=1,delta=2
    20                           	psect	text10,local,class=CODE,merge=1,delta=2
    21                           	psect	text11,local,class=CODE,merge=1,delta=2
    22                           	psect	text12,local,class=CODE,merge=1,delta=2
    23                           	psect	text13,local,class=CODE,merge=1,delta=2
    24                           	psect	text14,local,class=CODE,merge=1,delta=2
    25                           	psect	text15,local,class=CODE,merge=1,delta=2
    26                           	psect	text16,local,class=CODE,merge=1,delta=2
    27                           	psect	text17,local,class=CODE,merge=1,delta=2
    28                           	psect	text18,local,class=CODE,merge=1,delta=2
    29                           	psect	text19,local,class=CODE,merge=1,delta=2
    30                           	psect	text20,local,class=CODE,merge=1,delta=2
    31                           	psect	text21,local,class=CODE,merge=1,delta=2
    32                           	psect	text22,local,class=CODE,merge=1,delta=2
    33                           	psect	text23,local,class=CODE,merge=1,delta=2
    34                           	psect	text24,local,class=CODE,merge=1,delta=2
    35                           	psect	text25,local,class=CODE,merge=1,delta=2
    36                           	psect	text26,local,class=CODE,merge=1,delta=2
    37                           	psect	text27,local,class=CODE,merge=1,delta=2
    38                           	psect	text28,local,class=CODE,merge=1,delta=2
    39                           	psect	text29,local,class=CODE,merge=1,delta=2
    40                           	psect	text30,local,class=CODE,merge=1,delta=2
    41                           	psect	text31,local,class=CODE,merge=1,delta=2
    42                           	psect	text32,local,class=CODE,merge=1,delta=2
    43                           	psect	text33,local,class=CODE,merge=1,delta=2
    44                           	psect	text34,local,class=CODE,merge=1,delta=2
    45                           	psect	intentry,global,class=CODE,delta=2
    46                           	psect	text36,local,class=CODE,merge=1,delta=2
    47                           	dabs	1,0x120,64
    48                           	dabs	1,0xB3,61
    49                           	dabs	1,0x2063,0,_SIM800L
    50                           	dabs	1,0x7E,2
    51  0000                     	;# 
    52  0001                     	;# 
    53  0002                     	;# 
    54  0003                     	;# 
    55  0004                     	;# 
    56  0005                     	;# 
    57  0006                     	;# 
    58  0007                     	;# 
    59  0008                     	;# 
    60  0009                     	;# 
    61  000A                     	;# 
    62  000B                     	;# 
    63  000C                     	;# 
    64  000D                     	;# 
    65  000E                     	;# 
    66  0011                     	;# 
    67  0012                     	;# 
    68  0013                     	;# 
    69  0015                     	;# 
    70  0016                     	;# 
    71  0016                     	;# 
    72  0017                     	;# 
    73  0018                     	;# 
    74  0019                     	;# 
    75  001A                     	;# 
    76  001B                     	;# 
    77  001C                     	;# 
    78  001E                     	;# 
    79  001F                     	;# 
    80  008C                     	;# 
    81  008D                     	;# 
    82  008E                     	;# 
    83  0091                     	;# 
    84  0092                     	;# 
    85  0093                     	;# 
    86  0095                     	;# 
    87  0096                     	;# 
    88  0097                     	;# 
    89  0098                     	;# 
    90  0099                     	;# 
    91  009A                     	;# 
    92  009B                     	;# 
    93  009B                     	;# 
    94  009C                     	;# 
    95  009D                     	;# 
    96  009E                     	;# 
    97  010C                     	;# 
    98  010D                     	;# 
    99  010E                     	;# 
   100  0111                     	;# 
   101  0112                     	;# 
   102  0113                     	;# 
   103  0114                     	;# 
   104  0115                     	;# 
   105  0116                     	;# 
   106  0117                     	;# 
   107  0118                     	;# 
   108  0119                     	;# 
   109  011A                     	;# 
   110  011B                     	;# 
   111  011D                     	;# 
   112  011E                     	;# 
   113  018C                     	;# 
   114  018D                     	;# 
   115  018E                     	;# 
   116  0191                     	;# 
   117  0191                     	;# 
   118  0192                     	;# 
   119  0193                     	;# 
   120  0193                     	;# 
   121  0193                     	;# 
   122  0194                     	;# 
   123  0195                     	;# 
   124  0196                     	;# 
   125  0199                     	;# 
   126  019A                     	;# 
   127  019B                     	;# 
   128  019B                     	;# 
   129  019B                     	;# 
   130  019B                     	;# 
   131  019C                     	;# 
   132  019C                     	;# 
   133  019D                     	;# 
   134  019E                     	;# 
   135  019F                     	;# 
   136  020C                     	;# 
   137  020D                     	;# 
   138  020E                     	;# 
   139  0211                     	;# 
   140  0211                     	;# 
   141  0212                     	;# 
   142  0212                     	;# 
   143  0213                     	;# 
   144  0213                     	;# 
   145  0214                     	;# 
   146  0214                     	;# 
   147  0215                     	;# 
   148  0215                     	;# 
   149  0215                     	;# 
   150  0215                     	;# 
   151  0216                     	;# 
   152  0216                     	;# 
   153  0217                     	;# 
   154  0217                     	;# 
   155  0291                     	;# 
   156  0291                     	;# 
   157  0292                     	;# 
   158  0293                     	;# 
   159  0294                     	;# 
   160  0295                     	;# 
   161  0295                     	;# 
   162  0296                     	;# 
   163  0298                     	;# 
   164  0298                     	;# 
   165  0299                     	;# 
   166  029A                     	;# 
   167  029B                     	;# 
   168  029C                     	;# 
   169  029D                     	;# 
   170  029E                     	;# 
   171  029E                     	;# 
   172  0311                     	;# 
   173  0311                     	;# 
   174  0312                     	;# 
   175  0313                     	;# 
   176  0318                     	;# 
   177  0318                     	;# 
   178  0319                     	;# 
   179  031A                     	;# 
   180  038C                     	;# 
   181  038D                     	;# 
   182  038E                     	;# 
   183  0391                     	;# 
   184  0392                     	;# 
   185  0393                     	;# 
   186  0394                     	;# 
   187  0395                     	;# 
   188  0396                     	;# 
   189  039A                     	;# 
   190  039C                     	;# 
   191  039D                     	;# 
   192  039E                     	;# 
   193  039F                     	;# 
   194  0415                     	;# 
   195  0416                     	;# 
   196  0417                     	;# 
   197  041C                     	;# 
   198  041D                     	;# 
   199  041E                     	;# 
   200  0FE4                     	;# 
   201  0FE5                     	;# 
   202  0FE6                     	;# 
   203  0FE7                     	;# 
   204  0FE8                     	;# 
   205  0FE9                     	;# 
   206  0FEA                     	;# 
   207  0FEB                     	;# 
   208  0FED                     	;# 
   209  0FEE                     	;# 
   210  0FEF                     	;# 
   211  0000                     	;# 
   212  0001                     	;# 
   213  0002                     	;# 
   214  0003                     	;# 
   215  0004                     	;# 
   216  0005                     	;# 
   217  0006                     	;# 
   218  0007                     	;# 
   219  0008                     	;# 
   220  0009                     	;# 
   221  000A                     	;# 
   222  000B                     	;# 
   223  000C                     	;# 
   224  000D                     	;# 
   225  000E                     	;# 
   226  0011                     	;# 
   227  0012                     	;# 
   228  0013                     	;# 
   229  0015                     	;# 
   230  0016                     	;# 
   231  0016                     	;# 
   232  0017                     	;# 
   233  0018                     	;# 
   234  0019                     	;# 
   235  001A                     	;# 
   236  001B                     	;# 
   237  001C                     	;# 
   238  001E                     	;# 
   239  001F                     	;# 
   240  008C                     	;# 
   241  008D                     	;# 
   242  008E                     	;# 
   243  0091                     	;# 
   244  0092                     	;# 
   245  0093                     	;# 
   246  0095                     	;# 
   247  0096                     	;# 
   248  0097                     	;# 
   249  0098                     	;# 
   250  0099                     	;# 
   251  009A                     	;# 
   252  009B                     	;# 
   253  009B                     	;# 
   254  009C                     	;# 
   255  009D                     	;# 
   256  009E                     	;# 
   257  010C                     	;# 
   258  010D                     	;# 
   259  010E                     	;# 
   260  0111                     	;# 
   261  0112                     	;# 
   262  0113                     	;# 
   263  0114                     	;# 
   264  0115                     	;# 
   265  0116                     	;# 
   266  0117                     	;# 
   267  0118                     	;# 
   268  0119                     	;# 
   269  011A                     	;# 
   270  011B                     	;# 
   271  011D                     	;# 
   272  011E                     	;# 
   273  018C                     	;# 
   274  018D                     	;# 
   275  018E                     	;# 
   276  0191                     	;# 
   277  0191                     	;# 
   278  0192                     	;# 
   279  0193                     	;# 
   280  0193                     	;# 
   281  0193                     	;# 
   282  0194                     	;# 
   283  0195                     	;# 
   284  0196                     	;# 
   285  0199                     	;# 
   286  019A                     	;# 
   287  019B                     	;# 
   288  019B                     	;# 
   289  019B                     	;# 
   290  019B                     	;# 
   291  019C                     	;# 
   292  019C                     	;# 
   293  019D                     	;# 
   294  019E                     	;# 
   295  019F                     	;# 
   296  020C                     	;# 
   297  020D                     	;# 
   298  020E                     	;# 
   299  0211                     	;# 
   300  0211                     	;# 
   301  0212                     	;# 
   302  0212                     	;# 
   303  0213                     	;# 
   304  0213                     	;# 
   305  0214                     	;# 
   306  0214                     	;# 
   307  0215                     	;# 
   308  0215                     	;# 
   309  0215                     	;# 
   310  0215                     	;# 
   311  0216                     	;# 
   312  0216                     	;# 
   313  0217                     	;# 
   314  0217                     	;# 
   315  0291                     	;# 
   316  0291                     	;# 
   317  0292                     	;# 
   318  0293                     	;# 
   319  0294                     	;# 
   320  0295                     	;# 
   321  0295                     	;# 
   322  0296                     	;# 
   323  0298                     	;# 
   324  0298                     	;# 
   325  0299                     	;# 
   326  029A                     	;# 
   327  029B                     	;# 
   328  029C                     	;# 
   329  029D                     	;# 
   330  029E                     	;# 
   331  029E                     	;# 
   332  0311                     	;# 
   333  0311                     	;# 
   334  0312                     	;# 
   335  0313                     	;# 
   336  0318                     	;# 
   337  0318                     	;# 
   338  0319                     	;# 
   339  031A                     	;# 
   340  038C                     	;# 
   341  038D                     	;# 
   342  038E                     	;# 
   343  0391                     	;# 
   344  0392                     	;# 
   345  0393                     	;# 
   346  0394                     	;# 
   347  0395                     	;# 
   348  0396                     	;# 
   349  039A                     	;# 
   350  039C                     	;# 
   351  039D                     	;# 
   352  039E                     	;# 
   353  039F                     	;# 
   354  0415                     	;# 
   355  0416                     	;# 
   356  0417                     	;# 
   357  041C                     	;# 
   358  041D                     	;# 
   359  041E                     	;# 
   360  0FE4                     	;# 
   361  0FE5                     	;# 
   362  0FE6                     	;# 
   363  0FE7                     	;# 
   364  0FE8                     	;# 
   365  0FE9                     	;# 
   366  0FEA                     	;# 
   367  0FEB                     	;# 
   368  0FED                     	;# 
   369  0FEE                     	;# 
   370  0FEF                     	;# 
   371  0000                     	;# 
   372  0001                     	;# 
   373  0002                     	;# 
   374  0003                     	;# 
   375  0004                     	;# 
   376  0005                     	;# 
   377  0006                     	;# 
   378  0007                     	;# 
   379  0008                     	;# 
   380  0009                     	;# 
   381  000A                     	;# 
   382  000B                     	;# 
   383  000C                     	;# 
   384  000D                     	;# 
   385  000E                     	;# 
   386  0011                     	;# 
   387  0012                     	;# 
   388  0013                     	;# 
   389  0015                     	;# 
   390  0016                     	;# 
   391  0016                     	;# 
   392  0017                     	;# 
   393  0018                     	;# 
   394  0019                     	;# 
   395  001A                     	;# 
   396  001B                     	;# 
   397  001C                     	;# 
   398  001E                     	;# 
   399  001F                     	;# 
   400  008C                     	;# 
   401  008D                     	;# 
   402  008E                     	;# 
   403  0091                     	;# 
   404  0092                     	;# 
   405  0093                     	;# 
   406  0095                     	;# 
   407  0096                     	;# 
   408  0097                     	;# 
   409  0098                     	;# 
   410  0099                     	;# 
   411  009A                     	;# 
   412  009B                     	;# 
   413  009B                     	;# 
   414  009C                     	;# 
   415  009D                     	;# 
   416  009E                     	;# 
   417  010C                     	;# 
   418  010D                     	;# 
   419  010E                     	;# 
   420  0111                     	;# 
   421  0112                     	;# 
   422  0113                     	;# 
   423  0114                     	;# 
   424  0115                     	;# 
   425  0116                     	;# 
   426  0117                     	;# 
   427  0118                     	;# 
   428  0119                     	;# 
   429  011A                     	;# 
   430  011B                     	;# 
   431  011D                     	;# 
   432  011E                     	;# 
   433  018C                     	;# 
   434  018D                     	;# 
   435  018E                     	;# 
   436  0191                     	;# 
   437  0191                     	;# 
   438  0192                     	;# 
   439  0193                     	;# 
   440  0193                     	;# 
   441  0193                     	;# 
   442  0194                     	;# 
   443  0195                     	;# 
   444  0196                     	;# 
   445  0199                     	;# 
   446  019A                     	;# 
   447  019B                     	;# 
   448  019B                     	;# 
   449  019B                     	;# 
   450  019B                     	;# 
   451  019C                     	;# 
   452  019C                     	;# 
   453  019D                     	;# 
   454  019E                     	;# 
   455  019F                     	;# 
   456  020C                     	;# 
   457  020D                     	;# 
   458  020E                     	;# 
   459  0211                     	;# 
   460  0211                     	;# 
   461  0212                     	;# 
   462  0212                     	;# 
   463  0213                     	;# 
   464  0213                     	;# 
   465  0214                     	;# 
   466  0214                     	;# 
   467  0215                     	;# 
   468  0215                     	;# 
   469  0215                     	;# 
   470  0215                     	;# 
   471  0216                     	;# 
   472  0216                     	;# 
   473  0217                     	;# 
   474  0217                     	;# 
   475  0291                     	;# 
   476  0291                     	;# 
   477  0292                     	;# 
   478  0293                     	;# 
   479  0294                     	;# 
   480  0295                     	;# 
   481  0295                     	;# 
   482  0296                     	;# 
   483  0298                     	;# 
   484  0298                     	;# 
   485  0299                     	;# 
   486  029A                     	;# 
   487  029B                     	;# 
   488  029C                     	;# 
   489  029D                     	;# 
   490  029E                     	;# 
   491  029E                     	;# 
   492  0311                     	;# 
   493  0311                     	;# 
   494  0312                     	;# 
   495  0313                     	;# 
   496  0318                     	;# 
   497  0318                     	;# 
   498  0319                     	;# 
   499  031A                     	;# 
   500  038C                     	;# 
   501  038D                     	;# 
   502  038E                     	;# 
   503  0391                     	;# 
   504  0392                     	;# 
   505  0393                     	;# 
   506  0394                     	;# 
   507  0395                     	;# 
   508  0396                     	;# 
   509  039A                     	;# 
   510  039C                     	;# 
   511  039D                     	;# 
   512  039E                     	;# 
   513  039F                     	;# 
   514  0415                     	;# 
   515  0416                     	;# 
   516  0417                     	;# 
   517  041C                     	;# 
   518  041D                     	;# 
   519  041E                     	;# 
   520  0FE4                     	;# 
   521  0FE5                     	;# 
   522  0FE6                     	;# 
   523  0FE7                     	;# 
   524  0FE8                     	;# 
   525  0FE9                     	;# 
   526  0FEA                     	;# 
   527  0FEB                     	;# 
   528  0FED                     	;# 
   529  0FEE                     	;# 
   530  0FEF                     	;# 
   531  0000                     	;# 
   532  0001                     	;# 
   533  0002                     	;# 
   534  0003                     	;# 
   535  0004                     	;# 
   536  0005                     	;# 
   537  0006                     	;# 
   538  0007                     	;# 
   539  0008                     	;# 
   540  0009                     	;# 
   541  000A                     	;# 
   542  000B                     	;# 
   543  000C                     	;# 
   544  000D                     	;# 
   545  000E                     	;# 
   546  0011                     	;# 
   547  0012                     	;# 
   548  0013                     	;# 
   549  0015                     	;# 
   550  0016                     	;# 
   551  0016                     	;# 
   552  0017                     	;# 
   553  0018                     	;# 
   554  0019                     	;# 
   555  001A                     	;# 
   556  001B                     	;# 
   557  001C                     	;# 
   558  001E                     	;# 
   559  001F                     	;# 
   560  008C                     	;# 
   561  008D                     	;# 
   562  008E                     	;# 
   563  0091                     	;# 
   564  0092                     	;# 
   565  0093                     	;# 
   566  0095                     	;# 
   567  0096                     	;# 
   568  0097                     	;# 
   569  0098                     	;# 
   570  0099                     	;# 
   571  009A                     	;# 
   572  009B                     	;# 
   573  009B                     	;# 
   574  009C                     	;# 
   575  009D                     	;# 
   576  009E                     	;# 
   577  010C                     	;# 
   578  010D                     	;# 
   579  010E                     	;# 
   580  0111                     	;# 
   581  0112                     	;# 
   582  0113                     	;# 
   583  0114                     	;# 
   584  0115                     	;# 
   585  0116                     	;# 
   586  0117                     	;# 
   587  0118                     	;# 
   588  0119                     	;# 
   589  011A                     	;# 
   590  011B                     	;# 
   591  011D                     	;# 
   592  011E                     	;# 
   593  018C                     	;# 
   594  018D                     	;# 
   595  018E                     	;# 
   596  0191                     	;# 
   597  0191                     	;# 
   598  0192                     	;# 
   599  0193                     	;# 
   600  0193                     	;# 
   601  0193                     	;# 
   602  0194                     	;# 
   603  0195                     	;# 
   604  0196                     	;# 
   605  0199                     	;# 
   606  019A                     	;# 
   607  019B                     	;# 
   608  019B                     	;# 
   609  019B                     	;# 
   610  019B                     	;# 
   611  019C                     	;# 
   612  019C                     	;# 
   613  019D                     	;# 
   614  019E                     	;# 
   615  019F                     	;# 
   616  020C                     	;# 
   617  020D                     	;# 
   618  020E                     	;# 
   619  0211                     	;# 
   620  0211                     	;# 
   621  0212                     	;# 
   622  0212                     	;# 
   623  0213                     	;# 
   624  0213                     	;# 
   625  0214                     	;# 
   626  0214                     	;# 
   627  0215                     	;# 
   628  0215                     	;# 
   629  0215                     	;# 
   630  0215                     	;# 
   631  0216                     	;# 
   632  0216                     	;# 
   633  0217                     	;# 
   634  0217                     	;# 
   635  0291                     	;# 
   636  0291                     	;# 
   637  0292                     	;# 
   638  0293                     	;# 
   639  0294                     	;# 
   640  0295                     	;# 
   641  0295                     	;# 
   642  0296                     	;# 
   643  0298                     	;# 
   644  0298                     	;# 
   645  0299                     	;# 
   646  029A                     	;# 
   647  029B                     	;# 
   648  029C                     	;# 
   649  029D                     	;# 
   650  029E                     	;# 
   651  029E                     	;# 
   652  0311                     	;# 
   653  0311                     	;# 
   654  0312                     	;# 
   655  0313                     	;# 
   656  0318                     	;# 
   657  0318                     	;# 
   658  0319                     	;# 
   659  031A                     	;# 
   660  038C                     	;# 
   661  038D                     	;# 
   662  038E                     	;# 
   663  0391                     	;# 
   664  0392                     	;# 
   665  0393                     	;# 
   666  0394                     	;# 
   667  0395                     	;# 
   668  0396                     	;# 
   669  039A                     	;# 
   670  039C                     	;# 
   671  039D                     	;# 
   672  039E                     	;# 
   673  039F                     	;# 
   674  0415                     	;# 
   675  0416                     	;# 
   676  0417                     	;# 
   677  041C                     	;# 
   678  041D                     	;# 
   679  041E                     	;# 
   680  0FE4                     	;# 
   681  0FE5                     	;# 
   682  0FE6                     	;# 
   683  0FE7                     	;# 
   684  0FE8                     	;# 
   685  0FE9                     	;# 
   686  0FEA                     	;# 
   687  0FEB                     	;# 
   688  0FED                     	;# 
   689  0FEE                     	;# 
   690  0FEF                     	;# 
   691  0000                     	;# 
   692  0001                     	;# 
   693  0002                     	;# 
   694  0003                     	;# 
   695  0004                     	;# 
   696  0005                     	;# 
   697  0006                     	;# 
   698  0007                     	;# 
   699  0008                     	;# 
   700  0009                     	;# 
   701  000A                     	;# 
   702  000B                     	;# 
   703  000C                     	;# 
   704  000D                     	;# 
   705  000E                     	;# 
   706  0011                     	;# 
   707  0012                     	;# 
   708  0013                     	;# 
   709  0015                     	;# 
   710  0016                     	;# 
   711  0016                     	;# 
   712  0017                     	;# 
   713  0018                     	;# 
   714  0019                     	;# 
   715  001A                     	;# 
   716  001B                     	;# 
   717  001C                     	;# 
   718  001E                     	;# 
   719  001F                     	;# 
   720  008C                     	;# 
   721  008D                     	;# 
   722  008E                     	;# 
   723  0091                     	;# 
   724  0092                     	;# 
   725  0093                     	;# 
   726  0095                     	;# 
   727  0096                     	;# 
   728  0097                     	;# 
   729  0098                     	;# 
   730  0099                     	;# 
   731  009A                     	;# 
   732  009B                     	;# 
   733  009B                     	;# 
   734  009C                     	;# 
   735  009D                     	;# 
   736  009E                     	;# 
   737  010C                     	;# 
   738  010D                     	;# 
   739  010E                     	;# 
   740  0111                     	;# 
   741  0112                     	;# 
   742  0113                     	;# 
   743  0114                     	;# 
   744  0115                     	;# 
   745  0116                     	;# 
   746  0117                     	;# 
   747  0118                     	;# 
   748  0119                     	;# 
   749  011A                     	;# 
   750  011B                     	;# 
   751  011D                     	;# 
   752  011E                     	;# 
   753  018C                     	;# 
   754  018D                     	;# 
   755  018E                     	;# 
   756  0191                     	;# 
   757  0191                     	;# 
   758  0192                     	;# 
   759  0193                     	;# 
   760  0193                     	;# 
   761  0193                     	;# 
   762  0194                     	;# 
   763  0195                     	;# 
   764  0196                     	;# 
   765  0199                     	;# 
   766  019A                     	;# 
   767  019B                     	;# 
   768  019B                     	;# 
   769  019B                     	;# 
   770  019B                     	;# 
   771  019C                     	;# 
   772  019C                     	;# 
   773  019D                     	;# 
   774  019E                     	;# 
   775  019F                     	;# 
   776  020C                     	;# 
   777  020D                     	;# 
   778  020E                     	;# 
   779  0211                     	;# 
   780  0211                     	;# 
   781  0212                     	;# 
   782  0212                     	;# 
   783  0213                     	;# 
   784  0213                     	;# 
   785  0214                     	;# 
   786  0214                     	;# 
   787  0215                     	;# 
   788  0215                     	;# 
   789  0215                     	;# 
   790  0215                     	;# 
   791  0216                     	;# 
   792  0216                     	;# 
   793  0217                     	;# 
   794  0217                     	;# 
   795  0291                     	;# 
   796  0291                     	;# 
   797  0292                     	;# 
   798  0293                     	;# 
   799  0294                     	;# 
   800  0295                     	;# 
   801  0295                     	;# 
   802  0296                     	;# 
   803  0298                     	;# 
   804  0298                     	;# 
   805  0299                     	;# 
   806  029A                     	;# 
   807  029B                     	;# 
   808  029C                     	;# 
   809  029D                     	;# 
   810  029E                     	;# 
   811  029E                     	;# 
   812  0311                     	;# 
   813  0311                     	;# 
   814  0312                     	;# 
   815  0313                     	;# 
   816  0318                     	;# 
   817  0318                     	;# 
   818  0319                     	;# 
   819  031A                     	;# 
   820  038C                     	;# 
   821  038D                     	;# 
   822  038E                     	;# 
   823  0391                     	;# 
   824  0392                     	;# 
   825  0393                     	;# 
   826  0394                     	;# 
   827  0395                     	;# 
   828  0396                     	;# 
   829  039A                     	;# 
   830  039C                     	;# 
   831  039D                     	;# 
   832  039E                     	;# 
   833  039F                     	;# 
   834  0415                     	;# 
   835  0416                     	;# 
   836  0417                     	;# 
   837  041C                     	;# 
   838  041D                     	;# 
   839  041E                     	;# 
   840  0FE4                     	;# 
   841  0FE5                     	;# 
   842  0FE6                     	;# 
   843  0FE7                     	;# 
   844  0FE8                     	;# 
   845  0FE9                     	;# 
   846  0FEA                     	;# 
   847  0FEB                     	;# 
   848  0FED                     	;# 
   849  0FEE                     	;# 
   850  0FEF                     	;# 
   851  0000                     	;# 
   852  0001                     	;# 
   853  0002                     	;# 
   854  0003                     	;# 
   855  0004                     	;# 
   856  0005                     	;# 
   857  0006                     	;# 
   858  0007                     	;# 
   859  0008                     	;# 
   860  0009                     	;# 
   861  000A                     	;# 
   862  000B                     	;# 
   863  000C                     	;# 
   864  000D                     	;# 
   865  000E                     	;# 
   866  0011                     	;# 
   867  0012                     	;# 
   868  0013                     	;# 
   869  0015                     	;# 
   870  0016                     	;# 
   871  0016                     	;# 
   872  0017                     	;# 
   873  0018                     	;# 
   874  0019                     	;# 
   875  001A                     	;# 
   876  001B                     	;# 
   877  001C                     	;# 
   878  001E                     	;# 
   879  001F                     	;# 
   880  008C                     	;# 
   881  008D                     	;# 
   882  008E                     	;# 
   883  0091                     	;# 
   884  0092                     	;# 
   885  0093                     	;# 
   886  0095                     	;# 
   887  0096                     	;# 
   888  0097                     	;# 
   889  0098                     	;# 
   890  0099                     	;# 
   891  009A                     	;# 
   892  009B                     	;# 
   893  009B                     	;# 
   894  009C                     	;# 
   895  009D                     	;# 
   896  009E                     	;# 
   897  010C                     	;# 
   898  010D                     	;# 
   899  010E                     	;# 
   900  0111                     	;# 
   901  0112                     	;# 
   902  0113                     	;# 
   903  0114                     	;# 
   904  0115                     	;# 
   905  0116                     	;# 
   906  0117                     	;# 
   907  0118                     	;# 
   908  0119                     	;# 
   909  011A                     	;# 
   910  011B                     	;# 
   911  011D                     	;# 
   912  011E                     	;# 
   913  018C                     	;# 
   914  018D                     	;# 
   915  018E                     	;# 
   916  0191                     	;# 
   917  0191                     	;# 
   918  0192                     	;# 
   919  0193                     	;# 
   920  0193                     	;# 
   921  0193                     	;# 
   922  0194                     	;# 
   923  0195                     	;# 
   924  0196                     	;# 
   925  0199                     	;# 
   926  019A                     	;# 
   927  019B                     	;# 
   928  019B                     	;# 
   929  019B                     	;# 
   930  019B                     	;# 
   931  019C                     	;# 
   932  019C                     	;# 
   933  019D                     	;# 
   934  019E                     	;# 
   935  019F                     	;# 
   936  020C                     	;# 
   937  020D                     	;# 
   938  020E                     	;# 
   939  0211                     	;# 
   940  0211                     	;# 
   941  0212                     	;# 
   942  0212                     	;# 
   943  0213                     	;# 
   944  0213                     	;# 
   945  0214                     	;# 
   946  0214                     	;# 
   947  0215                     	;# 
   948  0215                     	;# 
   949  0215                     	;# 
   950  0215                     	;# 
   951  0216                     	;# 
   952  0216                     	;# 
   953  0217                     	;# 
   954  0217                     	;# 
   955  0291                     	;# 
   956  0291                     	;# 
   957  0292                     	;# 
   958  0293                     	;# 
   959  0294                     	;# 
   960  0295                     	;# 
   961  0295                     	;# 
   962  0296                     	;# 
   963  0298                     	;# 
   964  0298                     	;# 
   965  0299                     	;# 
   966  029A                     	;# 
   967  029B                     	;# 
   968  029C                     	;# 
   969  029D                     	;# 
   970  029E                     	;# 
   971  029E                     	;# 
   972  0311                     	;# 
   973  0311                     	;# 
   974  0312                     	;# 
   975  0313                     	;# 
   976  0318                     	;# 
   977  0318                     	;# 
   978  0319                     	;# 
   979  031A                     	;# 
   980  038C                     	;# 
   981  038D                     	;# 
   982  038E                     	;# 
   983  0391                     	;# 
   984  0392                     	;# 
   985  0393                     	;# 
   986  0394                     	;# 
   987  0395                     	;# 
   988  0396                     	;# 
   989  039A                     	;# 
   990  039C                     	;# 
   991  039D                     	;# 
   992  039E                     	;# 
   993  039F                     	;# 
   994  0415                     	;# 
   995  0416                     	;# 
   996  0417                     	;# 
   997  041C                     	;# 
   998  041D                     	;# 
   999  041E                     	;# 
  1000  0FE4                     	;# 
  1001  0FE5                     	;# 
  1002  0FE6                     	;# 
  1003  0FE7                     	;# 
  1004  0FE8                     	;# 
  1005  0FE9                     	;# 
  1006  0FEA                     	;# 
  1007  0FEB                     	;# 
  1008  0FED                     	;# 
  1009  0FEE                     	;# 
  1010  0FEF                     	;# 
  1011  0000                     	;# 
  1012  0001                     	;# 
  1013  0002                     	;# 
  1014  0003                     	;# 
  1015  0004                     	;# 
  1016  0005                     	;# 
  1017  0006                     	;# 
  1018  0007                     	;# 
  1019  0008                     	;# 
  1020  0009                     	;# 
  1021  000A                     	;# 
  1022  000B                     	;# 
  1023  000C                     	;# 
  1024  000D                     	;# 
  1025  000E                     	;# 
  1026  0011                     	;# 
  1027  0012                     	;# 
  1028  0013                     	;# 
  1029  0015                     	;# 
  1030  0016                     	;# 
  1031  0016                     	;# 
  1032  0017                     	;# 
  1033  0018                     	;# 
  1034  0019                     	;# 
  1035  001A                     	;# 
  1036  001B                     	;# 
  1037  001C                     	;# 
  1038  001E                     	;# 
  1039  001F                     	;# 
  1040  008C                     	;# 
  1041  008D                     	;# 
  1042  008E                     	;# 
  1043  0091                     	;# 
  1044  0092                     	;# 
  1045  0093                     	;# 
  1046  0095                     	;# 
  1047  0096                     	;# 
  1048  0097                     	;# 
  1049  0098                     	;# 
  1050  0099                     	;# 
  1051  009A                     	;# 
  1052  009B                     	;# 
  1053  009B                     	;# 
  1054  009C                     	;# 
  1055  009D                     	;# 
  1056  009E                     	;# 
  1057  010C                     	;# 
  1058  010D                     	;# 
  1059  010E                     	;# 
  1060  0111                     	;# 
  1061  0112                     	;# 
  1062  0113                     	;# 
  1063  0114                     	;# 
  1064  0115                     	;# 
  1065  0116                     	;# 
  1066  0117                     	;# 
  1067  0118                     	;# 
  1068  0119                     	;# 
  1069  011A                     	;# 
  1070  011B                     	;# 
  1071  011D                     	;# 
  1072  011E                     	;# 
  1073  018C                     	;# 
  1074  018D                     	;# 
  1075  018E                     	;# 
  1076  0191                     	;# 
  1077  0191                     	;# 
  1078  0192                     	;# 
  1079  0193                     	;# 
  1080  0193                     	;# 
  1081  0193                     	;# 
  1082  0194                     	;# 
  1083  0195                     	;# 
  1084  0196                     	;# 
  1085  0199                     	;# 
  1086  019A                     	;# 
  1087  019B                     	;# 
  1088  019B                     	;# 
  1089  019B                     	;# 
  1090  019B                     	;# 
  1091  019C                     	;# 
  1092  019C                     	;# 
  1093  019D                     	;# 
  1094  019E                     	;# 
  1095  019F                     	;# 
  1096  020C                     	;# 
  1097  020D                     	;# 
  1098  020E                     	;# 
  1099  0211                     	;# 
  1100  0211                     	;# 
  1101  0212                     	;# 
  1102  0212                     	;# 
  1103  0213                     	;# 
  1104  0213                     	;# 
  1105  0214                     	;# 
  1106  0214                     	;# 
  1107  0215                     	;# 
  1108  0215                     	;# 
  1109  0215                     	;# 
  1110  0215                     	;# 
  1111  0216                     	;# 
  1112  0216                     	;# 
  1113  0217                     	;# 
  1114  0217                     	;# 
  1115  0291                     	;# 
  1116  0291                     	;# 
  1117  0292                     	;# 
  1118  0293                     	;# 
  1119  0294                     	;# 
  1120  0295                     	;# 
  1121  0295                     	;# 
  1122  0296                     	;# 
  1123  0298                     	;# 
  1124  0298                     	;# 
  1125  0299                     	;# 
  1126  029A                     	;# 
  1127  029B                     	;# 
  1128  029C                     	;# 
  1129  029D                     	;# 
  1130  029E                     	;# 
  1131  029E                     	;# 
  1132  0311                     	;# 
  1133  0311                     	;# 
  1134  0312                     	;# 
  1135  0313                     	;# 
  1136  0318                     	;# 
  1137  0318                     	;# 
  1138  0319                     	;# 
  1139  031A                     	;# 
  1140  038C                     	;# 
  1141  038D                     	;# 
  1142  038E                     	;# 
  1143  0391                     	;# 
  1144  0392                     	;# 
  1145  0393                     	;# 
  1146  0394                     	;# 
  1147  0395                     	;# 
  1148  0396                     	;# 
  1149  039A                     	;# 
  1150  039C                     	;# 
  1151  039D                     	;# 
  1152  039E                     	;# 
  1153  039F                     	;# 
  1154  0415                     	;# 
  1155  0416                     	;# 
  1156  0417                     	;# 
  1157  041C                     	;# 
  1158  041D                     	;# 
  1159  041E                     	;# 
  1160  0FE4                     	;# 
  1161  0FE5                     	;# 
  1162  0FE6                     	;# 
  1163  0FE7                     	;# 
  1164  0FE8                     	;# 
  1165  0FE9                     	;# 
  1166  0FEA                     	;# 
  1167  0FEB                     	;# 
  1168  0FED                     	;# 
  1169  0FEE                     	;# 
  1170  0FEF                     	;# 
  1171  0000                     	;# 
  1172  0001                     	;# 
  1173  0002                     	;# 
  1174  0003                     	;# 
  1175  0004                     	;# 
  1176  0005                     	;# 
  1177  0006                     	;# 
  1178  0007                     	;# 
  1179  0008                     	;# 
  1180  0009                     	;# 
  1181  000A                     	;# 
  1182  000B                     	;# 
  1183  000C                     	;# 
  1184  000D                     	;# 
  1185  000E                     	;# 
  1186  0011                     	;# 
  1187  0012                     	;# 
  1188  0013                     	;# 
  1189  0015                     	;# 
  1190  0016                     	;# 
  1191  0016                     	;# 
  1192  0017                     	;# 
  1193  0018                     	;# 
  1194  0019                     	;# 
  1195  001A                     	;# 
  1196  001B                     	;# 
  1197  001C                     	;# 
  1198  001E                     	;# 
  1199  001F                     	;# 
  1200  008C                     	;# 
  1201  008D                     	;# 
  1202  008E                     	;# 
  1203  0091                     	;# 
  1204  0092                     	;# 
  1205  0093                     	;# 
  1206  0095                     	;# 
  1207  0096                     	;# 
  1208  0097                     	;# 
  1209  0098                     	;# 
  1210  0099                     	;# 
  1211  009A                     	;# 
  1212  009B                     	;# 
  1213  009B                     	;# 
  1214  009C                     	;# 
  1215  009D                     	;# 
  1216  009E                     	;# 
  1217  010C                     	;# 
  1218  010D                     	;# 
  1219  010E                     	;# 
  1220  0111                     	;# 
  1221  0112                     	;# 
  1222  0113                     	;# 
  1223  0114                     	;# 
  1224  0115                     	;# 
  1225  0116                     	;# 
  1226  0117                     	;# 
  1227  0118                     	;# 
  1228  0119                     	;# 
  1229  011A                     	;# 
  1230  011B                     	;# 
  1231  011D                     	;# 
  1232  011E                     	;# 
  1233  018C                     	;# 
  1234  018D                     	;# 
  1235  018E                     	;# 
  1236  0191                     	;# 
  1237  0191                     	;# 
  1238  0192                     	;# 
  1239  0193                     	;# 
  1240  0193                     	;# 
  1241  0193                     	;# 
  1242  0194                     	;# 
  1243  0195                     	;# 
  1244  0196                     	;# 
  1245  0199                     	;# 
  1246  019A                     	;# 
  1247  019B                     	;# 
  1248  019B                     	;# 
  1249  019B                     	;# 
  1250  019B                     	;# 
  1251  019C                     	;# 
  1252  019C                     	;# 
  1253  019D                     	;# 
  1254  019E                     	;# 
  1255  019F                     	;# 
  1256  020C                     	;# 
  1257  020D                     	;# 
  1258  020E                     	;# 
  1259  0211                     	;# 
  1260  0211                     	;# 
  1261  0212                     	;# 
  1262  0212                     	;# 
  1263  0213                     	;# 
  1264  0213                     	;# 
  1265  0214                     	;# 
  1266  0214                     	;# 
  1267  0215                     	;# 
  1268  0215                     	;# 
  1269  0215                     	;# 
  1270  0215                     	;# 
  1271  0216                     	;# 
  1272  0216                     	;# 
  1273  0217                     	;# 
  1274  0217                     	;# 
  1275  0291                     	;# 
  1276  0291                     	;# 
  1277  0292                     	;# 
  1278  0293                     	;# 
  1279  0294                     	;# 
  1280  0295                     	;# 
  1281  0295                     	;# 
  1282  0296                     	;# 
  1283  0298                     	;# 
  1284  0298                     	;# 
  1285  0299                     	;# 
  1286  029A                     	;# 
  1287  029B                     	;# 
  1288  029C                     	;# 
  1289  029D                     	;# 
  1290  029E                     	;# 
  1291  029E                     	;# 
  1292  0311                     	;# 
  1293  0311                     	;# 
  1294  0312                     	;# 
  1295  0313                     	;# 
  1296  0318                     	;# 
  1297  0318                     	;# 
  1298  0319                     	;# 
  1299  031A                     	;# 
  1300  038C                     	;# 
  1301  038D                     	;# 
  1302  038E                     	;# 
  1303  0391                     	;# 
  1304  0392                     	;# 
  1305  0393                     	;# 
  1306  0394                     	;# 
  1307  0395                     	;# 
  1308  0396                     	;# 
  1309  039A                     	;# 
  1310  039C                     	;# 
  1311  039D                     	;# 
  1312  039E                     	;# 
  1313  039F                     	;# 
  1314  0415                     	;# 
  1315  0416                     	;# 
  1316  0417                     	;# 
  1317  041C                     	;# 
  1318  041D                     	;# 
  1319  041E                     	;# 
  1320  0FE4                     	;# 
  1321  0FE5                     	;# 
  1322  0FE6                     	;# 
  1323  0FE7                     	;# 
  1324  0FE8                     	;# 
  1325  0FE9                     	;# 
  1326  0FEA                     	;# 
  1327  0FEB                     	;# 
  1328  0FED                     	;# 
  1329  0FEE                     	;# 
  1330  0FEF                     	;_SIM800L
  1331  0011                     _PIR1bits	set	17
  1332  000D                     _PORTBbits	set	13
  1333  005F                     _GIE	set	95
  1334  005E                     _PEIE	set	94
  1335  008D                     _RCIF	set	141
  1336  0099                     _OSCCON	set	153
  1337  0097                     _WDTCONbits	set	151
  1338  048D                     _RCIE	set	1165
  1339  0464                     _TRISA4	set	1124
  1340  0465                     _TRISA5	set	1125
  1341  046C                     _TRISB4	set	1132
  1342  046E                     _TRISB6	set	1134
  1343  046F                     _TRISB7	set	1135
  1344  0470                     _TRISC0	set	1136
  1345  0471                     _TRISC1	set	1137
  1346  0472                     _TRISC2	set	1138
  1347  0474                     _TRISC4	set	1140
  1348  0475                     _TRISC5	set	1141
  1349  0476                     _TRISC6	set	1142
  1350  0477                     _TRISC7	set	1143
  1351  011D                     _APFCON0bits	set	285
  1352  010C                     _LATAbits	set	268
  1353  010D                     _LATBbits	set	269
  1354  010E                     _LATCbits	set	270
  1355  018D                     _ANSELB	set	397
  1356  019F                     _BAUDCONbits	set	415
  1357  0199                     _RCREG	set	409
  1358  019D                     _RCSTAbits	set	413
  1359  019B                     _SPBRG	set	411
  1360  019A                     _TXREG	set	410
  1361  019E                     _TXSTAbits	set	414
  1362  0CEC                     _CREN	set	3308
  1363  0212                     _SSPADD	set	530
  1364  0211                     _SSPBUF	set	529
  1365  0215                     _SSPCON	set	533
  1366  0216                     _SSPCON2	set	534
  1367  0214                     _SSPSTAT	set	532
  1368  10B5                     _ACKDT	set	4277
  1369  10B4                     _ACKEN	set	4276
  1370  10A0                     _BF	set	4256
  1371  10B2                     _PEN	set	4274
  1372  10B3                     _RCEN	set	4275
  1373  10B1                     _RSEN	set	4273
  1374  10B0                     _SEN	set	4272
  1375                           
  1376                           	psect	stringtext
  1377  05E7                     __pstringtext:	
  1378  05E7                     STR_16:	
  1379  05E7  3459               	retlw	89	;'Y'
  1380  05E8  346F               	retlw	111	;'o'
  1381  05E9  3475               	retlw	117	;'u'
  1382  05EA  3472               	retlw	114	;'r'
  1383  05EB  3420               	retlw	32	;' '
  1384  05EC  346E               	retlw	110	;'n'
  1385  05ED  3475               	retlw	117	;'u'
  1386  05EE  346D               	retlw	109	;'m'
  1387  05EF  3462               	retlw	98	;'b'
  1388  05F0  3465               	retlw	101	;'e'
  1389  05F1  3472               	retlw	114	;'r'
  1390  05F2  3420               	retlw	32	;' '
  1391  05F3  3468               	retlw	104	;'h'
  1392  05F4  3461               	retlw	97	;'a'
  1393  05F5  3464               	retlw	100	;'d'
  1394  05F6  3420               	retlw	32	;' '
  1395  05F7  3462               	retlw	98	;'b'
  1396  05F8  3465               	retlw	101	;'e'
  1397  05F9  3465               	retlw	101	;'e'
  1398  05FA  346E               	retlw	110	;'n'
  1399  05FB  3420               	retlw	32	;' '
  1400  05FC  3464               	retlw	100	;'d'
  1401  05FD  3465               	retlw	101	;'e'
  1402  05FE  346C               	retlw	108	;'l'
  1403  05FF  3465               	retlw	101	;'e'
  1404  0600  3474               	retlw	116	;'t'
  1405  0601  3465               	retlw	101	;'e'
  1406  0602  3464               	retlw	100	;'d'
  1407  0603  3400               	retlw	0
  1408  0604                     STR_14:	
  1409  0604  3459               	retlw	89	;'Y'
  1410  0605  346F               	retlw	111	;'o'
  1411  0606  3475               	retlw	117	;'u'
  1412  0607  3472               	retlw	114	;'r'
  1413  0608  3420               	retlw	32	;' '
  1414  0609  346E               	retlw	110	;'n'
  1415  060A  3475               	retlw	117	;'u'
  1416  060B  346D               	retlw	109	;'m'
  1417  060C  3462               	retlw	98	;'b'
  1418  060D  3465               	retlw	101	;'e'
  1419  060E  3472               	retlw	114	;'r'
  1420  060F  3420               	retlw	32	;' '
  1421  0610  3468               	retlw	104	;'h'
  1422  0611  3461               	retlw	97	;'a'
  1423  0612  3464               	retlw	100	;'d'
  1424  0613  3420               	retlw	32	;' '
  1425  0614  3462               	retlw	98	;'b'
  1426  0615  3465               	retlw	101	;'e'
  1427  0616  3465               	retlw	101	;'e'
  1428  0617  346E               	retlw	110	;'n'
  1429  0618  3420               	retlw	32	;' '
  1430  0619  3461               	retlw	97	;'a'
  1431  061A  3464               	retlw	100	;'d'
  1432  061B  3464               	retlw	100	;'d'
  1433  061C  3465               	retlw	101	;'e'
  1434  061D  3464               	retlw	100	;'d'
  1435  061E  3400               	retlw	0
  1436  061F                     STR_15:	
  1437  061F  3459               	retlw	89	;'Y'
  1438  0620  346F               	retlw	111	;'o'
  1439  0621  3475               	retlw	117	;'u'
  1440  0622  3472               	retlw	114	;'r'
  1441  0623  3420               	retlw	32	;' '
  1442  0624  346E               	retlw	110	;'n'
  1443  0625  3475               	retlw	117	;'u'
  1444  0626  346D               	retlw	109	;'m'
  1445  0627  3462               	retlw	98	;'b'
  1446  0628  3465               	retlw	101	;'e'
  1447  0629  3472               	retlw	114	;'r'
  1448  062A  3420               	retlw	32	;' '
  1449  062B  3461               	retlw	97	;'a'
  1450  062C  346C               	retlw	108	;'l'
  1451  062D  3472               	retlw	114	;'r'
  1452  062E  3465               	retlw	101	;'e'
  1453  062F  3461               	retlw	97	;'a'
  1454  0630  3464               	retlw	100	;'d'
  1455  0631  3479               	retlw	121	;'y'
  1456  0632  3420               	retlw	32	;' '
  1457  0633  3465               	retlw	101	;'e'
  1458  0634  3478               	retlw	120	;'x'
  1459  0635  3469               	retlw	105	;'i'
  1460  0636  3473               	retlw	115	;'s'
  1461  0637  3474               	retlw	116	;'t'
  1462  0638  3400               	retlw	0
  1463  0639                     STR_20:	
  1464  0639  3453               	retlw	83	;'S'
  1465  063A  3479               	retlw	121	;'y'
  1466  063B  3473               	retlw	115	;'s'
  1467  063C  3474               	retlw	116	;'t'
  1468  063D  3465               	retlw	101	;'e'
  1469  063E  346D               	retlw	109	;'m'
  1470  063F  3420               	retlw	32	;' '
  1471  0640  3465               	retlw	101	;'e'
  1472  0641  346E               	retlw	110	;'n'
  1473  0642  3461               	retlw	97	;'a'
  1474  0643  3462               	retlw	98	;'b'
  1475  0644  346C               	retlw	108	;'l'
  1476  0645  3465               	retlw	101	;'e'
  1477  0646  3464               	retlw	100	;'d'
  1478  0647  3400               	retlw	0
  1479  0648                     STR_6:	
  1480  0648  3441               	retlw	65	;'A'
  1481  0649  3454               	retlw	84	;'T'
  1482  064A  342B               	retlw	43	;'+'
  1483  064B  3443               	retlw	67	;'C'
  1484  064C  344D               	retlw	77	;'M'
  1485  064D  3447               	retlw	71	;'G'
  1486  064E  3446               	retlw	70	;'F'
  1487  064F  3420               	retlw	32	;' '
  1488  0650  343D               	retlw	61	;'='
  1489  0651  3420               	retlw	32	;' '
  1490  0652  3431               	retlw	49	;'1'
  1491  0653  340D               	retlw	13
  1492  0654  340A               	retlw	10
  1493  0655  3400               	retlw	0
  1494  0656                     STR_4:	
  1495  0656  3441               	retlw	65	;'A'
  1496  0657  3454               	retlw	84	;'T'
  1497  0658  342B               	retlw	43	;'+'
  1498  0659  3443               	retlw	67	;'C'
  1499  065A  344C               	retlw	76	;'L'
  1500  065B  3449               	retlw	73	;'I'
  1501  065C  3450               	retlw	80	;'P'
  1502  065D  343D               	retlw	61	;'='
  1503  065E  3431               	retlw	49	;'1'
  1504  065F  340D               	retlw	13
  1505  0660  340A               	retlw	10
  1506  0661  3400               	retlw	0
  1507  0662                     STR_19:	
  1508  0662  3436               	retlw	54	;'6'
  1509  0663  3431               	retlw	49	;'1'
  1510  0664  3434               	retlw	52	;'4'
  1511  0665  3431               	retlw	49	;'1'
  1512  0666  3436               	retlw	54	;'6'
  1513  0667  3435               	retlw	53	;'5'
  1514  0668  3434               	retlw	52	;'4'
  1515  0669  3438               	retlw	56	;'8'
  1516  066A  3431               	retlw	49	;'1'
  1517  066B  3438               	retlw	56	;'8'
  1518  066C  3400               	retlw	0
  1519  066D                     STR_7:	
  1520  066D  3441               	retlw	65	;'A'
  1521  066E  3454               	retlw	84	;'T'
  1522  066F  342B               	retlw	43	;'+'
  1523  0670  3443               	retlw	67	;'C'
  1524  0671  344D               	retlw	77	;'M'
  1525  0672  3447               	retlw	71	;'G'
  1526  0673  3453               	retlw	83	;'S'
  1527  0674  343D               	retlw	61	;'='
  1528  0675  3422               	retlw	34	;'"'
  1529  0676  3400               	retlw	0
  1530  0677                     STR_21:	
  1531  0677  3441               	retlw	65	;'A'
  1532  0678  3454               	retlw	84	;'T'
  1533  0679  342B               	retlw	43	;'+'
  1534  067A  3443               	retlw	67	;'C'
  1535  067B  3453               	retlw	83	;'S'
  1536  067C  3451               	retlw	81	;'Q'
  1537  067D  340D               	retlw	13
  1538  067E  340A               	retlw	10
  1539  067F  3400               	retlw	0
  1540  0680                     STR_12:	
  1541  0680  3441               	retlw	65	;'A'
  1542  0681  3454               	retlw	84	;'T'
  1543  0682  342B               	retlw	43	;'+'
  1544  0683  3443               	retlw	67	;'C'
  1545  0684  344D               	retlw	77	;'M'
  1546  0685  3447               	retlw	71	;'G'
  1547  0686  3444               	retlw	68	;'D'
  1548  0687  343D               	retlw	61	;'='
  1549  0688  3400               	retlw	0
  1550  0689                     STR_10:	
  1551  0689  3441               	retlw	65	;'A'
  1552  068A  3454               	retlw	84	;'T'
  1553  068B  342B               	retlw	43	;'+'
  1554  068C  3443               	retlw	67	;'C'
  1555  068D  344D               	retlw	77	;'M'
  1556  068E  3447               	retlw	71	;'G'
  1557  068F  3452               	retlw	82	;'R'
  1558  0690  343D               	retlw	61	;'='
  1559  0691  3400               	retlw	0
  1560  0692                     STR_3:	
  1561  0692  3441               	retlw	65	;'A'
  1562  0693  3454               	retlw	84	;'T'
  1563  0694  3445               	retlw	69	;'E'
  1564  0695  3430               	retlw	48	;'0'
  1565  0696  340D               	retlw	13
  1566  0697  340A               	retlw	10
  1567  0698  3400               	retlw	0
  1568  0699                     STR_22:	
  1569  0699  3441               	retlw	65	;'A'
  1570  069A  3454               	retlw	84	;'T'
  1571  069B  3448               	retlw	72	;'H'
  1572  069C  340D               	retlw	13
  1573  069D  340A               	retlw	10
  1574  069E  3400               	retlw	0
  1575  069F                     STR_2:	
  1576  069F  3441               	retlw	65	;'A'
  1577  06A0  3454               	retlw	84	;'T'
  1578  06A1  340D               	retlw	13
  1579  06A2  340A               	retlw	10
  1580  06A3  3400               	retlw	0
  1581  06A4                     STR_5:	
  1582  06A4  3441               	retlw	65	;'A'
  1583  06A5  3454               	retlw	84	;'T'
  1584  06A6  340A               	retlw	10
  1585  06A7  340D               	retlw	13
  1586  06A8  3400               	retlw	0
  1587  06A9                     STR_17:	
  1588  06A9  3431               	retlw	49	;'1'
  1589  06AA  3432               	retlw	50	;'2'
  1590  06AB  3433               	retlw	51	;'3'
  1591  06AC  3434               	retlw	52	;'4'
  1592  06AD  3400               	retlw	0
  1593  06AE                     STR_8:	
  1594  06AE  3422               	retlw	34	;'"'
  1595  06AF  340D               	retlw	13
  1596  06B0  340A               	retlw	10
  1597  06B1  3400               	retlw	0
  1598  06B2                     STR_1:	
  1599  06B2  342D               	retlw	45	;'-'
  1600  06B3  343E               	retlw	62	;'>'
  1601  06B4  3400               	retlw	0
  1602  06B5                     STR_23:	
  1603  06B5  3431               	retlw	49	;'1'
  1604  06B6  3400               	retlw	0
  1605  06AF                     
  1606                           ; #config settings
  1607  0000                     
  1608                           	psect	cinit
  1609  0018                     start_initialization:	
  1610  0018                     __initialization:		;BIGRAM
  1611                           
  1612                           ; Clear objects allocated to BIGRAM
  1613  0018  3063               	movlw	low (0+8291)
  1614  0019  0084               	movwf	4
  1615  001A  3020               	movlw	high (0+8291)
  1616  001B  0085               	movwf	5
  1617  001C  307D               	movlw	125
  1618  001D  00FE               	movwf	btemp
  1619  001E  3000               	movlw	0
  1620  001F  00FF               	movwf	btemp+1
  1621  0020  318B  232E  3180   	fcall	clear_ram0
  1622                           
  1623                           ; Clear objects allocated to BANK0
  1624  0023  3051               	movlw	low __pbssBANK0
  1625  0024  0084               	movwf	4
  1626  0025  3000               	movlw	high __pbssBANK0
  1627  0026  0085               	movwf	5
  1628  0027  3010               	movlw	16
  1629  0028  00FE               	movwf	btemp
  1630  0029  3000               	movlw	0
  1631  002A  00FF               	movwf	btemp+1
  1632  002B  318B  232E         	fcall	clear_ram0
  1633  002D                     end_of_initialization:	
  1634                           ;End of C runtime variable initialization code
  1635                           
  1636  002D                     __end_of__initialization:	
  1637  002D  107E               	bcf	int$flags,0	;clear compiler interrupt flag (level 1)
  1638  002E  0020               	movlb	0
  1639  002F  3184  2CFA         	ljmp	_main	;jump to C main() function
  1640                           
  1641                           	psect	bssBANK0
  1642  0051                     __pbssBANK0:	
  1643  0051                     USARTWriteInt@F3224:	
  1644  0051                     	ds	5
  1645  0056                     _password:	
  1646  0056                     	ds	4
  1647  005A                     _bufque:	
  1648  005A                     	ds	1
  1649  005B                     _i:	
  1650  005B                     	ds	1
  1651  005C                     _task:	
  1652  005C                     	ds	1
  1653  005D                     _password_empty:	
  1654  005D                     	ds	4
  1655                           
  1656                           	psect	clrtext
  1657  0B2E                     clear_ram0:	
  1658                           ;	Called with FSR0 containing the base address, and
  1659                           ;	btemp/btemp+1 has the size to clear
  1660                           
  1661  0B2E  0064               	clrwdt	;clear the watchdog before getting into this loop
  1662  0B2F                     clrloop0:	
  1663  0B2F  0180               	clrf	0	;clear RAM location pointed to by FSR
  1664  0B30  3101               	addfsr 0,1
  1665  0B31  3001               	movlw	1
  1666  0B32  02FE               	subwf	126,f
  1667  0B33  3000               	movlw	0
  1668  0B34  3BFF               	subwfb	127,f
  1669  0B35  087F               	movf	127,w
  1670  0B36  047E               	iorwf	126,w
  1671  0B37  1903               	btfsc	3,2
  1672  0B38  3400               	retlw	0	;all done for this memory range, return
  1673  0B39  2B2F               	goto	clrloop0	;have we reached the end yet?
  1674                           
  1675                           	psect	cstackCOMMON
  1676  0070                     __pcstackCOMMON:	
  1677  0070                     ?_I2CStart:	
  1678  0070                     ?_I2CSend:	
  1679                           ; 1 bytes @ 0x0
  1680                           
  1681  0070                     ?_I2CStop:	
  1682                           ; 1 bytes @ 0x0
  1683                           
  1684  0070                     ?_I2CRestart:	
  1685                           ; 1 bytes @ 0x0
  1686                           
  1687  0070                     ?_I2CRead:	
  1688                           ; 1 bytes @ 0x0
  1689                           
  1690  0070                     ?_I2CNak:	
  1691                           ; 1 bytes @ 0x0
  1692                           
  1693  0070                     ?_USARTWriteChar:	
  1694                           ; 1 bytes @ 0x0
  1695                           
  1696  0070                     ?_USARTHandleRxInt:	
  1697                           ; 1 bytes @ 0x0
  1698                           
  1699  0070                     ??_USARTHandleRxInt:	
  1700                           ; 1 bytes @ 0x0
  1701                           
  1702  0070                     ?_EEPROMEraseAll:	
  1703                           ; 1 bytes @ 0x0
  1704                           
  1705  0070                     ?_GPIOPortInit:	
  1706                           ; 1 bytes @ 0x0
  1707                           
  1708  0070                     ?_GPIORedLedBlink:	
  1709                           ; 1 bytes @ 0x0
  1710                           
  1711  0070                     ?_GPIOBlueLedBlink:	
  1712                           ; 1 bytes @ 0x0
  1713                           
  1714  0070                     ?_GPIOGreenLedBlink:	
  1715                           ; 1 bytes @ 0x0
  1716                           
  1717  0070                     ?_ISR:	
  1718                           ; 1 bytes @ 0x0
  1719                           
  1720  0070                     ?_SIM800init:	
  1721                           ; 1 bytes @ 0x0
  1722                           
  1723  0070                     ?_SIM800Command:	
  1724                           ; 1 bytes @ 0x0
  1725                           
  1726  0070                     ?_SIM800LClear:	
  1727                           ; 1 bytes @ 0x0
  1728                           
  1729  0070                     ?_SYSTEMInit:	
  1730                           ; 1 bytes @ 0x0
  1731                           
  1732  0070                     ?_I2CInit:	
  1733                           ; 1 bytes @ 0x0
  1734                           
  1735  0070                     ?_I2CWait:	
  1736                           ; 1 bytes @ 0x0
  1737                           
  1738  0070                     ?_main:	
  1739                           ; 1 bytes @ 0x0
  1740                           
  1741                           
  1742                           ; 1 bytes @ 0x0
  1743  0070                     	ds	11
  1744  007B                     ??_ISR:	
  1745                           
  1746                           ; 1 bytes @ 0xB
  1747  007B                     	ds	1
  1748                           
  1749                           	psect	cstackBANK0
  1750  0020                     __pcstackBANK0:	
  1751  0020                     USARTHandleRxInt@data:	
  1752                           
  1753                           ; 1 bytes @ 0x0
  1754  0020                     	ds	1
  1755  0021                     USARTHandleRxInt@ci_561:	
  1756                           
  1757                           ; 1 bytes @ 0x1
  1758  0021                     	ds	1
  1759  0022                     USARTHandleRxInt@ci:	
  1760                           
  1761                           ; 1 bytes @ 0x2
  1762  0022                     	ds	1
  1763  0023                     USARTHandleRxInt@ci_559:	
  1764                           
  1765                           ; 1 bytes @ 0x3
  1766  0023                     	ds	1
  1767  0024                     USARTHandleRxInt@ci_560:	
  1768                           
  1769                           ; 1 bytes @ 0x4
  1770  0024                     	ds	1
  1771  0025                     ??_I2CStart:	
  1772  0025                     ??_I2CSend:	
  1773                           ; 1 bytes @ 0x5
  1774                           
  1775  0025                     ??_I2CStop:	
  1776                           ; 1 bytes @ 0x5
  1777                           
  1778  0025                     ??_I2CRestart:	
  1779                           ; 1 bytes @ 0x5
  1780                           
  1781  0025                     ??_I2CRead:	
  1782                           ; 1 bytes @ 0x5
  1783                           
  1784  0025                     ??_I2CNak:	
  1785                           ; 1 bytes @ 0x5
  1786                           
  1787  0025                     ??_USARTWriteChar:	
  1788                           ; 1 bytes @ 0x5
  1789                           
  1790  0025                     ??_GPIOPortInit:	
  1791                           ; 1 bytes @ 0x5
  1792                           
  1793  0025                     ??_GPIORedLedBlink:	
  1794                           ; 1 bytes @ 0x5
  1795                           
  1796  0025                     ??_GPIOBlueLedBlink:	
  1797                           ; 1 bytes @ 0x5
  1798                           
  1799  0025                     ??_GPIOGreenLedBlink:	
  1800                           ; 1 bytes @ 0x5
  1801                           
  1802  0025                     ??_SIM800LClear:	
  1803                           ; 1 bytes @ 0x5
  1804                           
  1805  0025                     ??_SYSTEMInit:	
  1806                           ; 1 bytes @ 0x5
  1807                           
  1808  0025                     ?_USARTInit:	
  1809                           ; 1 bytes @ 0x5
  1810                           
  1811  0025                     ??_I2CInit:	
  1812                           ; 1 bytes @ 0x5
  1813                           
  1814  0025                     ??_I2CWait:	
  1815                           ; 1 bytes @ 0x5
  1816                           
  1817  0025                     ?___wmul:	
  1818                           ; 1 bytes @ 0x5
  1819                           
  1820  0025                     ?___lwdiv:	
  1821                           ; 2 bytes @ 0x5
  1822                           
  1823  0025                     SYSTEMInit@freq:	
  1824                           ; 2 bytes @ 0x5
  1825                           
  1826  0025                     USARTWriteChar@ch:	
  1827                           ; 1 bytes @ 0x5
  1828                           
  1829  0025                     I2CSend@dat:	
  1830                           ; 1 bytes @ 0x5
  1831                           
  1832  0025                     USARTInit@baud_rate:	
  1833                           ; 1 bytes @ 0x5
  1834                           
  1835  0025                     ___wmul@multiplier:	
  1836                           ; 2 bytes @ 0x5
  1837                           
  1838  0025                     ___lwdiv@divisor:	
  1839                           ; 2 bytes @ 0x5
  1840                           
  1841                           
  1842                           ; 2 bytes @ 0x5
  1843  0025                     	ds	1
  1844  0026                     ?_USARTWriteString:	
  1845  0026                     ?_EepromWrite:	
  1846                           ; 1 bytes @ 0x6
  1847                           
  1848  0026                     I2CRead@temp:	
  1849                           ; 1 bytes @ 0x6
  1850                           
  1851  0026                     EepromWrite@address:	
  1852                           ; 1 bytes @ 0x6
  1853                           
  1854  0026                     USARTWriteString@str:	
  1855                           ; 2 bytes @ 0x6
  1856                           
  1857                           
  1858                           ; 2 bytes @ 0x6
  1859  0026                     	ds	1
  1860  0027                     ??_USARTInit:	
  1861  0027                     ___wmul@multiplicand:	
  1862                           ; 1 bytes @ 0x7
  1863                           
  1864  0027                     ___lwdiv@dividend:	
  1865                           ; 2 bytes @ 0x7
  1866                           
  1867                           
  1868                           ; 2 bytes @ 0x7
  1869  0027                     	ds	1
  1870  0028                     ??_USARTWriteString:	
  1871  0028                     EepromWrite@data:	
  1872                           ; 1 bytes @ 0x8
  1873                           
  1874  0028                     GPIORedLedBlink@times:	
  1875                           ; 1 bytes @ 0x8
  1876                           
  1877  0028                     GPIOBlueLedBlink@times:	
  1878                           ; 1 bytes @ 0x8
  1879                           
  1880  0028                     GPIOGreenLedBlink@times:	
  1881                           ; 1 bytes @ 0x8
  1882                           
  1883                           
  1884                           ; 1 bytes @ 0x8
  1885  0028                     	ds	1
  1886  0029                     ?_USARTWriteLine:	
  1887  0029                     ??_EepromWrite:	
  1888                           ; 1 bytes @ 0x9
  1889                           
  1890  0029                     ??_EEPROMEraseAll:	
  1891                           ; 1 bytes @ 0x9
  1892                           
  1893  0029                     ?_EEPROMUpdatePassword:	
  1894                           ; 1 bytes @ 0x9
  1895                           
  1896  0029                     ??___wmul:	
  1897                           ; 1 bytes @ 0x9
  1898                           
  1899  0029                     ??___lwdiv:	
  1900                           ; 1 bytes @ 0x9
  1901                           
  1902  0029                     GPIORedLedBlink@i:	
  1903                           ; 1 bytes @ 0x9
  1904                           
  1905  0029                     GPIOBlueLedBlink@i:	
  1906                           ; 1 bytes @ 0x9
  1907                           
  1908  0029                     GPIOGreenLedBlink@i:	
  1909                           ; 1 bytes @ 0x9
  1910                           
  1911  0029                     SIM800LClear@i:	
  1912                           ; 1 bytes @ 0x9
  1913                           
  1914  0029                     EEPROMUpdatePassword@pass:	
  1915                           ; 1 bytes @ 0x9
  1916                           
  1917  0029                     USARTWriteLine@str:	
  1918                           ; 2 bytes @ 0x9
  1919                           
  1920  0029                     ___wmul@product:	
  1921                           ; 2 bytes @ 0x9
  1922                           
  1923                           
  1924                           ; 2 bytes @ 0x9
  1925  0029                     	ds	1
  1926  002A                     ___lwdiv@quotient:	
  1927                           
  1928                           ; 2 bytes @ 0xA
  1929  002A                     	ds	1
  1930  002B                     ??_USARTWriteLine:	
  1931  002B                     ?_EepromRead:	
  1932                           ; 1 bytes @ 0xB
  1933                           
  1934  002B                     ?_EEPROMSaveNumber:	
  1935                           ; 1 bytes @ 0xB
  1936                           
  1937  002B                     ?_EEPROMDeleteNumber:	
  1938                           ; 1 bytes @ 0xB
  1939                           
  1940  002B                     ??_EEPROMUpdatePassword:	
  1941                           ; 1 bytes @ 0xB
  1942                           
  1943  002B                     ??_SIM800init:	
  1944                           ; 1 bytes @ 0xB
  1945                           
  1946  002B                     ?_SIM800SendSms:	
  1947                           ; 1 bytes @ 0xB
  1948                           
  1949  002B                     ?_SIM800ReadSms:	
  1950                           ; 1 bytes @ 0xB
  1951                           
  1952  002B                     ?_SIM800DeleteSms:	
  1953                           ; 1 bytes @ 0xB
  1954                           
  1955  002B                     EepromRead@address:	
  1956                           ; 1 bytes @ 0xB
  1957                           
  1958  002B                     EEPROMSaveNumber@nmbr:	
  1959                           ; 2 bytes @ 0xB
  1960                           
  1961  002B                     EEPROMDeleteNumber@position:	
  1962                           ; 2 bytes @ 0xB
  1963                           
  1964  002B                     EEPROMEraseAll@i:	
  1965                           ; 2 bytes @ 0xB
  1966                           
  1967  002B                     SIM800SendSms@nmbr:	
  1968                           ; 2 bytes @ 0xB
  1969                           
  1970  002B                     SIM800ReadSms@mem:	
  1971                           ; 2 bytes @ 0xB
  1972                           
  1973  002B                     SIM800DeleteSms@index:	
  1974                           ; 2 bytes @ 0xB
  1975                           
  1976                           
  1977                           ; 2 bytes @ 0xB
  1978  002B                     	ds	1
  1979  002C                     ___lwdiv@counter:	
  1980                           
  1981                           ; 1 bytes @ 0xC
  1982  002C                     	ds	1
  1983  002D                     ??_EepromRead:	
  1984  002D                     ??_EEPROMDeleteNumber:	
  1985                           ; 1 bytes @ 0xD
  1986                           
  1987  002D                     ??_SIM800ReadSms:	
  1988                           ; 1 bytes @ 0xD
  1989                           
  1990  002D                     EEPROMSaveNumber@nmbrLenght:	
  1991                           ; 1 bytes @ 0xD
  1992                           
  1993  002D                     SIM800SendSms@msg:	
  1994                           ; 1 bytes @ 0xD
  1995                           
  1996  002D                     SIM800DeleteSms@flag:	
  1997                           ; 2 bytes @ 0xD
  1998                           
  1999                           
  2000                           ; 2 bytes @ 0xD
  2001  002D                     	ds	1
  2002  002E                     EepromRead@data:	
  2003  002E                     EEPROMSaveNumber@position:	
  2004                           ; 1 bytes @ 0xE
  2005                           
  2006                           
  2007                           ; 2 bytes @ 0xE
  2008  002E                     	ds	1
  2009  002F                     ?_EEPROMCheckPassword:	
  2010  002F                     ??_SIM800SendSms:	
  2011                           ; 1 bytes @ 0xF
  2012                           
  2013  002F                     ??_SIM800DeleteSms:	
  2014                           ; 1 bytes @ 0xF
  2015                           
  2016  002F                     ?_EEPROMSearchNumber:	
  2017                           ; 1 bytes @ 0xF
  2018                           
  2019  002F                     EEPROMDeleteNumber@address:	
  2020                           ; 2 bytes @ 0xF
  2021                           
  2022  002F                     EEPROMSearchNumber@nmbr:	
  2023                           ; 2 bytes @ 0xF
  2024                           
  2025  002F                     EEPROMCheckPassword@pass:	
  2026                           ; 2 bytes @ 0xF
  2027                           
  2028                           
  2029                           ; 2 bytes @ 0xF
  2030  002F                     	ds	1
  2031  0030                     ??_EEPROMSaveNumber:	
  2032                           
  2033                           ; 1 bytes @ 0x10
  2034  0030                     	ds	1
  2035  0031                     ??_EEPROMCheckPassword:	
  2036  0031                     EEPROMDeleteNumber@count:	
  2037                           ; 1 bytes @ 0x11
  2038                           
  2039  0031                     EEPROMSearchNumber@nmbrLenght:	
  2040                           ; 1 bytes @ 0x11
  2041                           
  2042                           
  2043                           ; 1 bytes @ 0x11
  2044  0031                     	ds	1
  2045  0032                     ??_EEPROMSearchNumber:	
  2046                           
  2047                           ; 1 bytes @ 0x12
  2048  0032                     	ds	1
  2049  0033                     EEPROMSaveNumber@result:	
  2050                           
  2051                           ; 2 bytes @ 0x13
  2052  0033                     	ds	2
  2053  0035                     EEPROMSaveNumber@count:	
  2054                           
  2055                           ; 2 bytes @ 0x15
  2056  0035                     	ds	2
  2057  0037                     EEPROMSaveNumber@address:	
  2058                           
  2059                           ; 2 bytes @ 0x17
  2060  0037                     	ds	1
  2061  0038                     EEPROMSearchNumber@count:	
  2062                           
  2063                           ; 2 bytes @ 0x18
  2064  0038                     	ds	1
  2065  0039                     ?_EEPROMAdd:	
  2066  0039                     EEPROMAdd@nmbr:	
  2067                           ; 1 bytes @ 0x19
  2068                           
  2069                           
  2070                           ; 2 bytes @ 0x19
  2071  0039                     	ds	1
  2072  003A                     EEPROMSearchNumber@result:	
  2073                           
  2074                           ; 2 bytes @ 0x1A
  2075  003A                     	ds	1
  2076  003B                     EEPROMAdd@nmbrLenght:	
  2077                           
  2078                           ; 1 bytes @ 0x1B
  2079  003B                     	ds	1
  2080  003C                     ??_EEPROMAdd:	
  2081  003C                     EEPROMSearchNumber@aux:	
  2082                           ; 1 bytes @ 0x1C
  2083                           
  2084                           
  2085                           ; 2 bytes @ 0x1C
  2086  003C                     	ds	1
  2087  003D                     EEPROMAdd@found:	
  2088                           
  2089                           ; 2 bytes @ 0x1D
  2090  003D                     	ds	2
  2091  003F                     EEPROMAdd@aux:	
  2092                           
  2093                           ; 1 bytes @ 0x1F
  2094  003F                     	ds	1
  2095  0040                     EEPROMAdd@empty:	
  2096                           
  2097                           ; 2 bytes @ 0x20
  2098  0040                     	ds	2
  2099  0042                     ??_SIM800Command:	
  2100                           
  2101                           ; 1 bytes @ 0x22
  2102  0042                     	ds	11
  2103  004D                     SIM800Command@add:	
  2104                           
  2105                           ; 1 bytes @ 0x2D
  2106  004D                     	ds	1
  2107  004E                     ??_main:	
  2108                           
  2109                           ; 1 bytes @ 0x2E
  2110  004E                     	ds	3
  2111                           
  2112                           	psect	maintext
  2113  04FA                     __pmaintext:	
  2114 ;;
  2115 ;;Main: autosize = 0, tempsize = 3, incstack = 0, save=0
  2116 ;;
  2117 ;; *************** function _main *****************
  2118 ;; Defined at:
  2119 ;;		line 14 in file "main.c"
  2120 ;; Parameters:    Size  Location     Type
  2121 ;;		None
  2122 ;; Auto vars:     Size  Location     Type
  2123 ;;		None
  2124 ;; Return value:  Size  Location     Type
  2125 ;;                  1    wreg      void 
  2126 ;; Registers used:
  2127 ;;		wreg, fsr0l, fsr0h, fsr1l, fsr1h, status,2, status,0, pclath, cstack
  2128 ;; Tracked objects:
  2129 ;;		On entry : B1F/0
  2130 ;;		On exit  : 0/0
  2131 ;;		Unchanged: 0/0
  2132 ;; Data sizes:     COMMON   BANK0   BANK1   BANK2
  2133 ;;      Params:         0       0       0       0
  2134 ;;      Locals:         0       0       0       0
  2135 ;;      Temps:          0       3       0       0
  2136 ;;      Totals:         0       3       0       0
  2137 ;;Total ram usage:        3 bytes
  2138 ;; Hardware stack levels required when called:    8
  2139 ;; This function calls:
  2140 ;;		_EEPROMCheckPassword
  2141 ;;		_EEPROMSearchNumber
  2142 ;;		_EEPROMUpdatePassword
  2143 ;;		_GPIOBlueLedBlink
  2144 ;;		_GPIOGreenLedBlink
  2145 ;;		_GPIOPortInit
  2146 ;;		_GPIORedLedBlink
  2147 ;;		_I2CInit
  2148 ;;		_SIM800Command
  2149 ;;		_SIM800DeleteSms
  2150 ;;		_SIM800LClear
  2151 ;;		_SIM800ReadSms
  2152 ;;		_SIM800SendSms
  2153 ;;		_SIM800init
  2154 ;;		_SYSTEMInit
  2155 ;;		_USARTInit
  2156 ;;		_USARTWriteLine
  2157 ;; This function is called by:
  2158 ;;		Startup code after reset
  2159 ;; This function uses a non-reentrant model
  2160 ;;
  2161                           
  2162                           
  2163                           ;psect for function _main
  2164  04FA                     _main:	
  2165                           
  2166                           ;main.c: 16: SYSTEMInit(8);
  2167                           
  2168                           ;incstack = 0
  2169                           ; Regs used in _main: [wreg-fsr1h+status,2+status,0+pclath+cstack]
  2170  04FA  3008               	movlw	8
  2171  04FB  318B  23B7  3184   	fcall	_SYSTEMInit
  2172                           
  2173                           ;main.c: 17: GPIOPortInit();
  2174  04FE  318B  2358  3184   	fcall	_GPIOPortInit
  2175                           
  2176                           ;main.c: 18: LATAbits.LATA4=0;
  2177  0501  0022               	movlb	2	; select bank2
  2178  0502  120C               	bcf	12,4	;volatile
  2179                           
  2180                           ;main.c: 19: USARTInit(115);
  2181  0503  3073               	movlw	115
  2182  0504  0020               	movlb	0	; select bank0
  2183  0505  00A5               	movwf	USARTInit@baud_rate
  2184  0506  3000               	movlw	0
  2185  0507  00A6               	movwf	USARTInit@baud_rate+1
  2186  0508  318D  2567  3184   	fcall	_USARTInit
  2187                           
  2188                           ;main.c: 20: I2CInit();
  2189  050B  318B  2323  3184   	fcall	_I2CInit
  2190                           
  2191                           ;main.c: 22: LATCbits.LATC1=1;
  2192  050E  0022               	movlb	2	; select bank2
  2193  050F  148E               	bsf	14,1	;volatile
  2194                           
  2195                           ;main.c: 23: LATCbits.LATC0=1;
  2196  0510  140E               	bsf	14,0	;volatile
  2197                           
  2198                           ;main.c: 24: LATCbits.LATC2=1;
  2199  0511  150E               	bsf	14,2	;volatile
  2200                           
  2201                           ;main.c: 25: SIM800init();
  2202  0512  318F  271C  3184   	fcall	_SIM800init
  2203                           
  2204                           ;main.c: 27: password_empty[0]=0xFF; password_empty[1]=0xFF; password_empty[2]=0xFF; pas
      +                          sword_empty[3]=0xFF;
  2205  0515  30FF               	movlw	255
  2206  0516  0020               	movlb	0	; select bank0
  2207  0517  00CE               	movwf	??_main
  2208  0518  084E               	movf	??_main,w
  2209  0519  00DD               	movwf	_password_empty
  2210  051A  30FF               	movlw	255
  2211  051B  00CE               	movwf	??_main
  2212  051C  084E               	movf	??_main,w
  2213  051D  00DE               	movwf	_password_empty+1
  2214  051E  30FF               	movlw	255
  2215  051F  00CE               	movwf	??_main
  2216  0520  084E               	movf	??_main,w
  2217  0521  00DF               	movwf	_password_empty+2
  2218  0522  30FF               	movlw	255
  2219  0523  00CE               	movwf	??_main
  2220  0524  084E               	movf	??_main,w
  2221  0525  00E0               	movwf	_password_empty+3
  2222                           
  2223                           ;main.c: 28: if(EEPROMCheckPassword(password_empty))
  2224  0526  305D               	movlw	low _password_empty
  2225  0527  00AF               	movwf	EEPROMCheckPassword@pass
  2226  0528  3000               	movlw	high _password_empty
  2227  0529  00B0               	movwf	EEPROMCheckPassword@pass+1
  2228  052A  318D  25FC  3184   	fcall	_EEPROMCheckPassword
  2229  052D  3A00               	xorlw	0
  2230  052E  1903               	skipnz
  2231  052F  2D38               	goto	l3068
  2232                           
  2233                           ;main.c: 29: {
  2234                           ;main.c: 30: EEPROMUpdatePassword("1234");
  2235  0530  30A9               	movlw	low (STR_17| (0+32768))
  2236  0531  0020               	movlb	0	; select bank0
  2237  0532  00A9               	movwf	EEPROMUpdatePassword@pass
  2238  0533  3086               	movlw	high (STR_17| (0+32768))
  2239  0534  00AA               	movwf	EEPROMUpdatePassword@pass+1
  2240  0535  3187  273A  3184   	fcall	_EEPROMUpdatePassword
  2241  0538                     l3068:	
  2242                           
  2243                           ;main.c: 31: }
  2244                           ;main.c: 33: LATCbits.LATC1=0;
  2245  0538  0022               	movlb	2	; select bank2
  2246  0539  108E               	bcf	14,1	;volatile
  2247                           
  2248                           ;main.c: 34: LATCbits.LATC0=0;
  2249  053A  100E               	bcf	14,0	;volatile
  2250                           
  2251                           ;main.c: 35: LATCbits.LATC2=1;
  2252  053B  150E               	bsf	14,2	;volatile
  2253                           
  2254                           ;main.c: 37: (GIE = 1);
  2255  053C  178B               	bsf	11,7	;volatile
  2256                           
  2257                           ;main.c: 38: RCSTAbits.CREN=1;
  2258  053D  0023               	movlb	3	; select bank3
  2259  053E  161D               	bsf	29,4	;volatile
  2260                           
  2261                           ;main.c: 39: SIM800SendSms("6141654818", "System enabled");
  2262  053F  3062               	movlw	low (STR_19| (0+32768))
  2263  0540  0020               	movlb	0	; select bank0
  2264  0541  00AB               	movwf	SIM800SendSms@nmbr
  2265  0542  3086               	movlw	high (STR_19| (0+32768))
  2266  0543  00AC               	movwf	SIM800SendSms@nmbr+1
  2267  0544  3039               	movlw	low (STR_20| (0+32768))
  2268  0545  00AD               	movwf	SIM800SendSms@msg
  2269  0546  3086               	movlw	high (STR_20| (0+32768))
  2270  0547  00AE               	movwf	SIM800SendSms@msg+1
  2271  0548  318E  2650  3184   	fcall	_SIM800SendSms
  2272                           
  2273                           ;main.c: 41: {
  2274                           ;main.c: 42: switch(task)
  2275                           
  2276                           ;main.c: 40: while(1)
  2277  054B  2DD7               	goto	l3126
  2278  054C                     l591:	
  2279                           ;main.c: 43: {
  2280                           ;main.c: 44: case 0:
  2281                           
  2282                           
  2283                           ;main.c: 45: if(RCSTAbits.OERR==1) {CREN=0;_delay((unsigned long)((200)*(8000000/4000000
      +                          .0)));RCSTAbits.CREN=1; }
  2284  054C  0023               	movlb	3	; select bank3
  2285  054D  1C9D               	btfss	29,1	;volatile
  2286  054E  2D57               	goto	l3084
  2287  054F  121D               	bcf	29,4	;volatile
  2288  0550  3085               	movlw	133
  2289  0551  0020               	movlb	0	; select bank0
  2290  0552  00CE               	movwf	??_main
  2291  0553                     u3067:	
  2292  0553  0BCE               	decfsz	??_main,f
  2293  0554  2D53               	goto	u3067
  2294  0555  0023               	movlb	3	; select bank3
  2295  0556  161D               	bsf	29,4	;volatile
  2296  0557                     l3084:	
  2297                           
  2298                           ;main.c: 46: USARTWriteLine("AT+CSQ\r\n");
  2299  0557  3077               	movlw	low (STR_21| (0+32768))
  2300  0558  0020               	movlb	0	; select bank0
  2301  0559  00A9               	movwf	USARTWriteLine@str
  2302  055A  3086               	movlw	high (STR_21| (0+32768))
  2303  055B  00AA               	movwf	USARTWriteLine@str+1
  2304  055C  318B  2348  3184   	fcall	_USARTWriteLine
  2305                           
  2306                           ;main.c: 47: _delay((unsigned long)((2000)*(8000000/4000.0)));
  2307  055F  3015               	movlw	21
  2308  0560  0020               	movlb	0	; select bank0
  2309  0561  00D0               	movwf	??_main+2
  2310  0562  304B               	movlw	75
  2311  0563  00CF               	movwf	??_main+1
  2312  0564  30D1               	movlw	209
  2313  0565  00CE               	movwf	??_main
  2314  0566                     u3077:	
  2315  0566  0BCE               	decfsz	??_main,f
  2316  0567  2D66               	goto	u3077
  2317  0568  0BCF               	decfsz	??_main+1,f
  2318  0569  2D66               	goto	u3077
  2319  056A  0BD0               	decfsz	??_main+2,f
  2320  056B  2D66               	goto	u3077
  2321  056C  0000               	nop
  2322  056D  0064               	clrwdt	;# 
  2323                           
  2324                           ;main.c: 49: break;
  2325  056E  2DD7               	goto	l3126
  2326  056F                     l3088:	
  2327                           ;main.c: 51: case 1:
  2328                           
  2329                           
  2330                           ;main.c: 52: USARTWriteLine("ATH\r\n");
  2331  056F  3099               	movlw	low (STR_22| (0+32768))
  2332  0570  0020               	movlb	0	; select bank0
  2333  0571  00A9               	movwf	USARTWriteLine@str
  2334  0572  3086               	movlw	high (STR_22| (0+32768))
  2335  0573  00AA               	movwf	USARTWriteLine@str+1
  2336  0574  318B  2348  3184   	fcall	_USARTWriteLine
  2337                           
  2338                           ;main.c: 54: if(EEPROMSearchNumber(SIM800L.cell,SIM800L.cell_lenght))
  2339  0577  3067               	movlw	103
  2340  0578  0020               	movlb	0	; select bank0
  2341  0579  00AF               	movwf	EEPROMSearchNumber@nmbr
  2342  057A  3020               	movlw	32
  2343  057B  00B0               	movwf	EEPROMSearchNumber@nmbr+1
  2344  057C  3063               	movlw	99
  2345  057D  0086               	movwf	6
  2346  057E  3020               	movlw	32
  2347  057F  0087               	movwf	7
  2348  0580  3153               	addfsr 1,19
  2349  0581  0801               	movf	1,w
  2350  0582  00CE               	movwf	??_main
  2351  0583  084E               	movf	??_main,w
  2352  0584  00B1               	movwf	EEPROMSearchNumber@nmbrLenght
  2353  0585  3186  26B7  3184   	fcall	_EEPROMSearchNumber
  2354  0588  0020               	movlb	0	; select bank0
  2355  0589  082F               	movf	?_EEPROMSearchNumber,w
  2356  058A  0430               	iorwf	?_EEPROMSearchNumber+1,w
  2357  058B  1903               	btfsc	3,2
  2358  058C  2DA5               	goto	l3102
  2359                           
  2360                           ;main.c: 55: {
  2361                           ;main.c: 56: GPIOGreenLedBlink(5);
  2362  058D  3005               	movlw	5
  2363  058E  318C  2456  3184   	fcall	_GPIOGreenLedBlink
  2364                           
  2365                           ;main.c: 57: LATCbits.LATC2=1;
  2366  0591  0022               	movlb	2	; select bank2
  2367  0592  150E               	bsf	14,2	;volatile
  2368                           
  2369                           ;main.c: 58: LATAbits.LATA4=1; _delay((unsigned long)((1000)*(8000000/4000.0))); LATAbit
      +                          s.LATA4=0;
  2370  0593  160C               	bsf	12,4	;volatile
  2371  0594  300B               	movlw	11
  2372  0595  0020               	movlb	0	; select bank0
  2373  0596  00D0               	movwf	??_main+2
  2374  0597  3026               	movlw	38
  2375  0598  00CF               	movwf	??_main+1
  2376  0599  3066               	movlw	102
  2377  059A  00CE               	movwf	??_main
  2378  059B                     u3087:	
  2379  059B  0BCE               	decfsz	??_main,f
  2380  059C  2D9B               	goto	u3087
  2381  059D  0BCF               	decfsz	??_main+1,f
  2382  059E  2D9B               	goto	u3087
  2383  059F  0BD0               	decfsz	??_main+2,f
  2384  05A0  2D9B               	goto	u3087
  2385  05A1  3200               	nop2
  2386  05A2  0022               	movlb	2	; select bank2
  2387  05A3  120C               	bcf	12,4	;volatile
  2388                           
  2389                           ;main.c: 59: }
  2390  05A4  2DA9               	goto	l3104
  2391  05A5                     l3102:	
  2392                           
  2393                           ;main.c: 60: else { GPIORedLedBlink(5); }
  2394  05A5  3005               	movlw	5
  2395  05A6  318C  2484  3184   	fcall	_GPIORedLedBlink
  2396  05A9                     l3104:	
  2397                           
  2398                           ;main.c: 62: SIM800LClear();
  2399  05A9  318E  26B5  3184   	fcall	_SIM800LClear
  2400  05AC  2DD5               	goto	l3122
  2401  05AD                     l3108:	
  2402                           ;main.c: 66: case 2:
  2403                           
  2404                           ;main.c: 64: break;
  2405                           
  2406                           ;main.c: 63: task=0;
  2407                           
  2408                           
  2409                           ;main.c: 67: GPIOBlueLedBlink(5);
  2410  05AD  3005               	movlw	5
  2411  05AE  318C  2428  3184   	fcall	_GPIOBlueLedBlink
  2412                           
  2413                           ;main.c: 68: SIM800ReadSms(SIM800L.smsmem);
  2414  05B1  3078               	movlw	120
  2415  05B2  0020               	movlb	0	; select bank0
  2416  05B3  00AB               	movwf	SIM800ReadSms@mem
  2417  05B4  3020               	movlw	32
  2418  05B5  00AC               	movwf	SIM800ReadSms@mem+1
  2419  05B6  318D  25B1  3184   	fcall	_SIM800ReadSms
  2420                           
  2421                           ;main.c: 69: task=3;
  2422  05B9  3003               	movlw	3
  2423  05BA  0020               	movlb	0	; select bank0
  2424  05BB  00CE               	movwf	??_main
  2425  05BC  084E               	movf	??_main,w
  2426  05BD  00DC               	movwf	_task
  2427                           
  2428                           ;main.c: 70: break;
  2429  05BE  2DD7               	goto	l3126
  2430  05BF                     l598:	
  2431                           ;main.c: 72: case 3:
  2432                           
  2433                           
  2434                           ;main.c: 73: LATCbits.LATC0=1;
  2435  05BF  0022               	movlb	2	; select bank2
  2436  05C0  140E               	bsf	14,0	;volatile
  2437                           
  2438                           ;main.c: 74: SIM800Command();
  2439  05C1  3182  22C7  3184   	fcall	_SIM800Command
  2440                           
  2441                           ;main.c: 75: SIM800LClear();
  2442  05C4  318E  26B5  3184   	fcall	_SIM800LClear
  2443                           
  2444                           ;main.c: 76: SIM800DeleteSms("1", "4");
  2445  05C7  30B5               	movlw	low (STR_23| (0+32768))
  2446  05C8  0020               	movlb	0	; select bank0
  2447  05C9  00AB               	movwf	SIM800DeleteSms@index
  2448  05CA  3086               	movlw	high (STR_23| (0+32768))
  2449  05CB  00AC               	movwf	SIM800DeleteSms@index+1
  2450  05CC  30AC               	movlw	low ((STR_17+3)| (0+32768))
  2451  05CD  00AD               	movwf	SIM800DeleteSms@flag
  2452  05CE  3086               	movlw	high ((STR_17+3)| (0+32768))
  2453  05CF  00AE               	movwf	SIM800DeleteSms@flag+1
  2454  05D0  3187  27B8  3184   	fcall	_SIM800DeleteSms
  2455                           
  2456                           ;main.c: 77: LATCbits.LATC0=0;
  2457  05D3  0022               	movlb	2	; select bank2
  2458  05D4  100E               	bcf	14,0	;volatile
  2459  05D5                     l3122:	
  2460                           
  2461                           ;main.c: 78: task=0;
  2462  05D5  0020               	movlb	0	; select bank0
  2463  05D6  01DC               	clrf	_task
  2464  05D7                     l3126:	
  2465                           ;main.c: 83: }
  2466                           
  2467                           ;main.c: 82: break;
  2468                           
  2469                           ;main.c: 81: default:
  2470                           
  2471                           ;main.c: 79: break;
  2472                           
  2473  05D7  0020               	movlb	0	; select bank0
  2474  05D8  085C               	movf	_task,w
  2475                           
  2476                           ; Switch size 1, requested type "space"
  2477                           ; Number of cases is 4, Range of values is 0 to 3
  2478                           ; switch strategies available:
  2479                           ; Name         Instructions Cycles
  2480                           ; simple_byte           13     7 (average)
  2481                           ; direct_byte           14     6 (fixed)
  2482                           ; jumptable            260     6 (fixed)
  2483                           ;	Chosen strategy is simple_byte
  2484  05D9  3A00               	xorlw	0	; case 0
  2485  05DA  1903               	skipnz
  2486  05DB  2D4C               	goto	l591
  2487  05DC  3A01               	xorlw	1	; case 1
  2488  05DD  1903               	skipnz
  2489  05DE  2D6F               	goto	l3088
  2490  05DF  3A03               	xorlw	3	; case 2
  2491  05E0  1903               	skipnz
  2492  05E1  2DAD               	goto	l3108
  2493  05E2  3A01               	xorlw	1	; case 3
  2494  05E3  1903               	skipnz
  2495  05E4  2DBF               	goto	l598
  2496  05E5  2DD7               	goto	l3126
  2497  05E6  2DD7               	goto	l3126
  2498  05E7                     __end_of_main:	
  2499                           
  2500                           	psect	text1
  2501  0D67                     __ptext1:	
  2502 ;; *************** function _USARTInit *****************
  2503 ;; Defined at:
  2504 ;;		line 6 in file "usart.c"
  2505 ;; Parameters:    Size  Location     Type
  2506 ;;  baud_rate       2    5[BANK0 ] unsigned int 
  2507 ;; Auto vars:     Size  Location     Type
  2508 ;;		None
  2509 ;; Return value:  Size  Location     Type
  2510 ;;                  1    wreg      void 
  2511 ;; Registers used:
  2512 ;;		wreg, fsr0l, fsr0h, status,2, status,0
  2513 ;; Tracked objects:
  2514 ;;		On entry : 0/0
  2515 ;;		On exit  : 0/0
  2516 ;;		Unchanged: 0/0
  2517 ;; Data sizes:     COMMON   BANK0   BANK1   BANK2
  2518 ;;      Params:         0       2       0       0
  2519 ;;      Locals:         0       0       0       0
  2520 ;;      Temps:          0       0       0       0
  2521 ;;      Totals:         0       2       0       0
  2522 ;;Total ram usage:        2 bytes
  2523 ;; Hardware stack levels used:    1
  2524 ;; Hardware stack levels required when called:    2
  2525 ;; This function calls:
  2526 ;;		Nothing
  2527 ;; This function is called by:
  2528 ;;		_main
  2529 ;; This function uses a non-reentrant model
  2530 ;;
  2531                           
  2532                           
  2533                           ;psect for function _USARTInit
  2534  0D67                     _USARTInit:	
  2535                           
  2536                           ;usart.c: 9: switch(baud_rate)
  2537                           
  2538                           ;incstack = 0
  2539                           ; Regs used in _USARTInit: [wreg-fsr0h+status,2+status,0]
  2540  0D67  2D74               	goto	l2872
  2541  0D68                     l2860:	
  2542                           ;usart.c: 10: {
  2543                           ;usart.c: 11: case 9600:
  2544                           
  2545                           
  2546                           ;usart.c: 12: SPBRG=51;
  2547  0D68  3033               	movlw	51
  2548  0D69  2D71               	goto	L4
  2549  0D6A                     l2862:	
  2550                           ;usart.c: 14: case 19200:
  2551                           
  2552                           ;usart.c: 13: break;
  2553                           
  2554                           
  2555                           ;usart.c: 15: SPBRG=64;
  2556  0D6A  3040               	movlw	64
  2557  0D6B  2D71               	goto	L4
  2558  0D6C                     l2864:	
  2559                           ;usart.c: 17: case 28800:
  2560                           
  2561                           ;usart.c: 16: break;
  2562                           
  2563                           
  2564                           ;usart.c: 18: SPBRG=42;
  2565  0D6C  302A               	movlw	42
  2566  0D6D  2D71               	goto	L4
  2567  0D6E                     l2866:	
  2568                           ;usart.c: 20: case 33600:
  2569                           
  2570                           ;usart.c: 19: break;
  2571                           
  2572                           
  2573                           ;usart.c: 21: SPBRG=36;
  2574  0D6E  3024               	movlw	36
  2575  0D6F  2D71               	goto	L4
  2576  0D70                     l2868:	
  2577                           ;usart.c: 23: case 115:
  2578                           
  2579                           ;usart.c: 22: break;
  2580                           
  2581                           
  2582                           ;usart.c: 24: SPBRG=16;
  2583  0D70  3010               	movlw	16
  2584  0D71                     L4:	
  2585  0D71  0023               	movlb	3	; select bank3
  2586  0D72  009B               	movwf	27	;volatile
  2587                           
  2588                           ;usart.c: 26: }
  2589                           
  2590                           ;usart.c: 25: break;
  2591  0D73  2D9F               	goto	l358
  2592  0D74                     l2872:	
  2593                           
  2594                           ; Switch on 2 bytes has been partitioned into a top level switch of size 1, and 5 sub-sw
      +                          itches
  2595                           ; Switch size 1, requested type "space"
  2596                           ; Number of cases is 5, Range of values is 0 to 131
  2597                           ; switch strategies available:
  2598                           ; Name         Instructions Cycles
  2599                           ; simple_byte           16     9 (average)
  2600                           ; jumptable            260     6 (fixed)
  2601                           ;	Chosen strategy is simple_byte
  2602  0D74  0020               	movlb	0	; select bank0
  2603  0D75  0826               	movf	USARTInit@baud_rate+1,w
  2604  0D76  3A00               	xorlw	0	; case 0
  2605  0D77  1903               	skipnz
  2606  0D78  2D86               	goto	l3310
  2607  0D79  3A25               	xorlw	37	; case 37
  2608  0D7A  1903               	skipnz
  2609  0D7B  2D8B               	goto	l3312
  2610  0D7C  3A6E               	xorlw	110	; case 75
  2611  0D7D  1903               	skipnz
  2612  0D7E  2D90               	goto	l3314
  2613  0D7F  3A3B               	xorlw	59	; case 112
  2614  0D80  1903               	skipnz
  2615  0D81  2D95               	goto	l3316
  2616  0D82  3AF3               	xorlw	243	; case 131
  2617  0D83  1903               	skipnz
  2618  0D84  2D9A               	goto	l3318
  2619  0D85  2D9F               	goto	l358
  2620  0D86                     l3310:	
  2621                           
  2622                           ; Switch size 1, requested type "space"
  2623                           ; Number of cases is 1, Range of values is 115 to 115
  2624                           ; switch strategies available:
  2625                           ; Name         Instructions Cycles
  2626                           ; simple_byte            4     3 (average)
  2627                           ; direct_byte           11     9 (fixed)
  2628                           ; jumptable            263     9 (fixed)
  2629                           ;	Chosen strategy is simple_byte
  2630  0D86  0825               	movf	USARTInit@baud_rate,w
  2631  0D87  3A73               	xorlw	115	; case 115
  2632  0D88  1903               	skipnz
  2633  0D89  2D70               	goto	l2868
  2634  0D8A  2D9F               	goto	l358
  2635  0D8B                     l3312:	
  2636                           
  2637                           ; Switch size 1, requested type "space"
  2638                           ; Number of cases is 1, Range of values is 128 to 128
  2639                           ; switch strategies available:
  2640                           ; Name         Instructions Cycles
  2641                           ; simple_byte            4     3 (average)
  2642                           ; direct_byte           11     9 (fixed)
  2643                           ; jumptable            263     9 (fixed)
  2644                           ;	Chosen strategy is simple_byte
  2645  0D8B  0825               	movf	USARTInit@baud_rate,w
  2646  0D8C  3A80               	xorlw	128	; case 128
  2647  0D8D  1903               	skipnz
  2648  0D8E  2D68               	goto	l2860
  2649  0D8F  2D9F               	goto	l358
  2650  0D90                     l3314:	
  2651                           
  2652                           ; Switch size 1, requested type "space"
  2653                           ; Number of cases is 1, Range of values is 0 to 0
  2654                           ; switch strategies available:
  2655                           ; Name         Instructions Cycles
  2656                           ; simple_byte            4     3 (average)
  2657                           ; direct_byte            8     6 (fixed)
  2658                           ; jumptable            260     6 (fixed)
  2659                           ;	Chosen strategy is simple_byte
  2660  0D90  0825               	movf	USARTInit@baud_rate,w
  2661  0D91  3A00               	xorlw	0	; case 0
  2662  0D92  1903               	skipnz
  2663  0D93  2D6A               	goto	l2862
  2664  0D94  2D9F               	goto	l358
  2665  0D95                     l3316:	
  2666                           
  2667                           ; Switch size 1, requested type "space"
  2668                           ; Number of cases is 1, Range of values is 128 to 128
  2669                           ; switch strategies available:
  2670                           ; Name         Instructions Cycles
  2671                           ; simple_byte            4     3 (average)
  2672                           ; direct_byte           11     9 (fixed)
  2673                           ; jumptable            263     9 (fixed)
  2674                           ;	Chosen strategy is simple_byte
  2675  0D95  0825               	movf	USARTInit@baud_rate,w
  2676  0D96  3A80               	xorlw	128	; case 128
  2677  0D97  1903               	skipnz
  2678  0D98  2D6C               	goto	l2864
  2679  0D99  2D9F               	goto	l358
  2680  0D9A                     l3318:	
  2681                           
  2682                           ; Switch size 1, requested type "space"
  2683                           ; Number of cases is 1, Range of values is 64 to 64
  2684                           ; switch strategies available:
  2685                           ; Name         Instructions Cycles
  2686                           ; simple_byte            4     3 (average)
  2687                           ; direct_byte           11     9 (fixed)
  2688                           ; jumptable            263     9 (fixed)
  2689                           ;	Chosen strategy is simple_byte
  2690  0D9A  0825               	movf	USARTInit@baud_rate,w
  2691  0D9B  3A40               	xorlw	64	; case 64
  2692  0D9C  1903               	skipnz
  2693  0D9D  2D6E               	goto	l2866
  2694  0D9E  2D9F               	goto	l358
  2695  0D9F                     l358:	
  2696                           
  2697                           ;usart.c: 28: APFCON0bits.RXDTSEL=1;
  2698  0D9F  0022               	movlb	2	; select bank2
  2699  0DA0  179D               	bsf	29,7	;volatile
  2700                           
  2701                           ;usart.c: 29: APFCON0bits.TXCKSEL=1;
  2702  0DA1  151D               	bsf	29,2	;volatile
  2703                           
  2704                           ;usart.c: 30: BAUDCONbits.BRG16=1;
  2705  0DA2  0023               	movlb	3	; select bank3
  2706  0DA3  159F               	bsf	31,3	;volatile
  2707                           
  2708                           ;usart.c: 32: TXSTAbits.TX9=0;
  2709  0DA4  131E               	bcf	30,6	;volatile
  2710                           
  2711                           ;usart.c: 33: TXSTAbits.TXEN=1;
  2712  0DA5  169E               	bsf	30,5	;volatile
  2713                           
  2714                           ;usart.c: 34: TXSTAbits.SYNC=0;
  2715  0DA6  121E               	bcf	30,4	;volatile
  2716                           
  2717                           ;usart.c: 35: TXSTAbits.BRGH=1;
  2718  0DA7  151E               	bsf	30,2	;volatile
  2719                           
  2720                           ;usart.c: 38: RCSTAbits.SPEN=1;
  2721  0DA8  179D               	bsf	29,7	;volatile
  2722                           
  2723                           ;usart.c: 39: RCSTAbits.RX9=0;
  2724  0DA9  131D               	bcf	29,6	;volatile
  2725                           
  2726                           ;usart.c: 40: RCSTAbits.CREN=1;
  2727  0DAA  161D               	bsf	29,4	;volatile
  2728                           
  2729                           ;usart.c: 41: RCSTAbits.ADDEN=0;
  2730  0DAB  119D               	bcf	29,3	;volatile
  2731                           
  2732                           ;usart.c: 44: RCIE=1;
  2733  0DAC  0021               	movlb	1	; select bank1
  2734  0DAD  1691               	bsf	17,5	;volatile
  2735                           
  2736                           ;usart.c: 45: PEIE=1;
  2737  0DAE  170B               	bsf	11,6	;volatile
  2738                           
  2739                           ;usart.c: 47: (GIE = 1);
  2740  0DAF  178B               	bsf	11,7	;volatile
  2741  0DB0  0008               	return
  2742  0DB1                     __end_of_USARTInit:	
  2743                           
  2744                           	psect	text2
  2745  0BB7                     __ptext2:	
  2746 ;; *************** function _SYSTEMInit *****************
  2747 ;; Defined at:
  2748 ;;		line 5 in file "system.c"
  2749 ;; Parameters:    Size  Location     Type
  2750 ;;  freq            1    wreg     unsigned char 
  2751 ;; Auto vars:     Size  Location     Type
  2752 ;;  freq            1    5[BANK0 ] unsigned char 
  2753 ;; Return value:  Size  Location     Type
  2754 ;;                  1    wreg      void 
  2755 ;; Registers used:
  2756 ;;		wreg, fsr0l, fsr0h, status,2, status,0
  2757 ;; Tracked objects:
  2758 ;;		On entry : 0/0
  2759 ;;		On exit  : 0/0
  2760 ;;		Unchanged: 0/0
  2761 ;; Data sizes:     COMMON   BANK0   BANK1   BANK2
  2762 ;;      Params:         0       0       0       0
  2763 ;;      Locals:         0       1       0       0
  2764 ;;      Temps:          0       0       0       0
  2765 ;;      Totals:         0       1       0       0
  2766 ;;Total ram usage:        1 bytes
  2767 ;; Hardware stack levels used:    1
  2768 ;; Hardware stack levels required when called:    2
  2769 ;; This function calls:
  2770 ;;		Nothing
  2771 ;; This function is called by:
  2772 ;;		_main
  2773 ;; This function uses a non-reentrant model
  2774 ;;
  2775                           
  2776                           
  2777                           ;psect for function _SYSTEMInit
  2778  0BB7                     _SYSTEMInit:	
  2779                           
  2780                           ;incstack = 0
  2781                           ; Regs used in _SYSTEMInit: [wreg-fsr0h+status,2+status,0]
  2782                           ;SYSTEMInit@freq stored from wreg
  2783  0BB7  0020               	movlb	0	; select bank0
  2784  0BB8  00A5               	movwf	SYSTEMInit@freq
  2785                           
  2786                           ;system.c: 7: WDTCONbits.WDTPS = 17;
  2787  0BB9  0021               	movlb	1	; select bank1
  2788  0BBA  0817               	movf	23,w	;volatile
  2789  0BBB  39C1               	andlw	-63
  2790  0BBC  3822               	iorlw	34
  2791  0BBD  0097               	movwf	23	;volatile
  2792                           
  2793                           ;system.c: 8: switch(freq)
  2794  0BBE  2BCB               	goto	l2856
  2795  0BBF                     l2848:	
  2796                           ;system.c: 9: {
  2797                           ;system.c: 10: case 4:
  2798                           
  2799                           
  2800                           ;system.c: 11: OSCCON=0b01101010;
  2801  0BBF  306A               	movlw	106
  2802  0BC0  0021               	movlb	1	; select bank1
  2803  0BC1  0099               	movwf	25	;volatile
  2804                           
  2805                           ;system.c: 12: break;
  2806  0BC2  0008               	return
  2807  0BC3                     l2850:	
  2808                           ;system.c: 13: case 8:
  2809                           
  2810                           
  2811                           ;system.c: 14: OSCCON=0b01110010;
  2812  0BC3  3072               	movlw	114
  2813  0BC4  0021               	movlb	1	; select bank1
  2814  0BC5  0099               	movwf	25	;volatile
  2815                           
  2816                           ;system.c: 15: break;
  2817  0BC6  0008               	return
  2818  0BC7                     l2852:	
  2819                           ;system.c: 16: case 16:
  2820                           
  2821                           
  2822                           ;system.c: 17: OSCCON=0b01111010;
  2823  0BC7  307A               	movlw	122
  2824  0BC8  0021               	movlb	1	; select bank1
  2825  0BC9  0099               	movwf	25	;volatile
  2826                           
  2827                           ;system.c: 21: }
  2828                           
  2829                           ;system.c: 20: break;
  2830                           
  2831                           ;system.c: 19: default:
  2832                           
  2833                           ;system.c: 18: break;
  2834  0BCA  0008               	return
  2835  0BCB                     l2856:	
  2836  0BCB  0020               	movlb	0	; select bank0
  2837  0BCC  0825               	movf	SYSTEMInit@freq,w
  2838                           
  2839                           ; Switch size 1, requested type "space"
  2840                           ; Number of cases is 3, Range of values is 4 to 16
  2841                           ; switch strategies available:
  2842                           ; Name         Instructions Cycles
  2843                           ; simple_byte           10     6 (average)
  2844                           ; direct_byte           35     9 (fixed)
  2845                           ; jumptable            263     9 (fixed)
  2846                           ;	Chosen strategy is simple_byte
  2847  0BCD  3A04               	xorlw	4	; case 4
  2848  0BCE  1903               	skipnz
  2849  0BCF  2BBF               	goto	l2848
  2850  0BD0  3A0C               	xorlw	12	; case 8
  2851  0BD1  1903               	skipnz
  2852  0BD2  2BC3               	goto	l2850
  2853  0BD3  3A18               	xorlw	24	; case 16
  2854  0BD4  1903               	skipnz
  2855  0BD5  2BC7               	goto	l2852
  2856  0BD6  2BD7               	goto	l317
  2857  0BD7                     l317:	
  2858  0BD7  0008               	return
  2859  0BD8                     __end_of_SYSTEMInit:	
  2860                           
  2861                           	psect	text3
  2862  0F1C                     __ptext3:	
  2863 ;; *************** function _SIM800init *****************
  2864 ;; Defined at:
  2865 ;;		line 7 in file "sim800l.c"
  2866 ;; Parameters:    Size  Location     Type
  2867 ;;		None
  2868 ;; Auto vars:     Size  Location     Type
  2869 ;;		None
  2870 ;; Return value:  Size  Location     Type
  2871 ;;                  1    wreg      unsigned char 
  2872 ;; Registers used:
  2873 ;;		wreg, fsr0l, fsr0h, status,2, status,0, pclath, cstack
  2874 ;; Tracked objects:
  2875 ;;		On entry : 0/0
  2876 ;;		On exit  : 0/0
  2877 ;;		Unchanged: 0/0
  2878 ;; Data sizes:     COMMON   BANK0   BANK1   BANK2
  2879 ;;      Params:         0       0       0       0
  2880 ;;      Locals:         0       0       0       0
  2881 ;;      Temps:          0       3       0       0
  2882 ;;      Totals:         0       3       0       0
  2883 ;;Total ram usage:        3 bytes
  2884 ;; Hardware stack levels used:    1
  2885 ;; Hardware stack levels required when called:    5
  2886 ;; This function calls:
  2887 ;;		_USARTWriteLine
  2888 ;; This function is called by:
  2889 ;;		_main
  2890 ;; This function uses a non-reentrant model
  2891 ;;
  2892                           
  2893                           
  2894                           ;psect for function _SIM800init
  2895  0F1C                     _SIM800init:	
  2896                           
  2897                           ;sim800l.c: 9: LATCbits.LATC6=1;
  2898                           
  2899                           ;incstack = 0
  2900                           ; Regs used in _SIM800init: [wreg-fsr0h+status,2+status,0+pclath+cstack]
  2901  0F1C  0022               	movlb	2	; select bank2
  2902  0F1D  170E               	bsf	14,6	;volatile
  2903                           
  2904                           ;sim800l.c: 10: _delay((unsigned long)((10)*(8000000/4000.0)));
  2905  0F1E  301A               	movlw	26
  2906  0F1F  0020               	movlb	0	; select bank0
  2907  0F20  00AC               	movwf	??_SIM800init+1
  2908  0F21  30F8               	movlw	248
  2909  0F22  00AB               	movwf	??_SIM800init
  2910  0F23                     u3097:	
  2911  0F23  0BAB               	decfsz	??_SIM800init,f
  2912  0F24  2F23               	goto	u3097
  2913  0F25  0BAC               	decfsz	??_SIM800init+1,f
  2914  0F26  2F23               	goto	u3097
  2915  0F27  0000               	nop
  2916                           
  2917                           ;sim800l.c: 11: LATCbits.LATC6=0;
  2918  0F28  0022               	movlb	2	; select bank2
  2919  0F29  130E               	bcf	14,6	;volatile
  2920                           
  2921                           ;sim800l.c: 12: _delay((unsigned long)((500)*(8000000/4000.0)));
  2922  0F2A  3006               	movlw	6
  2923  0F2B  0020               	movlb	0	; select bank0
  2924  0F2C  00AD               	movwf	??_SIM800init+2
  2925  0F2D  3013               	movlw	19
  2926  0F2E  00AC               	movwf	??_SIM800init+1
  2927  0F2F  30B1               	movlw	177
  2928  0F30  00AB               	movwf	??_SIM800init
  2929  0F31                     u3107:	
  2930  0F31  0BAB               	decfsz	??_SIM800init,f
  2931  0F32  2F31               	goto	u3107
  2932  0F33  0BAC               	decfsz	??_SIM800init+1,f
  2933  0F34  2F31               	goto	u3107
  2934  0F35  0BAD               	decfsz	??_SIM800init+2,f
  2935  0F36  2F31               	goto	u3107
  2936  0F37  3200               	nop2
  2937                           
  2938                           ;sim800l.c: 13: LATCbits.LATC6=1;
  2939  0F38  0022               	movlb	2	; select bank2
  2940  0F39  170E               	bsf	14,6	;volatile
  2941                           
  2942                           ;sim800l.c: 14: _delay((unsigned long)((10000)*(8000000/4000.0)));
  2943  0F3A  3066               	movlw	102
  2944  0F3B  0020               	movlb	0	; select bank0
  2945  0F3C  00AD               	movwf	??_SIM800init+2
  2946  0F3D  3077               	movlw	119
  2947  0F3E  00AC               	movwf	??_SIM800init+1
  2948  0F3F  3024               	movlw	36
  2949  0F40  00AB               	movwf	??_SIM800init
  2950  0F41                     u3117:	
  2951  0F41  0BAB               	decfsz	??_SIM800init,f
  2952  0F42  2F41               	goto	u3117
  2953  0F43  0BAC               	decfsz	??_SIM800init+1,f
  2954  0F44  2F41               	goto	u3117
  2955  0F45  0BAD               	decfsz	??_SIM800init+2,f
  2956  0F46  2F41               	goto	u3117
  2957  0F47  0000               	nop
  2958                           
  2959                           ;sim800l.c: 15: USARTWriteLine("AT\r\n");
  2960  0F48  309F               	movlw	low (STR_2| (0+32768))
  2961  0F49  0020               	movlb	0	; select bank0
  2962  0F4A  00A9               	movwf	USARTWriteLine@str
  2963  0F4B  3086               	movlw	high (STR_2| (0+32768))
  2964  0F4C  00AA               	movwf	USARTWriteLine@str+1
  2965  0F4D  318B  2348  318F   	fcall	_USARTWriteLine
  2966                           
  2967                           ;sim800l.c: 16: _delay((unsigned long)((2000)*(8000000/4000.0)));
  2968  0F50  3015               	movlw	21
  2969  0F51  0020               	movlb	0	; select bank0
  2970  0F52  00AD               	movwf	??_SIM800init+2
  2971  0F53  304B               	movlw	75
  2972  0F54  00AC               	movwf	??_SIM800init+1
  2973  0F55  30D1               	movlw	209
  2974  0F56  00AB               	movwf	??_SIM800init
  2975  0F57                     u3127:	
  2976  0F57  0BAB               	decfsz	??_SIM800init,f
  2977  0F58  2F57               	goto	u3127
  2978  0F59  0BAC               	decfsz	??_SIM800init+1,f
  2979  0F5A  2F57               	goto	u3127
  2980  0F5B  0BAD               	decfsz	??_SIM800init+2,f
  2981  0F5C  2F57               	goto	u3127
  2982  0F5D  0000               	nop
  2983                           
  2984                           ;sim800l.c: 17: USARTWriteLine("ATE0\r\n");
  2985  0F5E  3092               	movlw	low (STR_3| (0+32768))
  2986  0F5F  0020               	movlb	0	; select bank0
  2987  0F60  00A9               	movwf	USARTWriteLine@str
  2988  0F61  3086               	movlw	high (STR_3| (0+32768))
  2989  0F62  00AA               	movwf	USARTWriteLine@str+1
  2990  0F63  318B  2348  318F   	fcall	_USARTWriteLine
  2991                           
  2992                           ;sim800l.c: 18: _delay((unsigned long)((2000)*(8000000/4000.0)));
  2993  0F66  3015               	movlw	21
  2994  0F67  0020               	movlb	0	; select bank0
  2995  0F68  00AD               	movwf	??_SIM800init+2
  2996  0F69  304B               	movlw	75
  2997  0F6A  00AC               	movwf	??_SIM800init+1
  2998  0F6B  30D1               	movlw	209
  2999  0F6C  00AB               	movwf	??_SIM800init
  3000  0F6D                     u3137:	
  3001  0F6D  0BAB               	decfsz	??_SIM800init,f
  3002  0F6E  2F6D               	goto	u3137
  3003  0F6F  0BAC               	decfsz	??_SIM800init+1,f
  3004  0F70  2F6D               	goto	u3137
  3005  0F71  0BAD               	decfsz	??_SIM800init+2,f
  3006  0F72  2F6D               	goto	u3137
  3007  0F73  0000               	nop
  3008                           
  3009                           ;sim800l.c: 19: USARTWriteLine("AT+CLIP=1\r\n");
  3010  0F74  3056               	movlw	low (STR_4| (0+32768))
  3011  0F75  0020               	movlb	0	; select bank0
  3012  0F76  00A9               	movwf	USARTWriteLine@str
  3013  0F77  3086               	movlw	high (STR_4| (0+32768))
  3014  0F78  00AA               	movwf	USARTWriteLine@str+1
  3015  0F79  318B  2348  318F   	fcall	_USARTWriteLine
  3016                           
  3017                           ;sim800l.c: 20: _delay((unsigned long)((2000)*(8000000/4000.0)));
  3018  0F7C  3015               	movlw	21
  3019  0F7D  0020               	movlb	0	; select bank0
  3020  0F7E  00AD               	movwf	??_SIM800init+2
  3021  0F7F  304B               	movlw	75
  3022  0F80  00AC               	movwf	??_SIM800init+1
  3023  0F81  30D1               	movlw	209
  3024  0F82  00AB               	movwf	??_SIM800init
  3025  0F83                     u3147:	
  3026  0F83  0BAB               	decfsz	??_SIM800init,f
  3027  0F84  2F83               	goto	u3147
  3028  0F85  0BAC               	decfsz	??_SIM800init+1,f
  3029  0F86  2F83               	goto	u3147
  3030  0F87  0BAD               	decfsz	??_SIM800init+2,f
  3031  0F88  2F83               	goto	u3147
  3032  0F89  0000               	nop
  3033  0F8A  0008               	return
  3034  0F8B                     __end_of_SIM800init:	
  3035                           ;sim800l.c: 27: return 0;
  3036                           ;	Return value of _SIM800init is never used
  3037                           
  3038                           
  3039                           	psect	text4
  3040  0DB1                     __ptext4:	
  3041 ;; *************** function _SIM800ReadSms *****************
  3042 ;; Defined at:
  3043 ;;		line 52 in file "sim800l.c"
  3044 ;; Parameters:    Size  Location     Type
  3045 ;;  mem             2   11[BANK0 ] PTR const unsigned char 
  3046 ;;		 -> SIM800L.smsmem(5), SIM800L(125), 
  3047 ;; Auto vars:     Size  Location     Type
  3048 ;;		None
  3049 ;; Return value:  Size  Location     Type
  3050 ;;                  1    wreg      unsigned char 
  3051 ;; Registers used:
  3052 ;;		wreg, fsr0l, fsr0h, status,2, status,0, pclath, cstack
  3053 ;; Tracked objects:
  3054 ;;		On entry : 0/0
  3055 ;;		On exit  : 0/0
  3056 ;;		Unchanged: 0/0
  3057 ;; Data sizes:     COMMON   BANK0   BANK1   BANK2
  3058 ;;      Params:         0       2       0       0
  3059 ;;      Locals:         0       0       0       0
  3060 ;;      Temps:          0       3       0       0
  3061 ;;      Totals:         0       5       0       0
  3062 ;;Total ram usage:        5 bytes
  3063 ;; Hardware stack levels used:    1
  3064 ;; Hardware stack levels required when called:    5
  3065 ;; This function calls:
  3066 ;;		_USARTWriteLine
  3067 ;;		_USARTWriteString
  3068 ;; This function is called by:
  3069 ;;		_main
  3070 ;; This function uses a non-reentrant model
  3071 ;;
  3072                           
  3073                           
  3074                           ;psect for function _SIM800ReadSms
  3075  0DB1                     _SIM800ReadSms:	
  3076                           
  3077                           ;sim800l.c: 54: _delay((unsigned long)((2000)*(8000000/4000.0)));
  3078                           
  3079                           ;incstack = 0
  3080                           ; Regs used in _SIM800ReadSms: [wreg-fsr0h+status,2+status,0+pclath+cstack]
  3081  0DB1  3015               	movlw	21
  3082  0DB2  0020               	movlb	0	; select bank0
  3083  0DB3  00AF               	movwf	??_SIM800ReadSms+2
  3084  0DB4  304B               	movlw	75
  3085  0DB5  00AE               	movwf	??_SIM800ReadSms+1
  3086  0DB6  30D1               	movlw	209
  3087  0DB7  00AD               	movwf	??_SIM800ReadSms
  3088  0DB8                     u3157:	
  3089  0DB8  0BAD               	decfsz	??_SIM800ReadSms,f
  3090  0DB9  2DB8               	goto	u3157
  3091  0DBA  0BAE               	decfsz	??_SIM800ReadSms+1,f
  3092  0DBB  2DB8               	goto	u3157
  3093  0DBC  0BAF               	decfsz	??_SIM800ReadSms+2,f
  3094  0DBD  2DB8               	goto	u3157
  3095  0DBE  0000               	nop
  3096                           
  3097                           ;sim800l.c: 55: USARTWriteLine("AT+CMGF = 1\r\n");
  3098  0DBF  3048               	movlw	low (STR_6| (0+32768))
  3099  0DC0  0020               	movlb	0	; select bank0
  3100  0DC1  00A9               	movwf	USARTWriteLine@str
  3101  0DC2  3086               	movlw	high (STR_6| (0+32768))
  3102  0DC3  00AA               	movwf	USARTWriteLine@str+1
  3103  0DC4  318B  2348  318D   	fcall	_USARTWriteLine
  3104                           
  3105                           ;sim800l.c: 56: _delay((unsigned long)((2000)*(8000000/4000.0)));
  3106  0DC7  3015               	movlw	21
  3107  0DC8  0020               	movlb	0	; select bank0
  3108  0DC9  00AF               	movwf	??_SIM800ReadSms+2
  3109  0DCA  304B               	movlw	75
  3110  0DCB  00AE               	movwf	??_SIM800ReadSms+1
  3111  0DCC  30D1               	movlw	209
  3112  0DCD  00AD               	movwf	??_SIM800ReadSms
  3113  0DCE                     u3167:	
  3114  0DCE  0BAD               	decfsz	??_SIM800ReadSms,f
  3115  0DCF  2DCE               	goto	u3167
  3116  0DD0  0BAE               	decfsz	??_SIM800ReadSms+1,f
  3117  0DD1  2DCE               	goto	u3167
  3118  0DD2  0BAF               	decfsz	??_SIM800ReadSms+2,f
  3119  0DD3  2DCE               	goto	u3167
  3120  0DD4  0000               	nop
  3121                           
  3122                           ;sim800l.c: 57: USARTWriteLine("AT+CMGR=");
  3123  0DD5  3089               	movlw	low (STR_10| (0+32768))
  3124  0DD6  0020               	movlb	0	; select bank0
  3125  0DD7  00A9               	movwf	USARTWriteLine@str
  3126  0DD8  3086               	movlw	high (STR_10| (0+32768))
  3127  0DD9  00AA               	movwf	USARTWriteLine@str+1
  3128  0DDA  318B  2348  318D   	fcall	_USARTWriteLine
  3129                           
  3130                           ;sim800l.c: 58: USARTWriteString(mem);
  3131  0DDD  0020               	movlb	0	; select bank0
  3132  0DDE  082C               	movf	SIM800ReadSms@mem+1,w
  3133  0DDF  00A7               	movwf	USARTWriteString@str+1
  3134  0DE0  082B               	movf	SIM800ReadSms@mem,w
  3135  0DE1  00A6               	movwf	USARTWriteString@str
  3136  0DE2  318B  2369  318D   	fcall	_USARTWriteString
  3137                           
  3138                           ;sim800l.c: 59: USARTWriteString("\r\n");
  3139  0DE5  30AF               	movlw	low ((STR_8+1)| (0+32768))
  3140  0DE6  0020               	movlb	0	; select bank0
  3141  0DE7  00A6               	movwf	USARTWriteString@str
  3142  0DE8  3086               	movlw	high ((STR_8+1)| (0+32768))
  3143  0DE9  00A7               	movwf	USARTWriteString@str+1
  3144  0DEA  318B  2369  318D   	fcall	_USARTWriteString
  3145                           
  3146                           ;sim800l.c: 60: _delay((unsigned long)((2000)*(8000000/4000.0)));
  3147  0DED  3015               	movlw	21
  3148  0DEE  0020               	movlb	0	; select bank0
  3149  0DEF  00AF               	movwf	??_SIM800ReadSms+2
  3150  0DF0  304B               	movlw	75
  3151  0DF1  00AE               	movwf	??_SIM800ReadSms+1
  3152  0DF2  30D1               	movlw	209
  3153  0DF3  00AD               	movwf	??_SIM800ReadSms
  3154  0DF4                     u3177:	
  3155  0DF4  0BAD               	decfsz	??_SIM800ReadSms,f
  3156  0DF5  2DF4               	goto	u3177
  3157  0DF6  0BAE               	decfsz	??_SIM800ReadSms+1,f
  3158  0DF7  2DF4               	goto	u3177
  3159  0DF8  0BAF               	decfsz	??_SIM800ReadSms+2,f
  3160  0DF9  2DF4               	goto	u3177
  3161  0DFA  0000               	nop
  3162  0DFB  0008               	return
  3163  0DFC                     __end_of_SIM800ReadSms:	
  3164                           ;sim800l.c: 61: return 1;
  3165                           ;	Return value of _SIM800ReadSms is never used
  3166                           
  3167                           
  3168                           	psect	text5
  3169  0EB5                     __ptext5:	
  3170 ;; *************** function _SIM800LClear *****************
  3171 ;; Defined at:
  3172 ;;		line 176 in file "sim800l.c"
  3173 ;; Parameters:    Size  Location     Type
  3174 ;;		None
  3175 ;; Auto vars:     Size  Location     Type
  3176 ;;  i               1    9[BANK0 ] unsigned char 
  3177 ;; Return value:  Size  Location     Type
  3178 ;;                  1    wreg      void 
  3179 ;; Registers used:
  3180 ;;		wreg, fsr1l, fsr1h, status,2, status,0
  3181 ;; Tracked objects:
  3182 ;;		On entry : 0/0
  3183 ;;		On exit  : 0/0
  3184 ;;		Unchanged: 0/0
  3185 ;; Data sizes:     COMMON   BANK0   BANK1   BANK2
  3186 ;;      Params:         0       0       0       0
  3187 ;;      Locals:         0       1       0       0
  3188 ;;      Temps:          0       4       0       0
  3189 ;;      Totals:         0       5       0       0
  3190 ;;Total ram usage:        5 bytes
  3191 ;; Hardware stack levels used:    1
  3192 ;; Hardware stack levels required when called:    2
  3193 ;; This function calls:
  3194 ;;		Nothing
  3195 ;; This function is called by:
  3196 ;;		_main
  3197 ;; This function uses a non-reentrant model
  3198 ;;
  3199                           
  3200                           
  3201                           ;psect for function _SIM800LClear
  3202  0EB5                     _SIM800LClear:	
  3203                           
  3204                           ;sim800l.c: 178: uint8_t i;
  3205                           ;sim800l.c: 179: SIM800L.busy=0;
  3206                           
  3207                           ;incstack = 0
  3208                           ; Regs used in _SIM800LClear: [wreg+fsr1l+fsr1h+status,2+status,0]
  3209  0EB5  3063               	movlw	99
  3210  0EB6  0086               	movwf	6
  3211  0EB7  3020               	movlw	32
  3212  0EB8  0087               	movwf	7
  3213  0EB9  3000               	movlw	0
  3214  0EBA  3FC0               	movwi [0]fsr1
  3215                           
  3216                           ;sim800l.c: 180: SIM800L.uncomplete=0;
  3217  0EBB  3063               	movlw	99
  3218  0EBC  0086               	movwf	6
  3219  0EBD  3020               	movlw	32
  3220  0EBE  0087               	movwf	7
  3221  0EBF  3141               	addfsr 1,1
  3222  0EC0  0181               	clrf	1
  3223                           
  3224                           ;sim800l.c: 181: SIM800L.cell_lenght=0;
  3225  0EC1  3063               	movlw	99
  3226  0EC2  0086               	movwf	6
  3227  0EC3  3020               	movlw	32
  3228  0EC4  0087               	movwf	7
  3229  0EC5  3153               	addfsr 1,19
  3230  0EC6  0181               	clrf	1
  3231                           
  3232                           ;sim800l.c: 182: SIM800L.ok=0;
  3233  0EC7  3063               	movlw	99
  3234  0EC8  0086               	movwf	6
  3235  0EC9  3020               	movlw	32
  3236  0ECA  0087               	movwf	7
  3237  0ECB  3142               	addfsr 1,2
  3238  0ECC  0181               	clrf	1
  3239                           
  3240                           ;sim800l.c: 183: for(i=0;i<15;i++){SIM800L.cell[i]='\0';}
  3241  0ECD  0020               	movlb	0	; select bank0
  3242  0ECE  01A9               	clrf	SIM800LClear@i
  3243  0ECF  300F               	movlw	15
  3244  0ED0  0229               	subwf	SIM800LClear@i,w
  3245  0ED1  1803               	btfsc	3,0
  3246  0ED2  2EE9               	goto	l2822
  3247  0ED3                     l2816:	
  3248  0ED3  0829               	movf	SIM800LClear@i,w
  3249  0ED4  00A5               	movwf	??_SIM800LClear
  3250  0ED5  01A6               	clrf	??_SIM800LClear+1
  3251  0ED6  3067               	movlw	103
  3252  0ED7  00A7               	movwf	??_SIM800LClear+2
  3253  0ED8  3020               	movlw	32
  3254  0ED9  00A8               	movwf	??_SIM800LClear+3
  3255  0EDA  0825               	movf	??_SIM800LClear,w
  3256  0EDB  0727               	addwf	??_SIM800LClear+2,w
  3257  0EDC  0086               	movwf	6
  3258  0EDD  0826               	movf	??_SIM800LClear+1,w
  3259  0EDE  3D28               	addwfc	??_SIM800LClear+3,w
  3260  0EDF  0087               	movwf	7
  3261  0EE0  0181               	clrf	1
  3262  0EE1  3001               	movlw	1
  3263  0EE2  00A5               	movwf	??_SIM800LClear
  3264  0EE3  0825               	movf	??_SIM800LClear,w
  3265  0EE4  07A9               	addwf	SIM800LClear@i,f
  3266  0EE5  300F               	movlw	15
  3267  0EE6  0229               	subwf	SIM800LClear@i,w
  3268  0EE7  1C03               	skipc
  3269  0EE8  2ED3               	goto	l2816
  3270  0EE9                     l2822:	
  3271                           
  3272                           ;sim800l.c: 184: for(i=0;i<64;i++) SIM800L.buffer[i]=0;
  3273  0EE9  01A9               	clrf	SIM800LClear@i
  3274  0EEA  3040               	movlw	64
  3275  0EEB  0229               	subwf	SIM800LClear@i,w
  3276  0EEC  1803               	btfsc	3,0
  3277  0EED  2F04               	goto	l2834
  3278  0EEE                     l2828:	
  3279  0EEE  0829               	movf	SIM800LClear@i,w
  3280  0EEF  00A5               	movwf	??_SIM800LClear
  3281  0EF0  01A6               	clrf	??_SIM800LClear+1
  3282  0EF1  307D               	movlw	125
  3283  0EF2  00A7               	movwf	??_SIM800LClear+2
  3284  0EF3  3020               	movlw	32
  3285  0EF4  00A8               	movwf	??_SIM800LClear+3
  3286  0EF5  0825               	movf	??_SIM800LClear,w
  3287  0EF6  0727               	addwf	??_SIM800LClear+2,w
  3288  0EF7  0086               	movwf	6
  3289  0EF8  0826               	movf	??_SIM800LClear+1,w
  3290  0EF9  3D28               	addwfc	??_SIM800LClear+3,w
  3291  0EFA  0087               	movwf	7
  3292  0EFB  0181               	clrf	1
  3293  0EFC  3001               	movlw	1
  3294  0EFD  00A5               	movwf	??_SIM800LClear
  3295  0EFE  0825               	movf	??_SIM800LClear,w
  3296  0EFF  07A9               	addwf	SIM800LClear@i,f
  3297  0F00  3040               	movlw	64
  3298  0F01  0229               	subwf	SIM800LClear@i,w
  3299  0F02  1C03               	skipc
  3300  0F03  2EEE               	goto	l2828
  3301  0F04                     l2834:	
  3302                           
  3303                           ;sim800l.c: 185: for(i=0;i<25;i++) SIM800L.command[i]=0;
  3304  0F04  01A9               	clrf	SIM800LClear@i
  3305  0F05                     L5:	
  3306  0F05  3019               	movlw	25
  3307  0F06  0229               	subwf	SIM800LClear@i,w
  3308  0F07  1803               	btfsc	3,0
  3309  0F08  0008               	return
  3310  0F09  0829               	movf	SIM800LClear@i,w
  3311  0F0A  00A5               	movwf	??_SIM800LClear
  3312  0F0B  01A6               	clrf	??_SIM800LClear+1
  3313  0F0C  30BD               	movlw	189
  3314  0F0D  00A7               	movwf	??_SIM800LClear+2
  3315  0F0E  3020               	movlw	32
  3316  0F0F  00A8               	movwf	??_SIM800LClear+3
  3317  0F10  0825               	movf	??_SIM800LClear,w
  3318  0F11  0727               	addwf	??_SIM800LClear+2,w
  3319  0F12  0086               	movwf	6
  3320  0F13  0826               	movf	??_SIM800LClear+1,w
  3321  0F14  3D28               	addwfc	??_SIM800LClear+3,w
  3322  0F15  0087               	movwf	7
  3323  0F16  0181               	clrf	1
  3324  0F17  3001               	movlw	1
  3325  0F18  00A5               	movwf	??_SIM800LClear
  3326  0F19  0825               	movf	??_SIM800LClear,w
  3327  0F1A  07A9               	addwf	SIM800LClear@i,f
  3328  0F1B  2F05               	goto	L5
  3329  0F1C                     __end_of_SIM800LClear:	
  3330                           
  3331                           	psect	text6
  3332  07B8                     __ptext6:	
  3333 ;; *************** function _SIM800DeleteSms *****************
  3334 ;; Defined at:
  3335 ;;		line 63 in file "sim800l.c"
  3336 ;; Parameters:    Size  Location     Type
  3337 ;;  index           2   11[BANK0 ] PTR const unsigned char 
  3338 ;;		 -> STR_23(2), 
  3339 ;;  flag            2   13[BANK0 ] PTR const unsigned char 
  3340 ;;		 -> STR_24(2), 
  3341 ;; Auto vars:     Size  Location     Type
  3342 ;;		None
  3343 ;; Return value:  Size  Location     Type
  3344 ;;                  1    wreg      unsigned char 
  3345 ;; Registers used:
  3346 ;;		wreg, fsr0l, fsr0h, status,2, status,0, pclath, cstack
  3347 ;; Tracked objects:
  3348 ;;		On entry : 0/0
  3349 ;;		On exit  : 0/0
  3350 ;;		Unchanged: 0/0
  3351 ;; Data sizes:     COMMON   BANK0   BANK1   BANK2
  3352 ;;      Params:         0       4       0       0
  3353 ;;      Locals:         0       0       0       0
  3354 ;;      Temps:          0       3       0       0
  3355 ;;      Totals:         0       7       0       0
  3356 ;;Total ram usage:        7 bytes
  3357 ;; Hardware stack levels used:    1
  3358 ;; Hardware stack levels required when called:    5
  3359 ;; This function calls:
  3360 ;;		_USARTWriteChar
  3361 ;;		_USARTWriteLine
  3362 ;;		_USARTWriteString
  3363 ;; This function is called by:
  3364 ;;		_main
  3365 ;; This function uses a non-reentrant model
  3366 ;;
  3367                           
  3368                           
  3369                           ;psect for function _SIM800DeleteSms
  3370  07B8                     _SIM800DeleteSms:	
  3371                           
  3372                           ;sim800l.c: 67: _delay((unsigned long)((1000)*(8000000/4000.0)));
  3373                           
  3374                           ;incstack = 0
  3375                           ; Regs used in _SIM800DeleteSms: [wreg-fsr0h+status,2+status,0+pclath+cstack]
  3376  07B8  300B               	movlw	11
  3377  07B9  0020               	movlb	0	; select bank0
  3378  07BA  00B1               	movwf	??_SIM800DeleteSms+2
  3379  07BB  3026               	movlw	38
  3380  07BC  00B0               	movwf	??_SIM800DeleteSms+1
  3381  07BD  3066               	movlw	102
  3382  07BE  00AF               	movwf	??_SIM800DeleteSms
  3383  07BF                     u3187:	
  3384  07BF  0BAF               	decfsz	??_SIM800DeleteSms,f
  3385  07C0  2FBF               	goto	u3187
  3386  07C1  0BB0               	decfsz	??_SIM800DeleteSms+1,f
  3387  07C2  2FBF               	goto	u3187
  3388  07C3  0BB1               	decfsz	??_SIM800DeleteSms+2,f
  3389  07C4  2FBF               	goto	u3187
  3390  07C5  3200               	nop2
  3391                           
  3392                           ;sim800l.c: 68: USARTWriteLine("AT+CMGD=");
  3393  07C6  3080               	movlw	low (STR_12| (0+32768))
  3394  07C7  0020               	movlb	0	; select bank0
  3395  07C8  00A9               	movwf	USARTWriteLine@str
  3396  07C9  3086               	movlw	high (STR_12| (0+32768))
  3397  07CA  00AA               	movwf	USARTWriteLine@str+1
  3398  07CB  318B  2348  3187   	fcall	_USARTWriteLine
  3399                           
  3400                           ;sim800l.c: 69: USARTWriteString(index);
  3401  07CE  0020               	movlb	0	; select bank0
  3402  07CF  082C               	movf	SIM800DeleteSms@index+1,w
  3403  07D0  00A7               	movwf	USARTWriteString@str+1
  3404  07D1  082B               	movf	SIM800DeleteSms@index,w
  3405  07D2  00A6               	movwf	USARTWriteString@str
  3406  07D3  318B  2369  3187   	fcall	_USARTWriteString
  3407                           
  3408                           ;sim800l.c: 70: USARTWriteChar(',');
  3409  07D6  302C               	movlw	44
  3410  07D7  318B  2311  3187   	fcall	_USARTWriteChar
  3411                           
  3412                           ;sim800l.c: 71: USARTWriteString(flag);
  3413  07DA  0020               	movlb	0	; select bank0
  3414  07DB  082E               	movf	SIM800DeleteSms@flag+1,w
  3415  07DC  00A7               	movwf	USARTWriteString@str+1
  3416  07DD  082D               	movf	SIM800DeleteSms@flag,w
  3417  07DE  00A6               	movwf	USARTWriteString@str
  3418  07DF  318B  2369  3187   	fcall	_USARTWriteString
  3419                           
  3420                           ;sim800l.c: 72: USARTWriteString("\r\n");
  3421  07E2  30AF               	movlw	low ((STR_8+1)| (0+32768))
  3422  07E3  0020               	movlb	0	; select bank0
  3423  07E4  00A6               	movwf	USARTWriteString@str
  3424  07E5  3086               	movlw	high ((STR_8+1)| (0+32768))
  3425  07E6  00A7               	movwf	USARTWriteString@str+1
  3426  07E7  318B  2369  3187   	fcall	_USARTWriteString
  3427                           
  3428                           ;sim800l.c: 73: _delay((unsigned long)((2000)*(8000000/4000.0)));
  3429  07EA  3015               	movlw	21
  3430  07EB  0020               	movlb	0	; select bank0
  3431  07EC  00B1               	movwf	??_SIM800DeleteSms+2
  3432  07ED  304B               	movlw	75
  3433  07EE  00B0               	movwf	??_SIM800DeleteSms+1
  3434  07EF  30D1               	movlw	209
  3435  07F0  00AF               	movwf	??_SIM800DeleteSms
  3436  07F1                     u3197:	
  3437  07F1  0BAF               	decfsz	??_SIM800DeleteSms,f
  3438  07F2  2FF1               	goto	u3197
  3439  07F3  0BB0               	decfsz	??_SIM800DeleteSms+1,f
  3440  07F4  2FF1               	goto	u3197
  3441  07F5  0BB1               	decfsz	??_SIM800DeleteSms+2,f
  3442  07F6  2FF1               	goto	u3197
  3443  07F7  0000               	nop
  3444  07F8  0008               	return
  3445  07F9                     __end_of_SIM800DeleteSms:	
  3446                           ;sim800l.c: 74: return 1;
  3447                           ;	Return value of _SIM800DeleteSms is never used
  3448                           
  3449                           
  3450                           	psect	text7
  3451  02C7                     __ptext7:	
  3452 ;; *************** function _SIM800Command *****************
  3453 ;; Defined at:
  3454 ;;		line 111 in file "sim800l.c"
  3455 ;; Parameters:    Size  Location     Type
  3456 ;;		None
  3457 ;; Auto vars:     Size  Location     Type
  3458 ;;  add             1   45[BANK0 ] unsigned char 
  3459 ;; Return value:  Size  Location     Type
  3460 ;;                  1    wreg      unsigned char 
  3461 ;; Registers used:
  3462 ;;		wreg, fsr0l, fsr0h, fsr1l, fsr1h, status,2, status,0, pclath, cstack
  3463 ;; Tracked objects:
  3464 ;;		On entry : 0/0
  3465 ;;		On exit  : 0/0
  3466 ;;		Unchanged: 0/0
  3467 ;; Data sizes:     COMMON   BANK0   BANK1   BANK2
  3468 ;;      Params:         0       0       0       0
  3469 ;;      Locals:         0       1       0       0
  3470 ;;      Temps:          0      11       0       0
  3471 ;;      Totals:         0      12       0       0
  3472 ;;Total ram usage:       12 bytes
  3473 ;; Hardware stack levels used:    1
  3474 ;; Hardware stack levels required when called:    7
  3475 ;; This function calls:
  3476 ;;		_EEPROMAdd
  3477 ;;		_EEPROMCheckPassword
  3478 ;;		_EEPROMDeleteNumber
  3479 ;;		_EEPROMEraseAll
  3480 ;;		_EEPROMSearchNumber
  3481 ;;		_EEPROMUpdatePassword
  3482 ;;		_GPIORedLedBlink
  3483 ;;		_SIM800SendSms
  3484 ;; This function is called by:
  3485 ;;		_main
  3486 ;; This function uses a non-reentrant model
  3487 ;;
  3488                           
  3489                           
  3490                           ;psect for function _SIM800Command
  3491  02C7                     _SIM800Command:	
  3492                           
  3493                           ;sim800l.c: 113: if(SIM800L.command[0]==':')
  3494                           
  3495                           ;incstack = 0
  3496                           ; Regs used in _SIM800Command: [wreg-fsr1h+status,2+status,0+pclath+cstack]
  3497  02C7  30BD               	movlw	189
  3498  02C8  0086               	movwf	6
  3499  02C9  3020               	movlw	32
  3500  02CA  0087               	movwf	7
  3501  02CB  303A               	movlw	58
  3502  02CC  0601               	xorwf	1,w
  3503  02CD  1D03               	btfss	3,2
  3504  02CE  0008               	return
  3505                           
  3506                           ;sim800l.c: 114: {
  3507                           ;sim800l.c: 115: if(EEPROMCheckPassword(&SIM800L.command[1]))
  3508  02CF  30BE               	movlw	190
  3509  02D0  0020               	movlb	0	; select bank0
  3510  02D1  00AF               	movwf	EEPROMCheckPassword@pass
  3511  02D2  3020               	movlw	32
  3512  02D3  00B0               	movwf	EEPROMCheckPassword@pass+1
  3513  02D4  318D  25FC  3182   	fcall	_EEPROMCheckPassword
  3514  02D7  3A00               	xorlw	0
  3515  02D8  1903               	skipnz
  3516  02D9  2CF6               	goto	l2800
  3517                           
  3518                           ;sim800l.c: 116: {
  3519                           ;sim800l.c: 117: if(SIM800L.command[6]=='A' && SIM800L.command[7]=='D' && SIM800L.comman
      +                          d[8]=='D' )
  3520  02DA  30C3               	movlw	195
  3521  02DB  0086               	movwf	6
  3522  02DC  3020               	movlw	32
  3523  02DD  0087               	movwf	7
  3524  02DE  3041               	movlw	65
  3525  02DF  0601               	xorwf	1,w
  3526  02E0  1D03               	btfss	3,2
  3527  02E1  2B99               	goto	l2740
  3528  02E2  30C4               	movlw	196
  3529  02E3  0086               	movwf	6
  3530  02E4  3020               	movlw	32
  3531  02E5  0087               	movwf	7
  3532  02E6  3044               	movlw	68
  3533  02E7  0601               	xorwf	1,w
  3534  02E8  1D03               	btfss	3,2
  3535  02E9  2B99               	goto	l2740
  3536  02EA  30C5               	movlw	197
  3537  02EB  0086               	movwf	6
  3538  02EC  3020               	movlw	32
  3539  02ED  0087               	movwf	7
  3540  02EE  3044               	movlw	68
  3541  02EF  0601               	xorwf	1,w
  3542  02F0  1D03               	btfss	3,2
  3543  02F1  2B99               	goto	l2740
  3544                           
  3545                           ;sim800l.c: 118: {
  3546                           ;sim800l.c: 119: i=10;
  3547  02F2  300A               	movlw	10
  3548  02F3  0020               	movlb	0	; select bank0
  3549  02F4  00C2               	movwf	??_SIM800Command
  3550  02F5  0842               	movf	??_SIM800Command,w
  3551  02F6  00DB               	movwf	_i
  3552                           
  3553                           ;sim800l.c: 120: while(SIM800L.command[i]>='0' && SIM800L.command[i]<='9' )
  3554  02F7  2B2B               	goto	l2726
  3555  02F8                     l2720:	
  3556                           
  3557                           ;sim800l.c: 121: {
  3558                           ;sim800l.c: 122: SIM800L.cell[i-10]=SIM800L.command[i];
  3559  02F8  085B               	movf	_i,w
  3560  02F9  00C2               	movwf	??_SIM800Command
  3561  02FA  01C3               	clrf	??_SIM800Command+1
  3562  02FB  30BD               	movlw	189
  3563  02FC  00C4               	movwf	??_SIM800Command+2
  3564  02FD  3020               	movlw	32
  3565  02FE  00C5               	movwf	??_SIM800Command+3
  3566  02FF  0842               	movf	??_SIM800Command,w
  3567  0300  0744               	addwf	??_SIM800Command+2,w
  3568  0301  0086               	movwf	6
  3569  0302  0843               	movf	??_SIM800Command+1,w
  3570  0303  3D45               	addwfc	??_SIM800Command+3,w
  3571  0304  0087               	movwf	7
  3572  0305  0801               	movf	1,w
  3573  0306  00C6               	movwf	??_SIM800Command+4
  3574  0307  085B               	movf	_i,w
  3575  0308  3EF6               	addlw	246
  3576  0309  00C7               	movwf	??_SIM800Command+5
  3577  030A  30FF               	movlw	255
  3578  030B  1803               	skipnc
  3579  030C  3000               	movlw	0
  3580  030D  00C8               	movwf	??_SIM800Command+6
  3581  030E  3067               	movlw	103
  3582  030F  00C9               	movwf	??_SIM800Command+7
  3583  0310  3020               	movlw	32
  3584  0311  00CA               	movwf	??_SIM800Command+8
  3585  0312  0847               	movf	??_SIM800Command+5,w
  3586  0313  0749               	addwf	??_SIM800Command+7,w
  3587  0314  00CB               	movwf	??_SIM800Command+9
  3588  0315  0848               	movf	??_SIM800Command+6,w
  3589  0316  3D4A               	addwfc	??_SIM800Command+8,w
  3590  0317  00CC               	movwf	??_SIM800Command+10
  3591  0318  084B               	movf	??_SIM800Command+9,w
  3592  0319  0086               	movwf	6
  3593  031A  084C               	movf	??_SIM800Command+10,w
  3594  031B  0087               	movwf	7
  3595  031C  0846               	movf	??_SIM800Command+4,w
  3596  031D  0081               	movwf	1
  3597                           
  3598                           ;sim800l.c: 123: i++;
  3599  031E  3001               	movlw	1
  3600  031F  00C2               	movwf	??_SIM800Command
  3601  0320  0842               	movf	??_SIM800Command,w
  3602  0321  07DB               	addwf	_i,f
  3603                           
  3604                           ;sim800l.c: 124: SIM800L.cell_lenght++;
  3605  0322  3001               	movlw	1
  3606  0323  00C2               	movwf	??_SIM800Command
  3607  0324  3063               	movlw	99
  3608  0325  0086               	movwf	6
  3609  0326  3020               	movlw	32
  3610  0327  0087               	movwf	7
  3611  0328  3153               	addfsr 1,19
  3612  0329  0842               	movf	??_SIM800Command,w
  3613  032A  0781               	addwf	1,f
  3614  032B                     l2726:	
  3615  032B  085B               	movf	_i,w
  3616  032C  00C2               	movwf	??_SIM800Command
  3617  032D  01C3               	clrf	??_SIM800Command+1
  3618  032E  30BD               	movlw	189
  3619  032F  00C4               	movwf	??_SIM800Command+2
  3620  0330  3020               	movlw	32
  3621  0331  00C5               	movwf	??_SIM800Command+3
  3622  0332  0842               	movf	??_SIM800Command,w
  3623  0333  0744               	addwf	??_SIM800Command+2,w
  3624  0334  0086               	movwf	6
  3625  0335  0843               	movf	??_SIM800Command+1,w
  3626  0336  3D45               	addwfc	??_SIM800Command+3,w
  3627  0337  0087               	movwf	7
  3628  0338  3030               	movlw	48
  3629  0339  0201               	subwf	1,w
  3630  033A  1C03               	skipc
  3631  033B  2B4D               	goto	l2730
  3632  033C  085B               	movf	_i,w
  3633  033D  00C2               	movwf	??_SIM800Command
  3634  033E  01C3               	clrf	??_SIM800Command+1
  3635  033F  30BD               	movlw	189
  3636  0340  00C4               	movwf	??_SIM800Command+2
  3637  0341  3020               	movlw	32
  3638  0342  00C5               	movwf	??_SIM800Command+3
  3639  0343  0842               	movf	??_SIM800Command,w
  3640  0344  0744               	addwf	??_SIM800Command+2,w
  3641  0345  0086               	movwf	6
  3642  0346  0843               	movf	??_SIM800Command+1,w
  3643  0347  3D45               	addwfc	??_SIM800Command+3,w
  3644  0348  0087               	movwf	7
  3645  0349  303A               	movlw	58
  3646  034A  0201               	subwf	1,w
  3647  034B  1C03               	skipc
  3648  034C  2AF8               	goto	l2720
  3649  034D                     l2730:	
  3650                           
  3651                           ;sim800l.c: 125: }
  3652                           ;sim800l.c: 126: SIM800L.cell[i-10]='\0';
  3653  034D  085B               	movf	_i,w
  3654  034E  3EF6               	addlw	246
  3655  034F  00C2               	movwf	??_SIM800Command
  3656  0350  30FF               	movlw	255
  3657  0351  1803               	skipnc
  3658  0352  3000               	movlw	0
  3659  0353  00C3               	movwf	??_SIM800Command+1
  3660  0354  3067               	movlw	103
  3661  0355  00C4               	movwf	??_SIM800Command+2
  3662  0356  3020               	movlw	32
  3663  0357  00C5               	movwf	??_SIM800Command+3
  3664  0358  0842               	movf	??_SIM800Command,w
  3665  0359  0744               	addwf	??_SIM800Command+2,w
  3666  035A  0086               	movwf	6
  3667  035B  0843               	movf	??_SIM800Command+1,w
  3668  035C  3D45               	addwfc	??_SIM800Command+3,w
  3669  035D  0087               	movwf	7
  3670  035E  0181               	clrf	1
  3671                           
  3672                           ;sim800l.c: 127: if(!EEPROMSearchNumber(SIM800L.cell,SIM800L.cell_lenght))
  3673  035F  3067               	movlw	103
  3674  0360  00AF               	movwf	EEPROMSearchNumber@nmbr
  3675  0361  3020               	movlw	32
  3676  0362  00B0               	movwf	EEPROMSearchNumber@nmbr+1
  3677  0363  3063               	movlw	99
  3678  0364  0086               	movwf	6
  3679  0365  3020               	movlw	32
  3680  0366  0087               	movwf	7
  3681  0367  3153               	addfsr 1,19
  3682  0368  0801               	movf	1,w
  3683  0369  00C2               	movwf	??_SIM800Command
  3684  036A  0842               	movf	??_SIM800Command,w
  3685  036B  00B1               	movwf	EEPROMSearchNumber@nmbrLenght
  3686  036C  3186  26B7  3182   	fcall	_EEPROMSearchNumber
  3687  036F  0020               	movlb	0	; select bank0
  3688  0370  082F               	movf	?_EEPROMSearchNumber,w
  3689  0371  0430               	iorwf	?_EEPROMSearchNumber+1,w
  3690  0372  1D03               	btfss	3,2
  3691  0373  2B8D               	goto	l2738
  3692                           
  3693                           ;sim800l.c: 128: {
  3694                           ;sim800l.c: 129: EEPROMAdd(SIM800L.cell, SIM800L.cell_lenght);
  3695  0374  3067               	movlw	103
  3696  0375  00B9               	movwf	EEPROMAdd@nmbr
  3697  0376  3020               	movlw	32
  3698  0377  00BA               	movwf	EEPROMAdd@nmbr+1
  3699  0378  3063               	movlw	99
  3700  0379  0086               	movwf	6
  3701  037A  3020               	movlw	32
  3702  037B  0087               	movwf	7
  3703  037C  3153               	addfsr 1,19
  3704  037D  0801               	movf	1,w
  3705  037E  00C2               	movwf	??_SIM800Command
  3706  037F  0842               	movf	??_SIM800Command,w
  3707  0380  00BB               	movwf	EEPROMAdd@nmbrLenght
  3708  0381  318D  251E  3182   	fcall	_EEPROMAdd
  3709                           
  3710                           ;sim800l.c: 130: SIM800SendSms(SIM800L.cell, "Your number had been added");
  3711  0384  3067               	movlw	103
  3712  0385  0020               	movlb	0	; select bank0
  3713  0386  00AB               	movwf	SIM800SendSms@nmbr
  3714  0387  3020               	movlw	32
  3715  0388  00AC               	movwf	SIM800SendSms@nmbr+1
  3716  0389  3004               	movlw	low (STR_14| (0+32768))
  3717  038A  00AD               	movwf	SIM800SendSms@msg
  3718  038B  3086               	movlw	high (STR_14| (0+32768))
  3719  038C  2B95               	goto	L6
  3720  038D                     l2738:	
  3721                           ;sim800l.c: 131: }
  3722                           
  3723                           
  3724                           ;sim800l.c: 132: else
  3725                           ;sim800l.c: 133: {
  3726                           ;sim800l.c: 134: SIM800SendSms(SIM800L.cell, "Your number already exist");
  3727  038D  3067               	movlw	103
  3728  038E  0020               	movlb	0	; select bank0
  3729  038F  00AB               	movwf	SIM800SendSms@nmbr
  3730  0390  3020               	movlw	32
  3731  0391  00AC               	movwf	SIM800SendSms@nmbr+1
  3732  0392  301F               	movlw	low (STR_15| (0+32768))
  3733  0393  00AD               	movwf	SIM800SendSms@msg
  3734  0394  3086               	movlw	high (STR_15| (0+32768))
  3735  0395                     L6:	
  3736  0395  00AE               	movwf	SIM800SendSms@msg+1
  3737  0396  318E  2650  3182   	fcall	_SIM800SendSms
  3738  0399                     l2740:	
  3739                           
  3740                           ;sim800l.c: 135: }
  3741                           ;sim800l.c: 136: }
  3742                           ;sim800l.c: 137: if(SIM800L.command[6]=='D' && SIM800L.command[7]=='E' && SIM800L.comman
      +                          d[8]=='L' )
  3743  0399  30C3               	movlw	195
  3744  039A  0086               	movwf	6
  3745  039B  3020               	movlw	32
  3746  039C  0087               	movwf	7
  3747  039D  3044               	movlw	68
  3748  039E  0601               	xorwf	1,w
  3749  039F  1D03               	btfss	3,2
  3750  03A0  2C4C               	goto	l2768
  3751  03A1  30C4               	movlw	196
  3752  03A2  0086               	movwf	6
  3753  03A3  3020               	movlw	32
  3754  03A4  0087               	movwf	7
  3755  03A5  3045               	movlw	69
  3756  03A6  0601               	xorwf	1,w
  3757  03A7  1D03               	btfss	3,2
  3758  03A8  2C4C               	goto	l2768
  3759  03A9  30C5               	movlw	197
  3760  03AA  0086               	movwf	6
  3761  03AB  3020               	movlw	32
  3762  03AC  0087               	movwf	7
  3763  03AD  304C               	movlw	76
  3764  03AE  0601               	xorwf	1,w
  3765  03AF  1D03               	btfss	3,2
  3766  03B0  2C4C               	goto	l2768
  3767                           
  3768                           ;sim800l.c: 138: {
  3769                           ;sim800l.c: 139: i=10;
  3770  03B1  300A               	movlw	10
  3771  03B2  0020               	movlb	0	; select bank0
  3772  03B3  00C2               	movwf	??_SIM800Command
  3773  03B4  0842               	movf	??_SIM800Command,w
  3774  03B5  00DB               	movwf	_i
  3775                           
  3776                           ;sim800l.c: 140: while(SIM800L.command[i]>='0' && SIM800L.command[i]<='9' )
  3777  03B6  2BEA               	goto	l2754
  3778  03B7                     l2748:	
  3779                           
  3780                           ;sim800l.c: 141: {
  3781                           ;sim800l.c: 142: SIM800L.cell[i-10]=SIM800L.command[i];
  3782  03B7  085B               	movf	_i,w
  3783  03B8  00C2               	movwf	??_SIM800Command
  3784  03B9  01C3               	clrf	??_SIM800Command+1
  3785  03BA  30BD               	movlw	189
  3786  03BB  00C4               	movwf	??_SIM800Command+2
  3787  03BC  3020               	movlw	32
  3788  03BD  00C5               	movwf	??_SIM800Command+3
  3789  03BE  0842               	movf	??_SIM800Command,w
  3790  03BF  0744               	addwf	??_SIM800Command+2,w
  3791  03C0  0086               	movwf	6
  3792  03C1  0843               	movf	??_SIM800Command+1,w
  3793  03C2  3D45               	addwfc	??_SIM800Command+3,w
  3794  03C3  0087               	movwf	7
  3795  03C4  0801               	movf	1,w
  3796  03C5  00C6               	movwf	??_SIM800Command+4
  3797  03C6  085B               	movf	_i,w
  3798  03C7  3EF6               	addlw	246
  3799  03C8  00C7               	movwf	??_SIM800Command+5
  3800  03C9  30FF               	movlw	255
  3801  03CA  1803               	skipnc
  3802  03CB  3000               	movlw	0
  3803  03CC  00C8               	movwf	??_SIM800Command+6
  3804  03CD  3067               	movlw	103
  3805  03CE  00C9               	movwf	??_SIM800Command+7
  3806  03CF  3020               	movlw	32
  3807  03D0  00CA               	movwf	??_SIM800Command+8
  3808  03D1  0847               	movf	??_SIM800Command+5,w
  3809  03D2  0749               	addwf	??_SIM800Command+7,w
  3810  03D3  00CB               	movwf	??_SIM800Command+9
  3811  03D4  0848               	movf	??_SIM800Command+6,w
  3812  03D5  3D4A               	addwfc	??_SIM800Command+8,w
  3813  03D6  00CC               	movwf	??_SIM800Command+10
  3814  03D7  084B               	movf	??_SIM800Command+9,w
  3815  03D8  0086               	movwf	6
  3816  03D9  084C               	movf	??_SIM800Command+10,w
  3817  03DA  0087               	movwf	7
  3818  03DB  0846               	movf	??_SIM800Command+4,w
  3819  03DC  0081               	movwf	1
  3820                           
  3821                           ;sim800l.c: 143: i++;
  3822  03DD  3001               	movlw	1
  3823  03DE  00C2               	movwf	??_SIM800Command
  3824  03DF  0842               	movf	??_SIM800Command,w
  3825  03E0  07DB               	addwf	_i,f
  3826                           
  3827                           ;sim800l.c: 144: SIM800L.cell_lenght++;
  3828  03E1  3001               	movlw	1
  3829  03E2  00C2               	movwf	??_SIM800Command
  3830  03E3  3063               	movlw	99
  3831  03E4  0086               	movwf	6
  3832  03E5  3020               	movlw	32
  3833  03E6  0087               	movwf	7
  3834  03E7  3153               	addfsr 1,19
  3835  03E8  0842               	movf	??_SIM800Command,w
  3836  03E9  0781               	addwf	1,f
  3837  03EA                     l2754:	
  3838  03EA  085B               	movf	_i,w
  3839  03EB  00C2               	movwf	??_SIM800Command
  3840  03EC  01C3               	clrf	??_SIM800Command+1
  3841  03ED  30BD               	movlw	189
  3842  03EE  00C4               	movwf	??_SIM800Command+2
  3843  03EF  3020               	movlw	32
  3844  03F0  00C5               	movwf	??_SIM800Command+3
  3845  03F1  0842               	movf	??_SIM800Command,w
  3846  03F2  0744               	addwf	??_SIM800Command+2,w
  3847  03F3  0086               	movwf	6
  3848  03F4  0843               	movf	??_SIM800Command+1,w
  3849  03F5  3D45               	addwfc	??_SIM800Command+3,w
  3850  03F6  0087               	movwf	7
  3851  03F7  3030               	movlw	48
  3852  03F8  0201               	subwf	1,w
  3853  03F9  1C03               	skipc
  3854  03FA  2C0C               	goto	l2758
  3855  03FB  085B               	movf	_i,w
  3856  03FC  00C2               	movwf	??_SIM800Command
  3857  03FD  01C3               	clrf	??_SIM800Command+1
  3858  03FE  30BD               	movlw	189
  3859  03FF  00C4               	movwf	??_SIM800Command+2
  3860  0400  3020               	movlw	32
  3861  0401  00C5               	movwf	??_SIM800Command+3
  3862  0402  0842               	movf	??_SIM800Command,w
  3863  0403  0744               	addwf	??_SIM800Command+2,w
  3864  0404  0086               	movwf	6
  3865  0405  0843               	movf	??_SIM800Command+1,w
  3866  0406  3D45               	addwfc	??_SIM800Command+3,w
  3867  0407  0087               	movwf	7
  3868  0408  303A               	movlw	58
  3869  0409  0201               	subwf	1,w
  3870  040A  1C03               	skipc
  3871  040B  2BB7               	goto	l2748
  3872  040C                     l2758:	
  3873                           
  3874                           ;sim800l.c: 145: }
  3875                           ;sim800l.c: 146: SIM800L.cell[i-10]='\0';
  3876  040C  085B               	movf	_i,w
  3877  040D  3EF6               	addlw	246
  3878  040E  00C2               	movwf	??_SIM800Command
  3879  040F  30FF               	movlw	255
  3880  0410  1803               	skipnc
  3881  0411  3000               	movlw	0
  3882  0412  00C3               	movwf	??_SIM800Command+1
  3883  0413  3067               	movlw	103
  3884  0414  00C4               	movwf	??_SIM800Command+2
  3885  0415  3020               	movlw	32
  3886  0416  00C5               	movwf	??_SIM800Command+3
  3887  0417  0842               	movf	??_SIM800Command,w
  3888  0418  0744               	addwf	??_SIM800Command+2,w
  3889  0419  0086               	movwf	6
  3890  041A  0843               	movf	??_SIM800Command+1,w
  3891  041B  3D45               	addwfc	??_SIM800Command+3,w
  3892  041C  0087               	movwf	7
  3893  041D  0181               	clrf	1
  3894                           
  3895                           ;sim800l.c: 147: uint8_t add=EEPROMSearchNumber(SIM800L.cell,SIM800L.cell_lenght);
  3896  041E  3067               	movlw	103
  3897  041F  00AF               	movwf	EEPROMSearchNumber@nmbr
  3898  0420  3020               	movlw	32
  3899  0421  00B0               	movwf	EEPROMSearchNumber@nmbr+1
  3900  0422  3063               	movlw	99
  3901  0423  0086               	movwf	6
  3902  0424  3020               	movlw	32
  3903  0425  0087               	movwf	7
  3904  0426  3153               	addfsr 1,19
  3905  0427  0801               	movf	1,w
  3906  0428  00C2               	movwf	??_SIM800Command
  3907  0429  0842               	movf	??_SIM800Command,w
  3908  042A  00B1               	movwf	EEPROMSearchNumber@nmbrLenght
  3909  042B  3186  26B7  3182   	fcall	_EEPROMSearchNumber
  3910  042E  0020               	movlb	0	; select bank0
  3911  042F  082F               	movf	?_EEPROMSearchNumber,w
  3912  0430  00C3               	movwf	??_SIM800Command+1
  3913  0431  0843               	movf	??_SIM800Command+1,w
  3914  0432  00CD               	movwf	SIM800Command@add
  3915                           
  3916                           ;sim800l.c: 148: if(add)
  3917  0433  084D               	movf	SIM800Command@add,w
  3918  0434  1903               	btfsc	3,2
  3919  0435  2C4C               	goto	l2768
  3920                           
  3921                           ;sim800l.c: 149: {
  3922                           ;sim800l.c: 150: EEPROMDeleteNumber(add-1);
  3923  0436  084D               	movf	SIM800Command@add,w
  3924  0437  3EFF               	addlw	255
  3925  0438  00AB               	movwf	EEPROMDeleteNumber@position
  3926  0439  30FF               	movlw	255
  3927  043A  1803               	skipnc
  3928  043B  3000               	movlw	0
  3929  043C  00AC               	movwf	EEPROMDeleteNumber@position+1
  3930  043D  318C  24E7  3182   	fcall	_EEPROMDeleteNumber
  3931                           
  3932                           ;sim800l.c: 151: SIM800SendSms(SIM800L.cell, "Your number had been deleted");
  3933  0440  3067               	movlw	103
  3934  0441  0020               	movlb	0	; select bank0
  3935  0442  00AB               	movwf	SIM800SendSms@nmbr
  3936  0443  3020               	movlw	32
  3937  0444  00AC               	movwf	SIM800SendSms@nmbr+1
  3938  0445  30E7               	movlw	low (STR_16| (0+32768))
  3939  0446  00AD               	movwf	SIM800SendSms@msg
  3940  0447  3085               	movlw	high (STR_16| (0+32768))
  3941  0448  00AE               	movwf	SIM800SendSms@msg+1
  3942  0449  318E  2650  3182   	fcall	_SIM800SendSms
  3943  044C                     l2768:	
  3944                           
  3945                           ;sim800l.c: 152: }
  3946                           ;sim800l.c: 153: }
  3947                           ;sim800l.c: 154: if(SIM800L.command[6]=='F' && SIM800L.command[7]=='A' && SIM800L.comman
      +                          d[8]=='C' )
  3948  044C  30C3               	movlw	195
  3949  044D  0086               	movwf	6
  3950  044E  3020               	movlw	32
  3951  044F  0087               	movwf	7
  3952  0450  3046               	movlw	70
  3953  0451  0601               	xorwf	1,w
  3954  0452  1D03               	btfss	3,2
  3955  0453  2C6F               	goto	l2778
  3956  0454  30C4               	movlw	196
  3957  0455  0086               	movwf	6
  3958  0456  3020               	movlw	32
  3959  0457  0087               	movwf	7
  3960  0458  3041               	movlw	65
  3961  0459  0601               	xorwf	1,w
  3962  045A  1D03               	btfss	3,2
  3963  045B  2C6F               	goto	l2778
  3964  045C  30C5               	movlw	197
  3965  045D  0086               	movwf	6
  3966  045E  3020               	movlw	32
  3967  045F  0087               	movwf	7
  3968  0460  3043               	movlw	67
  3969  0461  0601               	xorwf	1,w
  3970  0462  1D03               	btfss	3,2
  3971  0463  2C6F               	goto	l2778
  3972                           
  3973                           ;sim800l.c: 155: {
  3974                           ;sim800l.c: 156: EEPROMEraseAll();
  3975  0464  318B  23D8  3182   	fcall	_EEPROMEraseAll
  3976                           
  3977                           ;sim800l.c: 157: EEPROMUpdatePassword("1234");
  3978  0467  30A9               	movlw	low (STR_17| (0+32768))
  3979  0468  0020               	movlb	0	; select bank0
  3980  0469  00A9               	movwf	EEPROMUpdatePassword@pass
  3981  046A  3086               	movlw	high (STR_17| (0+32768))
  3982  046B  00AA               	movwf	EEPROMUpdatePassword@pass+1
  3983  046C  3187  273A  3182   	fcall	_EEPROMUpdatePassword
  3984  046F                     l2778:	
  3985                           
  3986                           ;sim800l.c: 158: }
  3987                           ;sim800l.c: 159: if(SIM800L.command[6]=='P' && SIM800L.command[7]=='A' && SIM800L.comman
      +                          d[8]=='S' )
  3988  046F  30C3               	movlw	195
  3989  0470  0086               	movwf	6
  3990  0471  3020               	movlw	32
  3991  0472  0087               	movwf	7
  3992  0473  3050               	movlw	80
  3993  0474  0601               	xorwf	1,w
  3994  0475  1D03               	btfss	3,2
  3995  0476  0008               	return
  3996  0477  30C4               	movlw	196
  3997  0478  0086               	movwf	6
  3998  0479  3020               	movlw	32
  3999  047A  0087               	movwf	7
  4000  047B  3041               	movlw	65
  4001  047C  0601               	xorwf	1,w
  4002  047D  1D03               	btfss	3,2
  4003  047E  0008               	return
  4004  047F  30C5               	movlw	197
  4005  0480  0086               	movwf	6
  4006  0481  3020               	movlw	32
  4007  0482  0087               	movwf	7
  4008  0483  3053               	movlw	83
  4009  0484  0601               	xorwf	1,w
  4010  0485  1D03               	btfss	3,2
  4011  0486  0008               	return
  4012                           
  4013                           ;sim800l.c: 160: {
  4014                           ;sim800l.c: 161: i=10;
  4015  0487  300A               	movlw	10
  4016  0488  0020               	movlb	0	; select bank0
  4017  0489  00C2               	movwf	??_SIM800Command
  4018  048A  0842               	movf	??_SIM800Command,w
  4019  048B  00DB               	movwf	_i
  4020                           
  4021                           ;sim800l.c: 162: while(SIM800L.command[i]>='0' && SIM800L.command[i]<='9' )
  4022  048C  2CB7               	goto	l2790
  4023  048D                     l2786:	
  4024                           
  4025                           ;sim800l.c: 163: {
  4026                           ;sim800l.c: 164: SIM800L.password[i-10]=SIM800L.command[i];
  4027  048D  085B               	movf	_i,w
  4028  048E  00C2               	movwf	??_SIM800Command
  4029  048F  01C3               	clrf	??_SIM800Command+1
  4030  0490  30BD               	movlw	189
  4031  0491  00C4               	movwf	??_SIM800Command+2
  4032  0492  3020               	movlw	32
  4033  0493  00C5               	movwf	??_SIM800Command+3
  4034  0494  0842               	movf	??_SIM800Command,w
  4035  0495  0744               	addwf	??_SIM800Command+2,w
  4036  0496  0086               	movwf	6
  4037  0497  0843               	movf	??_SIM800Command+1,w
  4038  0498  3D45               	addwfc	??_SIM800Command+3,w
  4039  0499  0087               	movwf	7
  4040  049A  0801               	movf	1,w
  4041  049B  00C6               	movwf	??_SIM800Command+4
  4042  049C  085B               	movf	_i,w
  4043  049D  3EF6               	addlw	246
  4044  049E  00C7               	movwf	??_SIM800Command+5
  4045  049F  30FF               	movlw	255
  4046  04A0  1803               	skipnc
  4047  04A1  3000               	movlw	0
  4048  04A2  00C8               	movwf	??_SIM800Command+6
  4049  04A3  30DB               	movlw	219
  4050  04A4  00C9               	movwf	??_SIM800Command+7
  4051  04A5  3020               	movlw	32
  4052  04A6  00CA               	movwf	??_SIM800Command+8
  4053  04A7  0847               	movf	??_SIM800Command+5,w
  4054  04A8  0749               	addwf	??_SIM800Command+7,w
  4055  04A9  00CB               	movwf	??_SIM800Command+9
  4056  04AA  0848               	movf	??_SIM800Command+6,w
  4057  04AB  3D4A               	addwfc	??_SIM800Command+8,w
  4058  04AC  00CC               	movwf	??_SIM800Command+10
  4059  04AD  084B               	movf	??_SIM800Command+9,w
  4060  04AE  0086               	movwf	6
  4061  04AF  084C               	movf	??_SIM800Command+10,w
  4062  04B0  0087               	movwf	7
  4063  04B1  0846               	movf	??_SIM800Command+4,w
  4064  04B2  0081               	movwf	1
  4065                           
  4066                           ;sim800l.c: 165: i++;
  4067  04B3  3001               	movlw	1
  4068  04B4  00C2               	movwf	??_SIM800Command
  4069  04B5  0842               	movf	??_SIM800Command,w
  4070  04B6  07DB               	addwf	_i,f
  4071  04B7                     l2790:	
  4072  04B7  085B               	movf	_i,w
  4073  04B8  00C2               	movwf	??_SIM800Command
  4074  04B9  01C3               	clrf	??_SIM800Command+1
  4075  04BA  30BD               	movlw	189
  4076  04BB  00C4               	movwf	??_SIM800Command+2
  4077  04BC  3020               	movlw	32
  4078  04BD  00C5               	movwf	??_SIM800Command+3
  4079  04BE  0842               	movf	??_SIM800Command,w
  4080  04BF  0744               	addwf	??_SIM800Command+2,w
  4081  04C0  0086               	movwf	6
  4082  04C1  0843               	movf	??_SIM800Command+1,w
  4083  04C2  3D45               	addwfc	??_SIM800Command+3,w
  4084  04C3  0087               	movwf	7
  4085  04C4  3030               	movlw	48
  4086  04C5  0201               	subwf	1,w
  4087  04C6  1C03               	skipc
  4088  04C7  2CD9               	goto	l2794
  4089  04C8  085B               	movf	_i,w
  4090  04C9  00C2               	movwf	??_SIM800Command
  4091  04CA  01C3               	clrf	??_SIM800Command+1
  4092  04CB  30BD               	movlw	189
  4093  04CC  00C4               	movwf	??_SIM800Command+2
  4094  04CD  3020               	movlw	32
  4095  04CE  00C5               	movwf	??_SIM800Command+3
  4096  04CF  0842               	movf	??_SIM800Command,w
  4097  04D0  0744               	addwf	??_SIM800Command+2,w
  4098  04D1  0086               	movwf	6
  4099  04D2  0843               	movf	??_SIM800Command+1,w
  4100  04D3  3D45               	addwfc	??_SIM800Command+3,w
  4101  04D4  0087               	movwf	7
  4102  04D5  303A               	movlw	58
  4103  04D6  0201               	subwf	1,w
  4104  04D7  1C03               	skipc
  4105  04D8  2C8D               	goto	l2786
  4106  04D9                     l2794:	
  4107                           
  4108                           ;sim800l.c: 166: }
  4109                           ;sim800l.c: 167: SIM800L.password[i-10]='\0';
  4110  04D9  085B               	movf	_i,w
  4111  04DA  3EF6               	addlw	246
  4112  04DB  00C2               	movwf	??_SIM800Command
  4113  04DC  30FF               	movlw	255
  4114  04DD  1803               	skipnc
  4115  04DE  3000               	movlw	0
  4116  04DF  00C3               	movwf	??_SIM800Command+1
  4117  04E0  30DB               	movlw	219
  4118  04E1  00C4               	movwf	??_SIM800Command+2
  4119  04E2  3020               	movlw	32
  4120  04E3  00C5               	movwf	??_SIM800Command+3
  4121  04E4  0842               	movf	??_SIM800Command,w
  4122  04E5  0744               	addwf	??_SIM800Command+2,w
  4123  04E6  0086               	movwf	6
  4124  04E7  0843               	movf	??_SIM800Command+1,w
  4125  04E8  3D45               	addwfc	??_SIM800Command+3,w
  4126  04E9  0087               	movwf	7
  4127  04EA  0181               	clrf	1
  4128                           
  4129                           ;sim800l.c: 168: if(i==14) EEPROMUpdatePassword(SIM800L.password);
  4130  04EB  300E               	movlw	14
  4131  04EC  065B               	xorwf	_i,w
  4132  04ED  1D03               	btfss	3,2
  4133  04EE  0008               	return
  4134  04EF  30DB               	movlw	219
  4135  04F0  00A9               	movwf	EEPROMUpdatePassword@pass
  4136  04F1  3020               	movlw	32
  4137  04F2  00AA               	movwf	EEPROMUpdatePassword@pass+1
  4138  04F3  3187  273A         	fcall	_EEPROMUpdatePassword
  4139                           
  4140                           ;sim800l.c: 169: }
  4141                           ;sim800l.c: 170: }
  4142  04F5  0008               	return
  4143  04F6                     l2800:	
  4144                           
  4145                           ;sim800l.c: 171: else GPIORedLedBlink(5);
  4146  04F6  3005               	movlw	5
  4147  04F7  318C  2484         	fcall	_GPIORedLedBlink
  4148  04F9  0008               	return
  4149  04FA                     __end_of_SIM800Command:	
  4150                           ;sim800l.c: 172: }
  4151                           ;sim800l.c: 173: return 1;
  4152                           ;	Return value of _SIM800Command is never used
  4153                           
  4154                           
  4155                           	psect	text8
  4156  0E50                     __ptext8:	
  4157 ;; *************** function _SIM800SendSms *****************
  4158 ;; Defined at:
  4159 ;;		line 36 in file "sim800l.c"
  4160 ;; Parameters:    Size  Location     Type
  4161 ;;  nmbr            2   11[BANK0 ] PTR const unsigned char 
  4162 ;;		 -> STR_19(11), SIM800L.cell(15), SIM800L(125), 
  4163 ;;  msg             2   13[BANK0 ] PTR const unsigned char 
  4164 ;;		 -> STR_20(15), STR_16(29), STR_15(26), STR_14(27), 
  4165 ;; Auto vars:     Size  Location     Type
  4166 ;;		None
  4167 ;; Return value:  Size  Location     Type
  4168 ;;                  1    wreg      unsigned char 
  4169 ;; Registers used:
  4170 ;;		wreg, fsr0l, fsr0h, status,2, status,0, pclath, cstack
  4171 ;; Tracked objects:
  4172 ;;		On entry : 0/0
  4173 ;;		On exit  : 0/0
  4174 ;;		Unchanged: 0/0
  4175 ;; Data sizes:     COMMON   BANK0   BANK1   BANK2
  4176 ;;      Params:         0       4       0       0
  4177 ;;      Locals:         0       0       0       0
  4178 ;;      Temps:          0       3       0       0
  4179 ;;      Totals:         0       7       0       0
  4180 ;;Total ram usage:        7 bytes
  4181 ;; Hardware stack levels used:    1
  4182 ;; Hardware stack levels required when called:    5
  4183 ;; This function calls:
  4184 ;;		_USARTWriteChar
  4185 ;;		_USARTWriteLine
  4186 ;;		_USARTWriteString
  4187 ;; This function is called by:
  4188 ;;		_SIM800Command
  4189 ;;		_main
  4190 ;; This function uses a non-reentrant model
  4191 ;;
  4192                           
  4193                           
  4194                           ;psect for function _SIM800SendSms
  4195  0E50                     _SIM800SendSms:	
  4196                           
  4197                           ;sim800l.c: 38: _delay((unsigned long)((2000)*(8000000/4000.0)));
  4198                           
  4199                           ;incstack = 0
  4200                           ; Regs used in _SIM800SendSms: [wreg-fsr0h+status,2+status,0+pclath+cstack]
  4201  0E50  3015               	movlw	21
  4202  0E51  0020               	movlb	0	; select bank0
  4203  0E52  00B1               	movwf	??_SIM800SendSms+2
  4204  0E53  304B               	movlw	75
  4205  0E54  00B0               	movwf	??_SIM800SendSms+1
  4206  0E55  30D1               	movlw	209
  4207  0E56  00AF               	movwf	??_SIM800SendSms
  4208  0E57                     u3207:	
  4209  0E57  0BAF               	decfsz	??_SIM800SendSms,f
  4210  0E58  2E57               	goto	u3207
  4211  0E59  0BB0               	decfsz	??_SIM800SendSms+1,f
  4212  0E5A  2E57               	goto	u3207
  4213  0E5B  0BB1               	decfsz	??_SIM800SendSms+2,f
  4214  0E5C  2E57               	goto	u3207
  4215  0E5D  0000               	nop
  4216                           
  4217                           ;sim800l.c: 39: USARTWriteLine("AT+CMGF = 1\r\n");
  4218  0E5E  3048               	movlw	low (STR_6| (0+32768))
  4219  0E5F  0020               	movlb	0	; select bank0
  4220  0E60  00A9               	movwf	USARTWriteLine@str
  4221  0E61  3086               	movlw	high (STR_6| (0+32768))
  4222  0E62  00AA               	movwf	USARTWriteLine@str+1
  4223  0E63  318B  2348  318E   	fcall	_USARTWriteLine
  4224                           
  4225                           ;sim800l.c: 40: _delay((unsigned long)((2000)*(8000000/4000.0)));
  4226  0E66  3015               	movlw	21
  4227  0E67  0020               	movlb	0	; select bank0
  4228  0E68  00B1               	movwf	??_SIM800SendSms+2
  4229  0E69  304B               	movlw	75
  4230  0E6A  00B0               	movwf	??_SIM800SendSms+1
  4231  0E6B  30D1               	movlw	209
  4232  0E6C  00AF               	movwf	??_SIM800SendSms
  4233  0E6D                     u3217:	
  4234  0E6D  0BAF               	decfsz	??_SIM800SendSms,f
  4235  0E6E  2E6D               	goto	u3217
  4236  0E6F  0BB0               	decfsz	??_SIM800SendSms+1,f
  4237  0E70  2E6D               	goto	u3217
  4238  0E71  0BB1               	decfsz	??_SIM800SendSms+2,f
  4239  0E72  2E6D               	goto	u3217
  4240  0E73  0000               	nop
  4241                           
  4242                           ;sim800l.c: 41: USARTWriteLine("AT+CMGS=\"");
  4243  0E74  306D               	movlw	low (STR_7| (0+32768))
  4244  0E75  0020               	movlb	0	; select bank0
  4245  0E76  00A9               	movwf	USARTWriteLine@str
  4246  0E77  3086               	movlw	high (STR_7| (0+32768))
  4247  0E78  00AA               	movwf	USARTWriteLine@str+1
  4248  0E79  318B  2348  318E   	fcall	_USARTWriteLine
  4249                           
  4250                           ;sim800l.c: 42: USARTWriteString(nmbr);
  4251  0E7C  0020               	movlb	0	; select bank0
  4252  0E7D  082C               	movf	SIM800SendSms@nmbr+1,w
  4253  0E7E  00A7               	movwf	USARTWriteString@str+1
  4254  0E7F  082B               	movf	SIM800SendSms@nmbr,w
  4255  0E80  00A6               	movwf	USARTWriteString@str
  4256  0E81  318B  2369  318E   	fcall	_USARTWriteString
  4257                           
  4258                           ;sim800l.c: 43: USARTWriteString("\"\r\n");
  4259  0E84  30AE               	movlw	low (STR_8| (0+32768))
  4260  0E85  0020               	movlb	0	; select bank0
  4261  0E86  00A6               	movwf	USARTWriteString@str
  4262  0E87  3086               	movlw	high (STR_8| (0+32768))
  4263  0E88  00A7               	movwf	USARTWriteString@str+1
  4264  0E89  318B  2369  318E   	fcall	_USARTWriteString
  4265                           
  4266                           ;sim800l.c: 45: _delay((unsigned long)((2000)*(8000000/4000.0)));
  4267  0E8C  3015               	movlw	21
  4268  0E8D  0020               	movlb	0	; select bank0
  4269  0E8E  00B1               	movwf	??_SIM800SendSms+2
  4270  0E8F  304B               	movlw	75
  4271  0E90  00B0               	movwf	??_SIM800SendSms+1
  4272  0E91  30D1               	movlw	209
  4273  0E92  00AF               	movwf	??_SIM800SendSms
  4274  0E93                     u3227:	
  4275  0E93  0BAF               	decfsz	??_SIM800SendSms,f
  4276  0E94  2E93               	goto	u3227
  4277  0E95  0BB0               	decfsz	??_SIM800SendSms+1,f
  4278  0E96  2E93               	goto	u3227
  4279  0E97  0BB1               	decfsz	??_SIM800SendSms+2,f
  4280  0E98  2E93               	goto	u3227
  4281  0E99  0000               	nop
  4282                           
  4283                           ;sim800l.c: 46: USARTWriteString(msg);
  4284  0E9A  0020               	movlb	0	; select bank0
  4285  0E9B  082E               	movf	SIM800SendSms@msg+1,w
  4286  0E9C  00A7               	movwf	USARTWriteString@str+1
  4287  0E9D  082D               	movf	SIM800SendSms@msg,w
  4288  0E9E  00A6               	movwf	USARTWriteString@str
  4289  0E9F  318B  2369  318E   	fcall	_USARTWriteString
  4290                           
  4291                           ;sim800l.c: 47: USARTWriteChar(0x1A);
  4292  0EA2  301A               	movlw	26
  4293  0EA3  318B  2311  318E   	fcall	_USARTWriteChar
  4294                           
  4295                           ;sim800l.c: 48: _delay((unsigned long)((2000)*(8000000/4000.0)));
  4296  0EA6  3015               	movlw	21
  4297  0EA7  0020               	movlb	0	; select bank0
  4298  0EA8  00B1               	movwf	??_SIM800SendSms+2
  4299  0EA9  304B               	movlw	75
  4300  0EAA  00B0               	movwf	??_SIM800SendSms+1
  4301  0EAB  30D1               	movlw	209
  4302  0EAC  00AF               	movwf	??_SIM800SendSms
  4303  0EAD                     u3237:	
  4304  0EAD  0BAF               	decfsz	??_SIM800SendSms,f
  4305  0EAE  2EAD               	goto	u3237
  4306  0EAF  0BB0               	decfsz	??_SIM800SendSms+1,f
  4307  0EB0  2EAD               	goto	u3237
  4308  0EB1  0BB1               	decfsz	??_SIM800SendSms+2,f
  4309  0EB2  2EAD               	goto	u3237
  4310  0EB3  0000               	nop
  4311  0EB4  0008               	return
  4312  0EB5                     __end_of_SIM800SendSms:	
  4313                           ;sim800l.c: 50: return 1;
  4314                           ;	Return value of _SIM800SendSms is never used
  4315                           
  4316                           
  4317                           	psect	text9
  4318  0B48                     __ptext9:	
  4319 ;; *************** function _USARTWriteLine *****************
  4320 ;; Defined at:
  4321 ;;		line 66 in file "usart.c"
  4322 ;; Parameters:    Size  Location     Type
  4323 ;;  str             2    9[BANK0 ] PTR const unsigned char 
  4324 ;;		 -> STR_22(6), STR_21(9), STR_12(9), STR_10(9), 
  4325 ;;		 -> STR_9(14), STR_7(10), STR_6(14), STR_5(5), 
  4326 ;;		 -> STR_4(12), STR_3(7), STR_2(5), STR_1(3), 
  4327 ;; Auto vars:     Size  Location     Type
  4328 ;;		None
  4329 ;; Return value:  Size  Location     Type
  4330 ;;                  1    wreg      void 
  4331 ;; Registers used:
  4332 ;;		wreg, fsr0l, fsr0h, status,2, status,0, pclath, cstack
  4333 ;; Tracked objects:
  4334 ;;		On entry : 0/0
  4335 ;;		On exit  : 0/0
  4336 ;;		Unchanged: 0/0
  4337 ;; Data sizes:     COMMON   BANK0   BANK1   BANK2
  4338 ;;      Params:         0       2       0       0
  4339 ;;      Locals:         0       0       0       0
  4340 ;;      Temps:          0       0       0       0
  4341 ;;      Totals:         0       2       0       0
  4342 ;;Total ram usage:        2 bytes
  4343 ;; Hardware stack levels used:    1
  4344 ;; Hardware stack levels required when called:    4
  4345 ;; This function calls:
  4346 ;;		_USARTWriteChar
  4347 ;;		_USARTWriteString
  4348 ;; This function is called by:
  4349 ;;		_SIM800init
  4350 ;;		_SIM800SendSms
  4351 ;;		_SIM800ReadSms
  4352 ;;		_SIM800DeleteSms
  4353 ;;		_main
  4354 ;;		_EEPROMPrint
  4355 ;;		_SIM800sendCommand
  4356 ;; This function uses a non-reentrant model
  4357 ;;
  4358                           
  4359                           
  4360                           ;psect for function _USARTWriteLine
  4361  0B48                     _USARTWriteLine:	
  4362                           
  4363                           ;usart.c: 68: USARTWriteChar('\r');
  4364                           
  4365                           ;incstack = 0
  4366                           ; Regs used in _USARTWriteLine: [wreg-fsr0h+status,2+status,0+pclath+cstack]
  4367  0B48  300D               	movlw	13
  4368  0B49  318B  2311  318B   	fcall	_USARTWriteChar
  4369                           
  4370                           ;usart.c: 69: USARTWriteChar('\n');
  4371  0B4C  300A               	movlw	10
  4372  0B4D  318B  2311  318B   	fcall	_USARTWriteChar
  4373                           
  4374                           ;usart.c: 70: USARTWriteString(str);
  4375  0B50  0020               	movlb	0	; select bank0
  4376  0B51  082A               	movf	USARTWriteLine@str+1,w
  4377  0B52  00A7               	movwf	USARTWriteString@str+1
  4378  0B53  0829               	movf	USARTWriteLine@str,w
  4379  0B54  00A6               	movwf	USARTWriteString@str
  4380  0B55  318B  2369         	fcall	_USARTWriteString
  4381  0B57  0008               	return
  4382  0B58                     __end_of_USARTWriteLine:	
  4383                           
  4384                           	psect	text10
  4385  0B69                     __ptext10:	
  4386 ;; *************** function _USARTWriteString *****************
  4387 ;; Defined at:
  4388 ;;		line 57 in file "usart.c"
  4389 ;; Parameters:    Size  Location     Type
  4390 ;;  str             2    6[BANK0 ] PTR const unsigned char 
  4391 ;;		 -> STR_24(2), STR_23(2), STR_22(6), STR_21(9), 
  4392 ;;		 -> STR_20(15), STR_19(11), SIM800L.smsmem(5), STR_16(29), 
  4393 ;;		 -> STR_15(26), STR_14(27), SIM800L.cell(15), SIM800L(125), 
  4394 ;;		 -> STR_13(3), STR_12(9), STR_11(3), STR_10(9), 
  4395 ;;		 -> STR_9(14), STR_8(4), STR_7(10), STR_6(14), 
  4396 ;;		 -> STR_5(5), STR_4(12), STR_3(7), STR_2(5), 
  4397 ;;		 -> STR_1(3), 
  4398 ;; Auto vars:     Size  Location     Type
  4399 ;;		None
  4400 ;; Return value:  Size  Location     Type
  4401 ;;                  1    wreg      void 
  4402 ;; Registers used:
  4403 ;;		wreg, fsr0l, fsr0h, status,2, status,0, pclath, cstack
  4404 ;; Tracked objects:
  4405 ;;		On entry : 0/0
  4406 ;;		On exit  : 0/0
  4407 ;;		Unchanged: 0/0
  4408 ;; Data sizes:     COMMON   BANK0   BANK1   BANK2
  4409 ;;      Params:         0       2       0       0
  4410 ;;      Locals:         0       0       0       0
  4411 ;;      Temps:          0       1       0       0
  4412 ;;      Totals:         0       3       0       0
  4413 ;;Total ram usage:        3 bytes
  4414 ;; Hardware stack levels used:    1
  4415 ;; Hardware stack levels required when called:    3
  4416 ;; This function calls:
  4417 ;;		_USARTWriteChar
  4418 ;; This function is called by:
  4419 ;;		_SIM800SendSms
  4420 ;;		_SIM800ReadSms
  4421 ;;		_SIM800DeleteSms
  4422 ;;		_USARTWriteLine
  4423 ;; This function uses a non-reentrant model
  4424 ;;
  4425                           
  4426                           
  4427                           ;psect for function _USARTWriteString
  4428  0B69                     _USARTWriteString:	
  4429  0B69                     l2250:	
  4430                           ;usart.c: 59: while(*str!='\0')
  4431                           
  4432                           ;incstack = 0
  4433                           ; Regs used in _USARTWriteString: [wreg-fsr0h+status,2+status,0+pclath+cstack]
  4434                           
  4435  0B69  0020               	movlb	0	; select bank0
  4436  0B6A  0826               	movf	USARTWriteString@str,w
  4437  0B6B  0084               	movwf	4
  4438  0B6C  0827               	movf	USARTWriteString@str+1,w
  4439  0B6D  0085               	movwf	5
  4440  0B6E  0012               	moviw fsr0++
  4441  0B6F  1903               	btfsc	3,2
  4442  0B70  0008               	return
  4443                           
  4444                           ;usart.c: 60: {
  4445                           ;usart.c: 61: USARTWriteChar(*str);
  4446  0B71  0020               	movlb	0	; select bank0
  4447  0B72  0826               	movf	USARTWriteString@str,w
  4448  0B73  0084               	movwf	4
  4449  0B74  0827               	movf	USARTWriteString@str+1,w
  4450  0B75  0085               	movwf	5
  4451  0B76  0800               	movf	0,w	;code access
  4452  0B77  318B  2311  318B   	fcall	_USARTWriteChar
  4453                           
  4454                           ;usart.c: 62: str++;
  4455  0B7A  3001               	movlw	1
  4456  0B7B  0020               	movlb	0	; select bank0
  4457  0B7C  07A6               	addwf	USARTWriteString@str,f
  4458  0B7D  3000               	movlw	0
  4459  0B7E  3DA7               	addwfc	USARTWriteString@str+1,f
  4460  0B7F  2B69               	goto	l2250
  4461  0B80                     __end_of_USARTWriteString:	
  4462                           
  4463                           	psect	text11
  4464  0B11                     __ptext11:	
  4465 ;; *************** function _USARTWriteChar *****************
  4466 ;; Defined at:
  4467 ;;		line 51 in file "usart.c"
  4468 ;; Parameters:    Size  Location     Type
  4469 ;;  ch              1    wreg     unsigned char 
  4470 ;; Auto vars:     Size  Location     Type
  4471 ;;  ch              1    5[BANK0 ] unsigned char 
  4472 ;; Return value:  Size  Location     Type
  4473 ;;                  1    wreg      void 
  4474 ;; Registers used:
  4475 ;;		wreg
  4476 ;; Tracked objects:
  4477 ;;		On entry : 0/0
  4478 ;;		On exit  : 0/0
  4479 ;;		Unchanged: 0/0
  4480 ;; Data sizes:     COMMON   BANK0   BANK1   BANK2
  4481 ;;      Params:         0       0       0       0
  4482 ;;      Locals:         0       1       0       0
  4483 ;;      Temps:          0       0       0       0
  4484 ;;      Totals:         0       1       0       0
  4485 ;;Total ram usage:        1 bytes
  4486 ;; Hardware stack levels used:    1
  4487 ;; Hardware stack levels required when called:    2
  4488 ;; This function calls:
  4489 ;;		Nothing
  4490 ;; This function is called by:
  4491 ;;		_SIM800SendSms
  4492 ;;		_SIM800DeleteSms
  4493 ;;		_USARTWriteString
  4494 ;;		_USARTWriteLine
  4495 ;;		_EEPROMPrint
  4496 ;;		_USARTWriteInt
  4497 ;;		_USARTGotoNewLine
  4498 ;; This function uses a non-reentrant model
  4499 ;;
  4500                           
  4501                           
  4502                           ;psect for function _USARTWriteChar
  4503  0B11                     _USARTWriteChar:	
  4504                           
  4505                           ;incstack = 0
  4506                           ; Regs used in _USARTWriteChar: [wreg]
  4507                           ;USARTWriteChar@ch stored from wreg
  4508  0B11  0020               	movlb	0	; select bank0
  4509  0B12  00A5               	movwf	USARTWriteChar@ch
  4510  0B13                     l366:	
  4511                           ;usart.c: 53: while(!PIR1bits.TXIF);
  4512                           
  4513  0B13  1E11               	btfss	17,4	;volatile
  4514  0B14  2B13               	goto	l366
  4515                           
  4516                           ;usart.c: 54: TXREG=ch;
  4517  0B15  0825               	movf	USARTWriteChar@ch,w
  4518  0B16  0023               	movlb	3	; select bank3
  4519  0B17  009A               	movwf	26	;volatile
  4520  0B18  0008               	return
  4521  0B19                     __end_of_USARTWriteChar:	
  4522                           
  4523                           	psect	text12
  4524  0C84                     __ptext12:	
  4525 ;; *************** function _GPIORedLedBlink *****************
  4526 ;; Defined at:
  4527 ;;		line 27 in file "gpio.c"
  4528 ;; Parameters:    Size  Location     Type
  4529 ;;  times           1    wreg     unsigned char 
  4530 ;; Auto vars:     Size  Location     Type
  4531 ;;  times           1    8[BANK0 ] unsigned char 
  4532 ;;  i               1    9[BANK0 ] unsigned char 
  4533 ;; Return value:  Size  Location     Type
  4534 ;;                  1    wreg      void 
  4535 ;; Registers used:
  4536 ;;		wreg, status,2, status,0
  4537 ;; Tracked objects:
  4538 ;;		On entry : 0/0
  4539 ;;		On exit  : 0/0
  4540 ;;		Unchanged: 0/0
  4541 ;; Data sizes:     COMMON   BANK0   BANK1   BANK2
  4542 ;;      Params:         0       0       0       0
  4543 ;;      Locals:         0       2       0       0
  4544 ;;      Temps:          0       3       0       0
  4545 ;;      Totals:         0       5       0       0
  4546 ;;Total ram usage:        5 bytes
  4547 ;; Hardware stack levels used:    1
  4548 ;; Hardware stack levels required when called:    2
  4549 ;; This function calls:
  4550 ;;		Nothing
  4551 ;; This function is called by:
  4552 ;;		_SIM800Command
  4553 ;;		_main
  4554 ;; This function uses a non-reentrant model
  4555 ;;
  4556                           
  4557                           
  4558                           ;psect for function _GPIORedLedBlink
  4559  0C84                     _GPIORedLedBlink:	
  4560                           
  4561                           ;incstack = 0
  4562                           ; Regs used in _GPIORedLedBlink: [wreg+status,2+status,0]
  4563                           ;GPIORedLedBlink@times stored from wreg
  4564  0C84  0020               	movlb	0	; select bank0
  4565  0C85  00A8               	movwf	GPIORedLedBlink@times
  4566                           
  4567                           ;gpio.c: 29: uint8_t i=0;
  4568  0C86  01A9               	clrf	GPIORedLedBlink@i
  4569                           
  4570                           ;gpio.c: 30: for(i=0;i<times;i++)
  4571  0C87  01A9               	clrf	GPIORedLedBlink@i
  4572  0C88                     l2486:	
  4573  0C88  0828               	movf	GPIORedLedBlink@times,w
  4574  0C89  0229               	subwf	GPIORedLedBlink@i,w
  4575  0C8A  1803               	btfsc	3,0
  4576  0C8B  0008               	return
  4577                           
  4578                           ;gpio.c: 31: {
  4579                           ;gpio.c: 32: LATCbits.LATC1=1;
  4580  0C8C  0022               	movlb	2	; select bank2
  4581  0C8D  148E               	bsf	14,1	;volatile
  4582                           
  4583                           ;gpio.c: 33: _delay((unsigned long)((100)*(8000000/4000.0)));
  4584  0C8E  3002               	movlw	2
  4585  0C8F  0020               	movlb	0	; select bank0
  4586  0C90  00A7               	movwf	??_GPIORedLedBlink+2
  4587  0C91  3004               	movlw	4
  4588  0C92  00A6               	movwf	??_GPIORedLedBlink+1
  4589  0C93  30BA               	movlw	186
  4590  0C94  00A5               	movwf	??_GPIORedLedBlink
  4591  0C95                     u3247:	
  4592  0C95  0BA5               	decfsz	??_GPIORedLedBlink,f
  4593  0C96  2C95               	goto	u3247
  4594  0C97  0BA6               	decfsz	??_GPIORedLedBlink+1,f
  4595  0C98  2C95               	goto	u3247
  4596  0C99  0BA7               	decfsz	??_GPIORedLedBlink+2,f
  4597  0C9A  2C95               	goto	u3247
  4598  0C9B  0000               	nop
  4599                           
  4600                           ;gpio.c: 34: LATCbits.LATC1=0;
  4601  0C9C  0022               	movlb	2	; select bank2
  4602  0C9D  108E               	bcf	14,1	;volatile
  4603                           
  4604                           ;gpio.c: 35: _delay((unsigned long)((100)*(8000000/4000.0)));
  4605  0C9E  3002               	movlw	2
  4606  0C9F  0020               	movlb	0	; select bank0
  4607  0CA0  00A7               	movwf	??_GPIORedLedBlink+2
  4608  0CA1  3004               	movlw	4
  4609  0CA2  00A6               	movwf	??_GPIORedLedBlink+1
  4610  0CA3  30BA               	movlw	186
  4611  0CA4  00A5               	movwf	??_GPIORedLedBlink
  4612  0CA5                     u3257:	
  4613  0CA5  0BA5               	decfsz	??_GPIORedLedBlink,f
  4614  0CA6  2CA5               	goto	u3257
  4615  0CA7  0BA6               	decfsz	??_GPIORedLedBlink+1,f
  4616  0CA8  2CA5               	goto	u3257
  4617  0CA9  0BA7               	decfsz	??_GPIORedLedBlink+2,f
  4618  0CAA  2CA5               	goto	u3257
  4619  0CAB  0000               	nop
  4620  0CAC  3001               	movlw	1
  4621  0CAD  0020               	movlb	0	; select bank0
  4622  0CAE  00A5               	movwf	??_GPIORedLedBlink
  4623  0CAF  0825               	movf	??_GPIORedLedBlink,w
  4624  0CB0  07A9               	addwf	GPIORedLedBlink@i,f
  4625  0CB1  2C88               	goto	l2486
  4626  0CB2                     __end_of_GPIORedLedBlink:	
  4627                           
  4628                           	psect	text13
  4629  073A                     __ptext13:	
  4630 ;; *************** function _EEPROMUpdatePassword *****************
  4631 ;; Defined at:
  4632 ;;		line 242 in file "eeprom.c"
  4633 ;; Parameters:    Size  Location     Type
  4634 ;;  pass            2    9[BANK0 ] PTR const unsigned char 
  4635 ;;		 -> STR_18(5), SIM800L.password(5), STR_17(5), SIM800L(125), 
  4636 ;; Auto vars:     Size  Location     Type
  4637 ;;		None
  4638 ;; Return value:  Size  Location     Type
  4639 ;;                  1    wreg      void 
  4640 ;; Registers used:
  4641 ;;		wreg, fsr0l, fsr0h, status,2, status,0, pclath, cstack
  4642 ;; Tracked objects:
  4643 ;;		On entry : 0/0
  4644 ;;		On exit  : 0/0
  4645 ;;		Unchanged: 0/0
  4646 ;; Data sizes:     COMMON   BANK0   BANK1   BANK2
  4647 ;;      Params:         0       2       0       0
  4648 ;;      Locals:         0       0       0       0
  4649 ;;      Temps:          0       3       0       0
  4650 ;;      Totals:         0       5       0       0
  4651 ;;Total ram usage:        5 bytes
  4652 ;; Hardware stack levels used:    1
  4653 ;; Hardware stack levels required when called:    5
  4654 ;; This function calls:
  4655 ;;		_EepromWrite
  4656 ;; This function is called by:
  4657 ;;		_SIM800Command
  4658 ;;		_main
  4659 ;; This function uses a non-reentrant model
  4660 ;;
  4661                           
  4662                           
  4663                           ;psect for function _EEPROMUpdatePassword
  4664  073A                     _EEPROMUpdatePassword:	
  4665                           
  4666                           ;eeprom.c: 244: EepromWrite(7900,*(pass));
  4667                           
  4668                           ;incstack = 0
  4669                           ; Regs used in _EEPROMUpdatePassword: [wreg-fsr0h+status,2+status,0+pclath+cstack]
  4670  073A  30DC               	movlw	220
  4671  073B  0020               	movlb	0	; select bank0
  4672  073C  00A6               	movwf	EepromWrite@address
  4673  073D  301E               	movlw	30
  4674  073E  00A7               	movwf	EepromWrite@address+1
  4675  073F  0829               	movf	EEPROMUpdatePassword@pass,w
  4676  0740  0084               	movwf	4
  4677  0741  082A               	movf	EEPROMUpdatePassword@pass+1,w
  4678  0742  0085               	movwf	5
  4679  0743  0800               	movf	0,w	;code access
  4680  0744  00AB               	movwf	??_EEPROMUpdatePassword
  4681  0745  082B               	movf	??_EEPROMUpdatePassword,w
  4682  0746  00A8               	movwf	EepromWrite@data
  4683  0747  318B  2380  3187   	fcall	_EepromWrite
  4684                           
  4685                           ;eeprom.c: 245: _delay((unsigned long)((5)*(8000000/4000.0)));
  4686  074A  300D               	movlw	13
  4687  074B  0020               	movlb	0	; select bank0
  4688  074C  00AC               	movwf	??_EEPROMUpdatePassword+1
  4689  074D  30FB               	movlw	251
  4690  074E  00AB               	movwf	??_EEPROMUpdatePassword
  4691  074F                     u3267:	
  4692  074F  0BAB               	decfsz	??_EEPROMUpdatePassword,f
  4693  0750  2F4F               	goto	u3267
  4694  0751  0BAC               	decfsz	??_EEPROMUpdatePassword+1,f
  4695  0752  2F4F               	goto	u3267
  4696  0753  3200               	nop2
  4697                           
  4698                           ;eeprom.c: 246: EepromWrite(7901,*(pass+1));
  4699  0754  30DD               	movlw	221
  4700  0755  0020               	movlb	0	; select bank0
  4701  0756  00A6               	movwf	EepromWrite@address
  4702  0757  301E               	movlw	30
  4703  0758  00A7               	movwf	EepromWrite@address+1
  4704  0759  082A               	movf	EEPROMUpdatePassword@pass+1,w
  4705  075A  00AC               	movwf	??_EEPROMUpdatePassword+1
  4706  075B  0829               	movf	EEPROMUpdatePassword@pass,w
  4707  075C  00AB               	movwf	??_EEPROMUpdatePassword
  4708  075D  3001               	movlw	1
  4709  075E  072B               	addwf	??_EEPROMUpdatePassword,w
  4710  075F  0084               	movwf	4
  4711  0760  082C               	movf	??_EEPROMUpdatePassword+1,w
  4712  0761  1803               	skipnc
  4713  0762  0A2C               	incf	??_EEPROMUpdatePassword+1,w
  4714  0763  0085               	movwf	5
  4715  0764  0800               	movf	0,w	;code access
  4716  0765  00AD               	movwf	??_EEPROMUpdatePassword+2
  4717  0766  082D               	movf	??_EEPROMUpdatePassword+2,w
  4718  0767  00A8               	movwf	EepromWrite@data
  4719  0768  318B  2380  3187   	fcall	_EepromWrite
  4720                           
  4721                           ;eeprom.c: 247: _delay((unsigned long)((5)*(8000000/4000.0)));
  4722  076B  300D               	movlw	13
  4723  076C  0020               	movlb	0	; select bank0
  4724  076D  00AC               	movwf	??_EEPROMUpdatePassword+1
  4725  076E  30FB               	movlw	251
  4726  076F  00AB               	movwf	??_EEPROMUpdatePassword
  4727  0770                     u3277:	
  4728  0770  0BAB               	decfsz	??_EEPROMUpdatePassword,f
  4729  0771  2F70               	goto	u3277
  4730  0772  0BAC               	decfsz	??_EEPROMUpdatePassword+1,f
  4731  0773  2F70               	goto	u3277
  4732  0774  3200               	nop2
  4733                           
  4734                           ;eeprom.c: 248: EepromWrite(7902,*(pass+2));
  4735  0775  30DE               	movlw	222
  4736  0776  0020               	movlb	0	; select bank0
  4737  0777  00A6               	movwf	EepromWrite@address
  4738  0778  301E               	movlw	30
  4739  0779  00A7               	movwf	EepromWrite@address+1
  4740  077A  082A               	movf	EEPROMUpdatePassword@pass+1,w
  4741  077B  00AC               	movwf	??_EEPROMUpdatePassword+1
  4742  077C  0829               	movf	EEPROMUpdatePassword@pass,w
  4743  077D  00AB               	movwf	??_EEPROMUpdatePassword
  4744  077E  3002               	movlw	2
  4745  077F  072B               	addwf	??_EEPROMUpdatePassword,w
  4746  0780  0084               	movwf	4
  4747  0781  082C               	movf	??_EEPROMUpdatePassword+1,w
  4748  0782  1803               	skipnc
  4749  0783  0A2C               	incf	??_EEPROMUpdatePassword+1,w
  4750  0784  0085               	movwf	5
  4751  0785  0800               	movf	0,w	;code access
  4752  0786  00AD               	movwf	??_EEPROMUpdatePassword+2
  4753  0787  082D               	movf	??_EEPROMUpdatePassword+2,w
  4754  0788  00A8               	movwf	EepromWrite@data
  4755  0789  318B  2380  3187   	fcall	_EepromWrite
  4756                           
  4757                           ;eeprom.c: 249: _delay((unsigned long)((5)*(8000000/4000.0)));
  4758  078C  300D               	movlw	13
  4759  078D  0020               	movlb	0	; select bank0
  4760  078E  00AC               	movwf	??_EEPROMUpdatePassword+1
  4761  078F  30FB               	movlw	251
  4762  0790  00AB               	movwf	??_EEPROMUpdatePassword
  4763  0791                     u3287:	
  4764  0791  0BAB               	decfsz	??_EEPROMUpdatePassword,f
  4765  0792  2F91               	goto	u3287
  4766  0793  0BAC               	decfsz	??_EEPROMUpdatePassword+1,f
  4767  0794  2F91               	goto	u3287
  4768  0795  3200               	nop2
  4769                           
  4770                           ;eeprom.c: 250: EepromWrite(7903,*(pass+3));
  4771  0796  30DF               	movlw	223
  4772  0797  0020               	movlb	0	; select bank0
  4773  0798  00A6               	movwf	EepromWrite@address
  4774  0799  301E               	movlw	30
  4775  079A  00A7               	movwf	EepromWrite@address+1
  4776  079B  082A               	movf	EEPROMUpdatePassword@pass+1,w
  4777  079C  00AC               	movwf	??_EEPROMUpdatePassword+1
  4778  079D  0829               	movf	EEPROMUpdatePassword@pass,w
  4779  079E  00AB               	movwf	??_EEPROMUpdatePassword
  4780  079F  3003               	movlw	3
  4781  07A0  072B               	addwf	??_EEPROMUpdatePassword,w
  4782  07A1  0084               	movwf	4
  4783  07A2  082C               	movf	??_EEPROMUpdatePassword+1,w
  4784  07A3  1803               	skipnc
  4785  07A4  0A2C               	incf	??_EEPROMUpdatePassword+1,w
  4786  07A5  0085               	movwf	5
  4787  07A6  0800               	movf	0,w	;code access
  4788  07A7  00AD               	movwf	??_EEPROMUpdatePassword+2
  4789  07A8  082D               	movf	??_EEPROMUpdatePassword+2,w
  4790  07A9  00A8               	movwf	EepromWrite@data
  4791  07AA  318B  2380  3187   	fcall	_EepromWrite
  4792                           
  4793                           ;eeprom.c: 251: _delay((unsigned long)((5)*(8000000/4000.0)));
  4794  07AD  300D               	movlw	13
  4795  07AE  0020               	movlb	0	; select bank0
  4796  07AF  00AC               	movwf	??_EEPROMUpdatePassword+1
  4797  07B0  30FB               	movlw	251
  4798  07B1  00AB               	movwf	??_EEPROMUpdatePassword
  4799  07B2                     u3297:	
  4800  07B2  0BAB               	decfsz	??_EEPROMUpdatePassword,f
  4801  07B3  2FB2               	goto	u3297
  4802  07B4  0BAC               	decfsz	??_EEPROMUpdatePassword+1,f
  4803  07B5  2FB2               	goto	u3297
  4804  07B6  3200               	nop2
  4805  07B7  0008               	return
  4806  07B8                     __end_of_EEPROMUpdatePassword:	
  4807                           
  4808                           	psect	text14
  4809  06B7                     __ptext14:	
  4810 ;; *************** function _EEPROMSearchNumber *****************
  4811 ;; Defined at:
  4812 ;;		line 174 in file "eeprom.c"
  4813 ;; Parameters:    Size  Location     Type
  4814 ;;  nmbr            2   15[BANK0 ] PTR const unsigned char 
  4815 ;;		 -> SIM800L.cell(15), SIM800L(125), 
  4816 ;;  nmbrLenght      1   17[BANK0 ] unsigned char 
  4817 ;; Auto vars:     Size  Location     Type
  4818 ;;  aux             2   28[BANK0 ] unsigned int 
  4819 ;;  result          2   26[BANK0 ] unsigned int 
  4820 ;;  count           2   24[BANK0 ] unsigned int 
  4821 ;; Return value:  Size  Location     Type
  4822 ;;                  2   15[BANK0 ] unsigned int 
  4823 ;; Registers used:
  4824 ;;		wreg, fsr1l, fsr1h, status,2, status,0, pclath, cstack
  4825 ;; Tracked objects:
  4826 ;;		On entry : 0/0
  4827 ;;		On exit  : 0/0
  4828 ;;		Unchanged: 0/0
  4829 ;; Data sizes:     COMMON   BANK0   BANK1   BANK2
  4830 ;;      Params:         0       3       0       0
  4831 ;;      Locals:         0       6       0       0
  4832 ;;      Temps:          0       6       0       0
  4833 ;;      Totals:         0      15       0       0
  4834 ;;Total ram usage:       15 bytes
  4835 ;; Hardware stack levels used:    1
  4836 ;; Hardware stack levels required when called:    5
  4837 ;; This function calls:
  4838 ;;		_EepromRead
  4839 ;;		___lwdiv
  4840 ;; This function is called by:
  4841 ;;		_SIM800Command
  4842 ;;		_main
  4843 ;; This function uses a non-reentrant model
  4844 ;;
  4845                           
  4846                           
  4847                           ;psect for function _EEPROMSearchNumber
  4848  06B7                     _EEPROMSearchNumber:	
  4849                           
  4850                           ;eeprom.c: 176: uint16_t aux=0;
  4851                           
  4852                           ;incstack = 0
  4853                           ; Regs used in _EEPROMSearchNumber: [wreg+fsr1l+fsr1h+status,2+status,0+pclath+cstack]
  4854  06B7  0020               	movlb	0	; select bank0
  4855  06B8  01BC               	clrf	EEPROMSearchNumber@aux
  4856  06B9  01BD               	clrf	EEPROMSearchNumber@aux+1
  4857                           
  4858                           ;eeprom.c: 177: uint16_t count=0, result=0;
  4859  06BA  01B8               	clrf	EEPROMSearchNumber@count
  4860  06BB  01B9               	clrf	EEPROMSearchNumber@count+1
  4861  06BC  01BA               	clrf	EEPROMSearchNumber@result
  4862  06BD  01BB               	clrf	EEPROMSearchNumber@result+1
  4863                           
  4864                           ;eeprom.c: 179: aux=10-1;
  4865  06BE  3009               	movlw	9
  4866  06BF  00BC               	movwf	EEPROMSearchNumber@aux
  4867  06C0  3000               	movlw	0
  4868  06C1  00BD               	movwf	EEPROMSearchNumber@aux+1
  4869                           
  4870                           ;eeprom.c: 180: if(nmbrLenght>10) nmbrLenght=10;
  4871  06C2  300B               	movlw	11
  4872  06C3  0231               	subwf	EEPROMSearchNumber@nmbrLenght,w
  4873  06C4  1C03               	skipc
  4874  06C5  2F18               	goto	l78
  4875  06C6  300A               	movlw	10
  4876  06C7  00B2               	movwf	??_EEPROMSearchNumber
  4877  06C8  0832               	movf	??_EEPROMSearchNumber,w
  4878  06C9  00B1               	movwf	EEPROMSearchNumber@nmbrLenght
  4879                           
  4880                           ;eeprom.c: 182: while(!result && aux<((250*10)-10))
  4881  06CA  2F18               	goto	l78
  4882  06CB                     l2384:	
  4883                           
  4884                           ;eeprom.c: 183: {
  4885                           ;eeprom.c: 184: count=0;
  4886  06CB  01B8               	clrf	EEPROMSearchNumber@count
  4887  06CC  01B9               	clrf	EEPROMSearchNumber@count+1
  4888  06CD                     l2386:	
  4889                           ;eeprom.c: 185: do{
  4890                           
  4891                           
  4892                           ;eeprom.c: 186: if(EepromRead(aux-count)==*(nmbr+10-(count+1)))
  4893  06CD  0838               	movf	EEPROMSearchNumber@count,w
  4894  06CE  3E01               	addlw	1
  4895  06CF  00B2               	movwf	??_EEPROMSearchNumber
  4896  06D0  3000               	movlw	0
  4897  06D1  3D39               	addwfc	EEPROMSearchNumber@count+1,w
  4898  06D2  00B3               	movwf	??_EEPROMSearchNumber+1
  4899  06D3  09B2               	comf	??_EEPROMSearchNumber,f
  4900  06D4  09B3               	comf	??_EEPROMSearchNumber+1,f
  4901  06D5  0AB2               	incf	??_EEPROMSearchNumber,f
  4902  06D6  1903               	skipnz
  4903  06D7  0AB3               	incf	??_EEPROMSearchNumber+1,f
  4904  06D8  0832               	movf	??_EEPROMSearchNumber,w
  4905  06D9  072F               	addwf	EEPROMSearchNumber@nmbr,w
  4906  06DA  00B4               	movwf	??_EEPROMSearchNumber+2
  4907  06DB  0833               	movf	??_EEPROMSearchNumber+1,w
  4908  06DC  3D30               	addwfc	EEPROMSearchNumber@nmbr+1,w
  4909  06DD  00B5               	movwf	??_EEPROMSearchNumber+3
  4910  06DE  0834               	movf	??_EEPROMSearchNumber+2,w
  4911  06DF  0086               	movwf	6
  4912  06E0  0835               	movf	??_EEPROMSearchNumber+3,w
  4913  06E1  0087               	movwf	7
  4914  06E2  314A               	addfsr 1,10
  4915  06E3  0938               	comf	EEPROMSearchNumber@count,w
  4916  06E4  00B6               	movwf	??_EEPROMSearchNumber+4
  4917  06E5  0939               	comf	EEPROMSearchNumber@count+1,w
  4918  06E6  00B7               	movwf	??_EEPROMSearchNumber+5
  4919  06E7  0AB6               	incf	??_EEPROMSearchNumber+4,f
  4920  06E8  1903               	skipnz
  4921  06E9  0AB7               	incf	??_EEPROMSearchNumber+5,f
  4922  06EA  083C               	movf	EEPROMSearchNumber@aux,w
  4923  06EB  0736               	addwf	??_EEPROMSearchNumber+4,w
  4924  06EC  00AB               	movwf	EepromRead@address
  4925  06ED  083D               	movf	EEPROMSearchNumber@aux+1,w
  4926  06EE  3D37               	addwfc	??_EEPROMSearchNumber+5,w
  4927  06EF  00AC               	movwf	EepromRead@address+1
  4928  06F0  318B  23FD  3186   	fcall	_EepromRead
  4929  06F3  0601               	xorwf	1,w
  4930  06F4  1D03               	skipz
  4931  06F5  2EFC               	goto	l2390
  4932                           
  4933                           ;eeprom.c: 187: {result=1;}
  4934  06F6  3001               	movlw	1
  4935  06F7  0020               	movlb	0	; select bank0
  4936  06F8  00BA               	movwf	EEPROMSearchNumber@result
  4937  06F9  3000               	movlw	0
  4938  06FA  00BB               	movwf	EEPROMSearchNumber@result+1
  4939  06FB  2EFF               	goto	l2392
  4940  06FC                     l2390:	
  4941                           
  4942                           ;eeprom.c: 188: else
  4943                           ;eeprom.c: 189: {result=0;}
  4944  06FC  0020               	movlb	0	; select bank0
  4945  06FD  01BA               	clrf	EEPROMSearchNumber@result
  4946  06FE  01BB               	clrf	EEPROMSearchNumber@result+1
  4947  06FF                     l2392:	
  4948                           
  4949                           ;eeprom.c: 190: count++;
  4950  06FF  3001               	movlw	1
  4951  0700  07B8               	addwf	EEPROMSearchNumber@count,f
  4952  0701  3000               	movlw	0
  4953  0702  3DB9               	addwfc	EEPROMSearchNumber@count+1,f
  4954                           
  4955                           ;eeprom.c: 191: }while(result && count<nmbrLenght);
  4956  0703  083A               	movf	EEPROMSearchNumber@result,w
  4957  0704  043B               	iorwf	EEPROMSearchNumber@result+1,w
  4958  0705  1903               	btfsc	3,2
  4959  0706  2F12               	goto	l2398
  4960  0707  0831               	movf	EEPROMSearchNumber@nmbrLenght,w
  4961  0708  00B2               	movwf	??_EEPROMSearchNumber
  4962  0709  01B3               	clrf	??_EEPROMSearchNumber+1
  4963  070A  0833               	movf	??_EEPROMSearchNumber+1,w
  4964  070B  0239               	subwf	EEPROMSearchNumber@count+1,w
  4965  070C  1D03               	skipz
  4966  070D  2F10               	goto	u1805
  4967  070E  0832               	movf	??_EEPROMSearchNumber,w
  4968  070F  0238               	subwf	EEPROMSearchNumber@count,w
  4969  0710                     u1805:	
  4970  0710  1C03               	skipc
  4971  0711  2ECD               	goto	l2386
  4972  0712                     l2398:	
  4973                           
  4974                           ;eeprom.c: 192: aux=aux+10;
  4975  0712  083C               	movf	EEPROMSearchNumber@aux,w
  4976  0713  3E0A               	addlw	10
  4977  0714  00BC               	movwf	EEPROMSearchNumber@aux
  4978  0715  3000               	movlw	0
  4979  0716  3D3D               	addwfc	EEPROMSearchNumber@aux+1,w
  4980  0717  00BD               	movwf	EEPROMSearchNumber@aux+1
  4981  0718                     l78:	
  4982  0718  083A               	movf	EEPROMSearchNumber@result,w
  4983  0719  043B               	iorwf	EEPROMSearchNumber@result+1,w
  4984  071A  1D03               	btfss	3,2
  4985  071B  2F23               	goto	l2402
  4986  071C  3009               	movlw	9
  4987  071D  023D               	subwf	EEPROMSearchNumber@aux+1,w
  4988  071E  30BA               	movlw	186
  4989  071F  1903               	skipnz
  4990  0720  023C               	subwf	EEPROMSearchNumber@aux,w
  4991  0721  1C03               	skipc
  4992  0722  2ECB               	goto	l2384
  4993  0723                     l2402:	
  4994                           
  4995                           ;eeprom.c: 193: }
  4996                           ;eeprom.c: 194: if(result==1)
  4997  0723  033A               	decf	EEPROMSearchNumber@result,w
  4998  0724  043B               	iorwf	EEPROMSearchNumber@result+1,w
  4999  0725  1D03               	btfss	3,2
  5000  0726  2F37               	goto	l2410
  5001                           
  5002                           ;eeprom.c: 195: {
  5003                           ;eeprom.c: 196: return (aux/10);
  5004  0727  300A               	movlw	10
  5005  0728  00A5               	movwf	___lwdiv@divisor
  5006  0729  3000               	movlw	0
  5007  072A  00A6               	movwf	___lwdiv@divisor+1
  5008  072B  083D               	movf	EEPROMSearchNumber@aux+1,w
  5009  072C  00A8               	movwf	___lwdiv@dividend+1
  5010  072D  083C               	movf	EEPROMSearchNumber@aux,w
  5011  072E  00A7               	movwf	___lwdiv@dividend
  5012  072F  318C  24B2         	fcall	___lwdiv
  5013  0731  0020               	movlb	0	; select bank0
  5014  0732  0826               	movf	?___lwdiv+1,w
  5015  0733  00B0               	movwf	?_EEPROMSearchNumber+1
  5016  0734  0825               	movf	?___lwdiv,w
  5017  0735  00AF               	movwf	?_EEPROMSearchNumber
  5018                           
  5019                           ;eeprom.c: 197: }
  5020  0736  0008               	return
  5021  0737                     l2410:	
  5022                           
  5023                           ;eeprom.c: 198: else return 0;
  5024  0737  01AF               	clrf	?_EEPROMSearchNumber
  5025  0738  01B0               	clrf	?_EEPROMSearchNumber+1
  5026  0739  0008               	return
  5027  073A                     __end_of_EEPROMSearchNumber:	
  5028                           
  5029                           	psect	text15
  5030  0CB2                     __ptext15:	
  5031 ;; *************** function ___lwdiv *****************
  5032 ;; Defined at:
  5033 ;;		line 6 in file "C:\Program Files (x86)\Microchip\xc8\v1.38\sources\common\lwdiv.c"
  5034 ;; Parameters:    Size  Location     Type
  5035 ;;  divisor         2    5[BANK0 ] unsigned int 
  5036 ;;  dividend        2    7[BANK0 ] unsigned int 
  5037 ;; Auto vars:     Size  Location     Type
  5038 ;;  quotient        2   10[BANK0 ] unsigned int 
  5039 ;;  counter         1   12[BANK0 ] unsigned char 
  5040 ;; Return value:  Size  Location     Type
  5041 ;;                  2    5[BANK0 ] unsigned int 
  5042 ;; Registers used:
  5043 ;;		wreg, status,2, status,0
  5044 ;; Tracked objects:
  5045 ;;		On entry : 0/0
  5046 ;;		On exit  : 0/0
  5047 ;;		Unchanged: 0/0
  5048 ;; Data sizes:     COMMON   BANK0   BANK1   BANK2
  5049 ;;      Params:         0       4       0       0
  5050 ;;      Locals:         0       3       0       0
  5051 ;;      Temps:          0       1       0       0
  5052 ;;      Totals:         0       8       0       0
  5053 ;;Total ram usage:        8 bytes
  5054 ;; Hardware stack levels used:    1
  5055 ;; Hardware stack levels required when called:    2
  5056 ;; This function calls:
  5057 ;;		Nothing
  5058 ;; This function is called by:
  5059 ;;		_EEPROMSearchNumber
  5060 ;; This function uses a non-reentrant model
  5061 ;;
  5062                           
  5063                           
  5064                           ;psect for function ___lwdiv
  5065  0CB2                     ___lwdiv:	
  5066                           
  5067                           ;incstack = 0
  5068                           ; Regs used in ___lwdiv: [wreg+status,2+status,0]
  5069  0CB2  0020               	movlb	0	; select bank0
  5070  0CB3  01AA               	clrf	___lwdiv@quotient
  5071  0CB4  01AB               	clrf	___lwdiv@quotient+1
  5072  0CB5  0825               	movf	___lwdiv@divisor,w
  5073  0CB6  0426               	iorwf	___lwdiv@divisor+1,w
  5074  0CB7  1903               	btfsc	3,2
  5075  0CB8  2CE2               	goto	l2354
  5076  0CB9  01AC               	clrf	___lwdiv@counter
  5077  0CBA  0AAC               	incf	___lwdiv@counter,f
  5078  0CBB                     l2342:	
  5079  0CBB  1BA6               	btfsc	___lwdiv@divisor+1,7
  5080  0CBC  2CC7               	goto	l2344
  5081  0CBD  3001               	movlw	1
  5082  0CBE                     u1695:	
  5083  0CBE  35A5               	lslf	___lwdiv@divisor,f
  5084  0CBF  0DA6               	rlf	___lwdiv@divisor+1,f
  5085  0CC0  0B89               	decfsz	9,f
  5086  0CC1  2CBE               	goto	u1695
  5087  0CC2  3001               	movlw	1
  5088  0CC3  00A9               	movwf	??___lwdiv
  5089  0CC4  0829               	movf	??___lwdiv,w
  5090  0CC5  07AC               	addwf	___lwdiv@counter,f
  5091  0CC6  2CBB               	goto	l2342
  5092  0CC7                     l2344:	
  5093  0CC7  3001               	movlw	1
  5094  0CC8                     u1715:	
  5095  0CC8  35AA               	lslf	___lwdiv@quotient,f
  5096  0CC9  0DAB               	rlf	___lwdiv@quotient+1,f
  5097  0CCA  0B89               	decfsz	9,f
  5098  0CCB  2CC8               	goto	u1715
  5099  0CCC  0826               	movf	___lwdiv@divisor+1,w
  5100  0CCD  0228               	subwf	___lwdiv@dividend+1,w
  5101  0CCE  1D03               	skipz
  5102  0CCF  2CD2               	goto	u1725
  5103  0CD0  0825               	movf	___lwdiv@divisor,w
  5104  0CD1  0227               	subwf	___lwdiv@dividend,w
  5105  0CD2                     u1725:	
  5106  0CD2  1C03               	skipc
  5107  0CD3  2CD9               	goto	l2350
  5108  0CD4  0825               	movf	___lwdiv@divisor,w
  5109  0CD5  02A7               	subwf	___lwdiv@dividend,f
  5110  0CD6  0826               	movf	___lwdiv@divisor+1,w
  5111  0CD7  3BA8               	subwfb	___lwdiv@dividend+1,f
  5112  0CD8  142A               	bsf	___lwdiv@quotient,0
  5113  0CD9                     l2350:	
  5114  0CD9  3001               	movlw	1
  5115  0CDA                     u1735:	
  5116  0CDA  36A6               	lsrf	___lwdiv@divisor+1,f
  5117  0CDB  0CA5               	rrf	___lwdiv@divisor,f
  5118  0CDC  0B89               	decfsz	9,f
  5119  0CDD  2CDA               	goto	u1735
  5120  0CDE  3001               	movlw	1
  5121  0CDF  02AC               	subwf	___lwdiv@counter,f
  5122  0CE0  1D03               	btfss	3,2
  5123  0CE1  2CC7               	goto	l2344
  5124  0CE2                     l2354:	
  5125  0CE2  082B               	movf	___lwdiv@quotient+1,w
  5126  0CE3  00A6               	movwf	?___lwdiv+1
  5127  0CE4  082A               	movf	___lwdiv@quotient,w
  5128  0CE5  00A5               	movwf	?___lwdiv
  5129  0CE6  0008               	return
  5130  0CE7                     __end_of___lwdiv:	
  5131                           
  5132                           	psect	text16
  5133  0BD8                     __ptext16:	
  5134 ;; *************** function _EEPROMEraseAll *****************
  5135 ;; Defined at:
  5136 ;;		line 201 in file "eeprom.c"
  5137 ;; Parameters:    Size  Location     Type
  5138 ;;		None
  5139 ;; Auto vars:     Size  Location     Type
  5140 ;;  i               2   11[BANK0 ] unsigned int 
  5141 ;; Return value:  Size  Location     Type
  5142 ;;                  1    wreg      void 
  5143 ;; Registers used:
  5144 ;;		wreg, status,2, status,0, pclath, cstack
  5145 ;; Tracked objects:
  5146 ;;		On entry : 0/0
  5147 ;;		On exit  : 0/0
  5148 ;;		Unchanged: 0/0
  5149 ;; Data sizes:     COMMON   BANK0   BANK1   BANK2
  5150 ;;      Params:         0       0       0       0
  5151 ;;      Locals:         0       2       0       0
  5152 ;;      Temps:          0       2       0       0
  5153 ;;      Totals:         0       4       0       0
  5154 ;;Total ram usage:        4 bytes
  5155 ;; Hardware stack levels used:    1
  5156 ;; Hardware stack levels required when called:    5
  5157 ;; This function calls:
  5158 ;;		_EepromWrite
  5159 ;; This function is called by:
  5160 ;;		_SIM800Command
  5161 ;; This function uses a non-reentrant model
  5162 ;;
  5163                           
  5164                           
  5165                           ;psect for function _EEPROMEraseAll
  5166  0BD8                     _EEPROMEraseAll:	
  5167                           
  5168                           ;eeprom.c: 214: uint16_t i;
  5169                           ;eeprom.c: 215: for(i=0;i<800;i++)
  5170                           
  5171                           ;incstack = 0
  5172                           ; Regs used in _EEPROMEraseAll: [wreg+status,2+status,0+pclath+cstack]
  5173  0BD8  0020               	movlb	0	; select bank0
  5174  0BD9  01AB               	clrf	EEPROMEraseAll@i
  5175  0BDA  01AC               	clrf	EEPROMEraseAll@i+1
  5176  0BDB                     L7:	
  5177  0BDB  3003               	movlw	3
  5178  0BDC  022C               	subwf	EEPROMEraseAll@i+1,w
  5179  0BDD  3020               	movlw	32
  5180  0BDE  1903               	skipnz
  5181  0BDF  022B               	subwf	EEPROMEraseAll@i,w
  5182  0BE0  1803               	btfsc	3,0
  5183  0BE1  0008               	return
  5184                           
  5185                           ;eeprom.c: 216: {
  5186                           ;eeprom.c: 217: EepromWrite(i,0xFF);
  5187  0BE2  082C               	movf	EEPROMEraseAll@i+1,w
  5188  0BE3  00A7               	movwf	EepromWrite@address+1
  5189  0BE4  082B               	movf	EEPROMEraseAll@i,w
  5190  0BE5  00A6               	movwf	EepromWrite@address
  5191  0BE6  30FF               	movlw	255
  5192  0BE7  00A9               	movwf	??_EEPROMEraseAll
  5193  0BE8  0829               	movf	??_EEPROMEraseAll,w
  5194  0BE9  00A8               	movwf	EepromWrite@data
  5195  0BEA  318B  2380  318B   	fcall	_EepromWrite
  5196                           
  5197                           ;eeprom.c: 218: _delay((unsigned long)((5)*(8000000/4000.0)));
  5198  0BED  300D               	movlw	13
  5199  0BEE  0020               	movlb	0	; select bank0
  5200  0BEF  00AA               	movwf	??_EEPROMEraseAll+1
  5201  0BF0  30FB               	movlw	251
  5202  0BF1  00A9               	movwf	??_EEPROMEraseAll
  5203  0BF2                     u3307:	
  5204  0BF2  0BA9               	decfsz	??_EEPROMEraseAll,f
  5205  0BF3  2BF2               	goto	u3307
  5206  0BF4  0BAA               	decfsz	??_EEPROMEraseAll+1,f
  5207  0BF5  2BF2               	goto	u3307
  5208  0BF6  3200               	nop2
  5209  0BF7  3001               	movlw	1
  5210  0BF8  0020               	movlb	0	; select bank0
  5211  0BF9  07AB               	addwf	EEPROMEraseAll@i,f
  5212  0BFA  3000               	movlw	0
  5213  0BFB  3DAC               	addwfc	EEPROMEraseAll@i+1,f
  5214  0BFC  2BDB               	goto	L7
  5215  0BFD                     __end_of_EEPROMEraseAll:	
  5216                           
  5217                           	psect	text17
  5218  0CE7                     __ptext17:	
  5219 ;; *************** function _EEPROMDeleteNumber *****************
  5220 ;; Defined at:
  5221 ;;		line 161 in file "eeprom.c"
  5222 ;; Parameters:    Size  Location     Type
  5223 ;;  position        2   11[BANK0 ] unsigned int 
  5224 ;; Auto vars:     Size  Location     Type
  5225 ;;  address         2   15[BANK0 ] unsigned int 
  5226 ;;  count           1   17[BANK0 ] unsigned char 
  5227 ;; Return value:  Size  Location     Type
  5228 ;;                  1    wreg      unsigned char 
  5229 ;; Registers used:
  5230 ;;		wreg, status,2, status,0, pclath, cstack
  5231 ;; Tracked objects:
  5232 ;;		On entry : 0/0
  5233 ;;		On exit  : 0/0
  5234 ;;		Unchanged: 0/0
  5235 ;; Data sizes:     COMMON   BANK0   BANK1   BANK2
  5236 ;;      Params:         0       2       0       0
  5237 ;;      Locals:         0       3       0       0
  5238 ;;      Temps:          0       2       0       0
  5239 ;;      Totals:         0       7       0       0
  5240 ;;Total ram usage:        7 bytes
  5241 ;; Hardware stack levels used:    1
  5242 ;; Hardware stack levels required when called:    5
  5243 ;; This function calls:
  5244 ;;		_EepromWrite
  5245 ;;		___wmul
  5246 ;; This function is called by:
  5247 ;;		_SIM800Command
  5248 ;; This function uses a non-reentrant model
  5249 ;;
  5250                           
  5251                           
  5252                           ;psect for function _EEPROMDeleteNumber
  5253  0CE7                     _EEPROMDeleteNumber:	
  5254                           
  5255                           ;eeprom.c: 163: uint8_t count=0;
  5256                           
  5257                           ;incstack = 0
  5258                           ; Regs used in _EEPROMDeleteNumber: [wreg+status,2+status,0+pclath+cstack]
  5259  0CE7  0020               	movlb	0	; select bank0
  5260  0CE8  01B1               	clrf	EEPROMDeleteNumber@count
  5261                           
  5262                           ;eeprom.c: 164: uint16_t address=0;
  5263  0CE9  01AF               	clrf	EEPROMDeleteNumber@address
  5264  0CEA  01B0               	clrf	EEPROMDeleteNumber@address+1
  5265                           
  5266                           ;eeprom.c: 165: address=position*10;
  5267  0CEB  082C               	movf	EEPROMDeleteNumber@position+1,w
  5268  0CEC  00A6               	movwf	___wmul@multiplier+1
  5269  0CED  082B               	movf	EEPROMDeleteNumber@position,w
  5270  0CEE  00A5               	movwf	___wmul@multiplier
  5271  0CEF  300A               	movlw	10
  5272  0CF0  00A7               	movwf	___wmul@multiplicand
  5273  0CF1  3000               	movlw	0
  5274  0CF2  00A8               	movwf	___wmul@multiplicand+1
  5275  0CF3  318B  239B  318C   	fcall	___wmul
  5276  0CF6  0020               	movlb	0	; select bank0
  5277  0CF7  0826               	movf	?___wmul+1,w
  5278  0CF8  00B0               	movwf	EEPROMDeleteNumber@address+1
  5279  0CF9  0825               	movf	?___wmul,w
  5280  0CFA  00AF               	movwf	EEPROMDeleteNumber@address
  5281                           
  5282                           ;eeprom.c: 167: for(count=0;count<10;count++)
  5283  0CFB  01B1               	clrf	EEPROMDeleteNumber@count
  5284  0CFC                     L8:	
  5285  0CFC  300A               	movlw	10
  5286  0CFD  0231               	subwf	EEPROMDeleteNumber@count,w
  5287  0CFE  1803               	btfsc	3,0
  5288  0CFF  0008               	return
  5289                           
  5290                           ;eeprom.c: 168: {
  5291                           ;eeprom.c: 169: EepromWrite(address+count,0xFF);
  5292  0D00  0831               	movf	EEPROMDeleteNumber@count,w
  5293  0D01  072F               	addwf	EEPROMDeleteNumber@address,w
  5294  0D02  00A6               	movwf	EepromWrite@address
  5295  0D03  0830               	movf	EEPROMDeleteNumber@address+1,w
  5296  0D04  1803               	skipnc
  5297  0D05  0A30               	incf	EEPROMDeleteNumber@address+1,w
  5298  0D06  00A7               	movwf	EepromWrite@address+1
  5299  0D07  30FF               	movlw	255
  5300  0D08  00AD               	movwf	??_EEPROMDeleteNumber
  5301  0D09  082D               	movf	??_EEPROMDeleteNumber,w
  5302  0D0A  00A8               	movwf	EepromWrite@data
  5303  0D0B  318B  2380  318C   	fcall	_EepromWrite
  5304                           
  5305                           ;eeprom.c: 170: _delay((unsigned long)((5)*(8000000/4000.0)));
  5306  0D0E  300D               	movlw	13
  5307  0D0F  0020               	movlb	0	; select bank0
  5308  0D10  00AE               	movwf	??_EEPROMDeleteNumber+1
  5309  0D11  30FB               	movlw	251
  5310  0D12  00AD               	movwf	??_EEPROMDeleteNumber
  5311  0D13                     u3317:	
  5312  0D13  0BAD               	decfsz	??_EEPROMDeleteNumber,f
  5313  0D14  2D13               	goto	u3317
  5314  0D15  0BAE               	decfsz	??_EEPROMDeleteNumber+1,f
  5315  0D16  2D13               	goto	u3317
  5316  0D17  3200               	nop2
  5317  0D18  3001               	movlw	1
  5318  0D19  0020               	movlb	0	; select bank0
  5319  0D1A  00AD               	movwf	??_EEPROMDeleteNumber
  5320  0D1B  082D               	movf	??_EEPROMDeleteNumber,w
  5321  0D1C  07B1               	addwf	EEPROMDeleteNumber@count,f
  5322  0D1D  2CFC               	goto	L8
  5323  0D1E                     __end_of_EEPROMDeleteNumber:	
  5324                           ;eeprom.c: 171: }
  5325                           ;eeprom.c: 172: return 1;
  5326                           ;	Return value of _EEPROMDeleteNumber is never used
  5327                           
  5328                           
  5329                           	psect	text18
  5330  0DFC                     __ptext18:	
  5331 ;; *************** function _EEPROMCheckPassword *****************
  5332 ;; Defined at:
  5333 ;;		line 254 in file "eeprom.c"
  5334 ;; Parameters:    Size  Location     Type
  5335 ;;  pass            2   15[BANK0 ] PTR const unsigned char 
  5336 ;;		 -> password_empty(4), SIM800L.command(25), SIM800L(125), 
  5337 ;; Auto vars:     Size  Location     Type
  5338 ;;		None
  5339 ;; Return value:  Size  Location     Type
  5340 ;;                  1    wreg      unsigned char 
  5341 ;; Registers used:
  5342 ;;		wreg, fsr1l, fsr1h, status,2, status,0, pclath, cstack
  5343 ;; Tracked objects:
  5344 ;;		On entry : 0/0
  5345 ;;		On exit  : 0/0
  5346 ;;		Unchanged: 0/0
  5347 ;; Data sizes:     COMMON   BANK0   BANK1   BANK2
  5348 ;;      Params:         0       2       0       0
  5349 ;;      Locals:         0       0       0       0
  5350 ;;      Temps:          0       1       0       0
  5351 ;;      Totals:         0       3       0       0
  5352 ;;Total ram usage:        3 bytes
  5353 ;; Hardware stack levels used:    1
  5354 ;; Hardware stack levels required when called:    5
  5355 ;; This function calls:
  5356 ;;		_EepromRead
  5357 ;; This function is called by:
  5358 ;;		_SIM800Command
  5359 ;;		_main
  5360 ;; This function uses a non-reentrant model
  5361 ;;
  5362                           
  5363                           
  5364                           ;psect for function _EEPROMCheckPassword
  5365  0DFC                     _EEPROMCheckPassword:	
  5366                           
  5367                           ;eeprom.c: 256: password[0]=EepromRead(7900);
  5368                           
  5369                           ;incstack = 0
  5370                           ; Regs used in _EEPROMCheckPassword: [wreg+fsr1l+fsr1h+status,2+status,0+pclath+cstack]
  5371  0DFC  30DC               	movlw	220
  5372  0DFD  0020               	movlb	0	; select bank0
  5373  0DFE  00AB               	movwf	EepromRead@address
  5374  0DFF  301E               	movlw	30
  5375  0E00  00AC               	movwf	EepromRead@address+1
  5376  0E01  318B  23FD  318D   	fcall	_EepromRead
  5377  0E04  0020               	movlb	0	; select bank0
  5378  0E05  00B1               	movwf	??_EEPROMCheckPassword
  5379  0E06  0831               	movf	??_EEPROMCheckPassword,w
  5380  0E07  00D6               	movwf	_password
  5381                           
  5382                           ;eeprom.c: 257: password[1]=EepromRead(7901);
  5383  0E08  30DD               	movlw	221
  5384  0E09  00AB               	movwf	EepromRead@address
  5385  0E0A  301E               	movlw	30
  5386  0E0B  00AC               	movwf	EepromRead@address+1
  5387  0E0C  318B  23FD  318D   	fcall	_EepromRead
  5388  0E0F  0020               	movlb	0	; select bank0
  5389  0E10  00B1               	movwf	??_EEPROMCheckPassword
  5390  0E11  0831               	movf	??_EEPROMCheckPassword,w
  5391  0E12  00D7               	movwf	_password+1
  5392                           
  5393                           ;eeprom.c: 258: password[2]=EepromRead(7902);
  5394  0E13  30DE               	movlw	222
  5395  0E14  00AB               	movwf	EepromRead@address
  5396  0E15  301E               	movlw	30
  5397  0E16  00AC               	movwf	EepromRead@address+1
  5398  0E17  318B  23FD  318D   	fcall	_EepromRead
  5399  0E1A  0020               	movlb	0	; select bank0
  5400  0E1B  00B1               	movwf	??_EEPROMCheckPassword
  5401  0E1C  0831               	movf	??_EEPROMCheckPassword,w
  5402  0E1D  00D8               	movwf	_password+2
  5403                           
  5404                           ;eeprom.c: 259: password[3]=EepromRead(7903);
  5405  0E1E  30DF               	movlw	223
  5406  0E1F  00AB               	movwf	EepromRead@address
  5407  0E20  301E               	movlw	30
  5408  0E21  00AC               	movwf	EepromRead@address+1
  5409  0E22  318B  23FD  318D   	fcall	_EepromRead
  5410  0E25  0020               	movlb	0	; select bank0
  5411  0E26  00B1               	movwf	??_EEPROMCheckPassword
  5412  0E27  0831               	movf	??_EEPROMCheckPassword,w
  5413  0E28  00D9               	movwf	_password+3
  5414                           
  5415                           ;eeprom.c: 260: if(*(pass)==password[0] && *(pass+1)==password[1] && *(pass+2)==password
      +                          [2] && *(pass+3)==password[3])
  5416  0E29  082F               	movf	EEPROMCheckPassword@pass,w
  5417  0E2A  0086               	movwf	6
  5418  0E2B  0830               	movf	EEPROMCheckPassword@pass+1,w
  5419  0E2C  0087               	movwf	7
  5420  0E2D  0801               	movf	1,w
  5421  0E2E  0656               	xorwf	_password,w
  5422  0E2F  1D03               	skipz
  5423  0E30  2E4E               	goto	l2474
  5424  0E31  082F               	movf	EEPROMCheckPassword@pass,w
  5425  0E32  0086               	movwf	6
  5426  0E33  0830               	movf	EEPROMCheckPassword@pass+1,w
  5427  0E34  0087               	movwf	7
  5428  0E35  3141               	addfsr 1,1
  5429  0E36  0801               	movf	1,w
  5430  0E37  0657               	xorwf	_password+1,w
  5431  0E38  1D03               	skipz
  5432  0E39  2E4E               	goto	l2474
  5433  0E3A  082F               	movf	EEPROMCheckPassword@pass,w
  5434  0E3B  0086               	movwf	6
  5435  0E3C  0830               	movf	EEPROMCheckPassword@pass+1,w
  5436  0E3D  0087               	movwf	7
  5437  0E3E  3142               	addfsr 1,2
  5438  0E3F  0801               	movf	1,w
  5439  0E40  0658               	xorwf	_password+2,w
  5440  0E41  1D03               	skipz
  5441  0E42  2E4E               	goto	l2474
  5442  0E43  082F               	movf	EEPROMCheckPassword@pass,w
  5443  0E44  0086               	movwf	6
  5444  0E45  0830               	movf	EEPROMCheckPassword@pass+1,w
  5445  0E46  0087               	movwf	7
  5446  0E47  3143               	addfsr 1,3
  5447  0E48  0801               	movf	1,w
  5448  0E49  0659               	xorwf	_password+3,w
  5449  0E4A  1D03               	skipz
  5450  0E4B  2E4E               	goto	l2474
  5451                           
  5452                           ;eeprom.c: 261: {
  5453                           ;eeprom.c: 262: return 1;
  5454  0E4C  3001               	movlw	1
  5455                           
  5456                           ;eeprom.c: 263: }
  5457  0E4D  0008               	return
  5458  0E4E                     l2474:	
  5459                           
  5460                           ;eeprom.c: 264: else
  5461                           ;eeprom.c: 265: {
  5462                           ;eeprom.c: 266: return 0;
  5463  0E4E  3000               	movlw	0
  5464  0E4F  0008               	return
  5465  0E50                     __end_of_EEPROMCheckPassword:	
  5466                           
  5467                           	psect	text19
  5468  0D1E                     __ptext19:	
  5469 ;; *************** function _EEPROMAdd *****************
  5470 ;; Defined at:
  5471 ;;		line 225 in file "eeprom.c"
  5472 ;; Parameters:    Size  Location     Type
  5473 ;;  nmbr            2   25[BANK0 ] PTR const unsigned char 
  5474 ;;		 -> SIM800L.cell(15), SIM800L(125), 
  5475 ;;  nmbrLenght      1   27[BANK0 ] unsigned char 
  5476 ;; Auto vars:     Size  Location     Type
  5477 ;;  empty           2   32[BANK0 ] unsigned int 
  5478 ;;  found           2   29[BANK0 ] unsigned int 
  5479 ;;  aux             1   31[BANK0 ] unsigned char 
  5480 ;; Return value:  Size  Location     Type
  5481 ;;                  1    wreg      unsigned char 
  5482 ;; Registers used:
  5483 ;;		wreg, fsr1l, fsr1h, status,2, status,0, pclath, cstack
  5484 ;; Tracked objects:
  5485 ;;		On entry : 0/0
  5486 ;;		On exit  : 0/0
  5487 ;;		Unchanged: 0/0
  5488 ;; Data sizes:     COMMON   BANK0   BANK1   BANK2
  5489 ;;      Params:         0       3       0       0
  5490 ;;      Locals:         0       5       0       0
  5491 ;;      Temps:          0       1       0       0
  5492 ;;      Totals:         0       9       0       0
  5493 ;;Total ram usage:        9 bytes
  5494 ;; Hardware stack levels used:    1
  5495 ;; Hardware stack levels required when called:    6
  5496 ;; This function calls:
  5497 ;;		_EEPROMSaveNumber
  5498 ;;		_EepromRead
  5499 ;;		___wmul
  5500 ;; This function is called by:
  5501 ;;		_SIM800Command
  5502 ;; This function uses a non-reentrant model
  5503 ;;
  5504                           
  5505                           
  5506                           ;psect for function _EEPROMAdd
  5507  0D1E                     _EEPROMAdd:	
  5508                           
  5509                           ;eeprom.c: 227: uint16_t empty=0,found=0;
  5510                           
  5511                           ;incstack = 0
  5512                           ; Regs used in _EEPROMAdd: [wreg+fsr1l+fsr1h+status,2+status,0+pclath+cstack]
  5513  0D1E  0020               	movlb	0	; select bank0
  5514  0D1F  01C0               	clrf	EEPROMAdd@empty
  5515  0D20  01C1               	clrf	EEPROMAdd@empty+1
  5516  0D21  01BD               	clrf	EEPROMAdd@found
  5517  0D22  01BE               	clrf	EEPROMAdd@found+1
  5518                           
  5519                           ;eeprom.c: 228: char aux=0;
  5520  0D23  01BF               	clrf	EEPROMAdd@aux
  5521  0D24                     l2430:	
  5522                           ;eeprom.c: 229: do
  5523                           
  5524                           
  5525                           ;eeprom.c: 230: {
  5526                           ;eeprom.c: 231: aux=EepromRead((empty*10));
  5527  0D24  0841               	movf	EEPROMAdd@empty+1,w
  5528  0D25  00A6               	movwf	___wmul@multiplier+1
  5529  0D26  0840               	movf	EEPROMAdd@empty,w
  5530  0D27  00A5               	movwf	___wmul@multiplier
  5531  0D28  300A               	movlw	10
  5532  0D29  00A7               	movwf	___wmul@multiplicand
  5533  0D2A  3000               	movlw	0
  5534  0D2B  00A8               	movwf	___wmul@multiplicand+1
  5535  0D2C  318B  239B  318D   	fcall	___wmul
  5536  0D2F  0020               	movlb	0	; select bank0
  5537  0D30  0826               	movf	?___wmul+1,w
  5538  0D31  00AC               	movwf	EepromRead@address+1
  5539  0D32  0825               	movf	?___wmul,w
  5540  0D33  00AB               	movwf	EepromRead@address
  5541  0D34  318B  23FD  318D   	fcall	_EepromRead
  5542  0D37  0020               	movlb	0	; select bank0
  5543  0D38  00BC               	movwf	??_EEPROMAdd
  5544  0D39  083C               	movf	??_EEPROMAdd,w
  5545  0D3A  00BF               	movwf	EEPROMAdd@aux
  5546                           
  5547                           ;eeprom.c: 232: if(aux<'0' || aux>'9')
  5548  0D3B  3030               	movlw	48
  5549  0D3C  023F               	subwf	EEPROMAdd@aux,w
  5550  0D3D  1C03               	skipc
  5551  0D3E  2D43               	goto	l2436
  5552  0D3F  303A               	movlw	58
  5553  0D40  023F               	subwf	EEPROMAdd@aux,w
  5554  0D41  1C03               	skipc
  5555  0D42  2D47               	goto	l100
  5556  0D43                     l2436:	
  5557                           
  5558                           ;eeprom.c: 233: {
  5559                           ;eeprom.c: 234: found=1;
  5560  0D43  3001               	movlw	1
  5561  0D44  00BD               	movwf	EEPROMAdd@found
  5562  0D45  3000               	movlw	0
  5563  0D46  00BE               	movwf	EEPROMAdd@found+1
  5564  0D47                     l100:	
  5565                           
  5566                           ;eeprom.c: 235: }
  5567                           ;eeprom.c: 236: empty++;
  5568  0D47  3001               	movlw	1
  5569  0D48  07C0               	addwf	EEPROMAdd@empty,f
  5570  0D49  3000               	movlw	0
  5571  0D4A  3DC1               	addwfc	EEPROMAdd@empty+1,f
  5572                           
  5573                           ;eeprom.c: 237: }while(!found&& empty<250);
  5574  0D4B  083D               	movf	EEPROMAdd@found,w
  5575  0D4C  043E               	iorwf	EEPROMAdd@found+1,w
  5576  0D4D  1D03               	btfss	3,2
  5577  0D4E  2D56               	goto	l2442
  5578  0D4F  3000               	movlw	0
  5579  0D50  0241               	subwf	EEPROMAdd@empty+1,w
  5580  0D51  30FA               	movlw	250
  5581  0D52  1903               	skipnz
  5582  0D53  0240               	subwf	EEPROMAdd@empty,w
  5583  0D54  1C03               	skipc
  5584  0D55  2D24               	goto	l2430
  5585  0D56                     l2442:	
  5586                           
  5587                           ;eeprom.c: 238: EEPROMSaveNumber(nmbr,nmbrLenght,(empty-1));
  5588  0D56  083A               	movf	EEPROMAdd@nmbr+1,w
  5589  0D57  00AC               	movwf	EEPROMSaveNumber@nmbr+1
  5590  0D58  0839               	movf	EEPROMAdd@nmbr,w
  5591  0D59  00AB               	movwf	EEPROMSaveNumber@nmbr
  5592  0D5A  083B               	movf	EEPROMAdd@nmbrLenght,w
  5593  0D5B  00BC               	movwf	??_EEPROMAdd
  5594  0D5C  083C               	movf	??_EEPROMAdd,w
  5595  0D5D  00AD               	movwf	EEPROMSaveNumber@nmbrLenght
  5596  0D5E  0840               	movf	EEPROMAdd@empty,w
  5597  0D5F  3EFF               	addlw	255
  5598  0D60  00AE               	movwf	EEPROMSaveNumber@position
  5599  0D61  30FF               	movlw	255
  5600  0D62  3D41               	addwfc	EEPROMAdd@empty+1,w
  5601  0D63  00AF               	movwf	EEPROMSaveNumber@position+1
  5602  0D64  318F  278B         	fcall	_EEPROMSaveNumber
  5603  0D66  0008               	return
  5604  0D67                     __end_of_EEPROMAdd:	
  5605                           ;eeprom.c: 240: return 1;
  5606                           ;	Return value of _EEPROMAdd is never used
  5607                           
  5608                           
  5609                           	psect	text20
  5610  0BFD                     __ptext20:	
  5611 ;; *************** function _EepromRead *****************
  5612 ;; Defined at:
  5613 ;;		line 108 in file "eeprom.c"
  5614 ;; Parameters:    Size  Location     Type
  5615 ;;  address         2   11[BANK0 ] unsigned int 
  5616 ;; Auto vars:     Size  Location     Type
  5617 ;;  data            1   14[BANK0 ] unsigned char 
  5618 ;; Return value:  Size  Location     Type
  5619 ;;                  1    wreg      unsigned char 
  5620 ;; Registers used:
  5621 ;;		wreg, status,2, status,0, pclath, cstack
  5622 ;; Tracked objects:
  5623 ;;		On entry : 0/0
  5624 ;;		On exit  : 0/0
  5625 ;;		Unchanged: 0/0
  5626 ;; Data sizes:     COMMON   BANK0   BANK1   BANK2
  5627 ;;      Params:         0       2       0       0
  5628 ;;      Locals:         0       1       0       0
  5629 ;;      Temps:          0       1       0       0
  5630 ;;      Totals:         0       4       0       0
  5631 ;;Total ram usage:        4 bytes
  5632 ;; Hardware stack levels used:    1
  5633 ;; Hardware stack levels required when called:    4
  5634 ;; This function calls:
  5635 ;;		_I2CNak
  5636 ;;		_I2CRead
  5637 ;;		_I2CRestart
  5638 ;;		_I2CSend
  5639 ;;		_I2CStart
  5640 ;;		_I2CStop
  5641 ;; This function is called by:
  5642 ;;		_EEPROMSearchNumber
  5643 ;;		_EEPROMAdd
  5644 ;;		_EEPROMCheckPassword
  5645 ;;		_EEPROMPrint
  5646 ;; This function uses a non-reentrant model
  5647 ;;
  5648                           
  5649                           
  5650                           ;psect for function _EepromRead
  5651  0BFD                     _EepromRead:	
  5652                           
  5653                           ;eeprom.c: 110: uint8_t data=0;
  5654                           
  5655                           ;incstack = 0
  5656                           ; Regs used in _EepromRead: [wreg+status,2+status,0+pclath+cstack]
  5657  0BFD  0020               	movlb	0	; select bank0
  5658  0BFE  01AE               	clrf	EepromRead@data
  5659                           
  5660                           ;eeprom.c: 111: LATBbits.LATB7=0;
  5661  0BFF  0022               	movlb	2	; select bank2
  5662  0C00  138D               	bcf	13,7	;volatile
  5663                           
  5664                           ;eeprom.c: 112: I2CStart();
  5665  0C01  318A  22FA  318B   	fcall	_I2CStart
  5666                           
  5667                           ;eeprom.c: 114: I2CSend(0xA0);
  5668  0C04  30A0               	movlw	160
  5669  0C05  318B  2319  318B   	fcall	_I2CSend
  5670                           
  5671                           ;eeprom.c: 116: I2CSend(address>>8);
  5672  0C08  0020               	movlb	0	; select bank0
  5673  0C09  082C               	movf	EepromRead@address+1,w
  5674  0C0A  318B  2319  318B   	fcall	_I2CSend
  5675                           
  5676                           ;eeprom.c: 117: I2CSend(address);
  5677  0C0D  0020               	movlb	0	; select bank0
  5678  0C0E  082B               	movf	EepromRead@address,w
  5679  0C0F  318B  2319  318B   	fcall	_I2CSend
  5680                           
  5681                           ;eeprom.c: 118: I2CRestart();
  5682  0C12  318B  2304  318B   	fcall	_I2CRestart
  5683                           
  5684                           ;eeprom.c: 120: I2CSend(0xA1);
  5685  0C15  30A1               	movlw	161
  5686  0C16  318B  2319  318B   	fcall	_I2CSend
  5687                           
  5688                           ;eeprom.c: 122: data = I2CRead();
  5689  0C19  318B  233A  318B   	fcall	_I2CRead
  5690  0C1C  0020               	movlb	0	; select bank0
  5691  0C1D  00AD               	movwf	??_EepromRead
  5692  0C1E  082D               	movf	??_EepromRead,w
  5693  0C1F  00AE               	movwf	EepromRead@data
  5694                           
  5695                           ;eeprom.c: 123: I2CNak();
  5696  0C20  3187  27F9  318B   	fcall	_I2CNak
  5697                           
  5698                           ;eeprom.c: 124: I2CStop();
  5699  0C23  318A  22FF         	fcall	_I2CStop
  5700                           
  5701                           ;eeprom.c: 131: return data;
  5702  0C25  0020               	movlb	0	; select bank0
  5703  0C26  082E               	movf	EepromRead@data,w
  5704  0C27  0008               	return
  5705  0C28                     __end_of_EepromRead:	
  5706                           
  5707                           	psect	text21
  5708  0B04                     __ptext21:	
  5709 ;; *************** function _I2CRestart *****************
  5710 ;; Defined at:
  5711 ;;		line 51 in file "I2C.c"
  5712 ;; Parameters:    Size  Location     Type
  5713 ;;		None
  5714 ;; Auto vars:     Size  Location     Type
  5715 ;;		None
  5716 ;; Return value:  Size  Location     Type
  5717 ;;                  1    wreg      void 
  5718 ;; Registers used:
  5719 ;;		None
  5720 ;; Tracked objects:
  5721 ;;		On entry : 0/0
  5722 ;;		On exit  : 0/0
  5723 ;;		Unchanged: 0/0
  5724 ;; Data sizes:     COMMON   BANK0   BANK1   BANK2
  5725 ;;      Params:         0       0       0       0
  5726 ;;      Locals:         0       0       0       0
  5727 ;;      Temps:          0       0       0       0
  5728 ;;      Totals:         0       0       0       0
  5729 ;;Total ram usage:        0 bytes
  5730 ;; Hardware stack levels used:    1
  5731 ;; Hardware stack levels required when called:    2
  5732 ;; This function calls:
  5733 ;;		Nothing
  5734 ;; This function is called by:
  5735 ;;		_EepromRead
  5736 ;; This function uses a non-reentrant model
  5737 ;;
  5738                           
  5739                           
  5740                           ;psect for function _I2CRestart
  5741  0B04                     _I2CRestart:	
  5742                           
  5743                           ;I2C.c: 53: RSEN = 1;
  5744                           
  5745                           ;incstack = 0
  5746                           ; Regs used in _I2CRestart: []
  5747  0B04  0024               	movlb	4	; select bank4
  5748  0B05  1496               	bsf	22,1	;volatile
  5749  0B06                     l494:	
  5750                           ;I2C.c: 54: while(RSEN);
  5751                           
  5752  0B06  1C96               	btfss	22,1	;volatile
  5753  0B07  0008               	return
  5754  0B08  2B06               	goto	l494
  5755  0B09                     __end_of_I2CRestart:	
  5756                           
  5757                           	psect	text22
  5758  0B3A                     __ptext22:	
  5759 ;; *************** function _I2CRead *****************
  5760 ;; Defined at:
  5761 ;;		line 115 in file "I2C.c"
  5762 ;; Parameters:    Size  Location     Type
  5763 ;;		None
  5764 ;; Auto vars:     Size  Location     Type
  5765 ;;  temp            1    6[BANK0 ] unsigned char 
  5766 ;; Return value:  Size  Location     Type
  5767 ;;                  1    wreg      unsigned char 
  5768 ;; Registers used:
  5769 ;;		wreg, status,2, status,0, pclath, cstack
  5770 ;; Tracked objects:
  5771 ;;		On entry : 0/0
  5772 ;;		On exit  : 0/0
  5773 ;;		Unchanged: 0/0
  5774 ;; Data sizes:     COMMON   BANK0   BANK1   BANK2
  5775 ;;      Params:         0       0       0       0
  5776 ;;      Locals:         0       1       0       0
  5777 ;;      Temps:          0       1       0       0
  5778 ;;      Totals:         0       2       0       0
  5779 ;;Total ram usage:        2 bytes
  5780 ;; Hardware stack levels used:    1
  5781 ;; Hardware stack levels required when called:    3
  5782 ;; This function calls:
  5783 ;;		_I2CWait
  5784 ;; This function is called by:
  5785 ;;		_EepromRead
  5786 ;; This function uses a non-reentrant model
  5787 ;;
  5788                           
  5789                           
  5790                           ;psect for function _I2CRead
  5791  0B3A                     _I2CRead:	
  5792                           
  5793                           ;I2C.c: 117: unsigned char temp;
  5794                           ;I2C.c: 119: RCEN = 1;
  5795                           
  5796                           ;incstack = 0
  5797                           ; Regs used in _I2CRead: [wreg+status,2+status,0+pclath+cstack]
  5798  0B3A  0024               	movlb	4	; select bank4
  5799  0B3B  1596               	bsf	22,3	;volatile
  5800  0B3C                     l524:	
  5801                           ;I2C.c: 120: while(!BF);
  5802                           
  5803  0B3C  1C14               	btfss	20,0	;volatile
  5804  0B3D  2B3C               	goto	l524
  5805                           
  5806                           ;I2C.c: 121: temp = SSPBUF;
  5807  0B3E  0811               	movf	17,w	;volatile
  5808  0B3F  0020               	movlb	0	; select bank0
  5809  0B40  00A5               	movwf	??_I2CRead
  5810  0B41  0825               	movf	??_I2CRead,w
  5811  0B42  00A6               	movwf	I2CRead@temp
  5812                           
  5813                           ;I2C.c: 122: I2CWait();
  5814  0B43  318B  2309         	fcall	_I2CWait
  5815                           
  5816                           ;I2C.c: 123: return temp;
  5817  0B45  0020               	movlb	0	; select bank0
  5818  0B46  0826               	movf	I2CRead@temp,w
  5819  0B47  0008               	return
  5820  0B48                     __end_of_I2CRead:	
  5821                           
  5822                           	psect	text23
  5823  07F9                     __ptext23:	
  5824 ;; *************** function _I2CNak *****************
  5825 ;; Defined at:
  5826 ;;		line 76 in file "I2C.c"
  5827 ;; Parameters:    Size  Location     Type
  5828 ;;		None
  5829 ;; Auto vars:     Size  Location     Type
  5830 ;;		None
  5831 ;; Return value:  Size  Location     Type
  5832 ;;                  1    wreg      void 
  5833 ;; Registers used:
  5834 ;;		None
  5835 ;; Tracked objects:
  5836 ;;		On entry : 0/0
  5837 ;;		On exit  : 0/0
  5838 ;;		Unchanged: 0/0
  5839 ;; Data sizes:     COMMON   BANK0   BANK1   BANK2
  5840 ;;      Params:         0       0       0       0
  5841 ;;      Locals:         0       0       0       0
  5842 ;;      Temps:          0       0       0       0
  5843 ;;      Totals:         0       0       0       0
  5844 ;;Total ram usage:        0 bytes
  5845 ;; Hardware stack levels used:    1
  5846 ;; Hardware stack levels required when called:    2
  5847 ;; This function calls:
  5848 ;;		Nothing
  5849 ;; This function is called by:
  5850 ;;		_EepromRead
  5851 ;; This function uses a non-reentrant model
  5852 ;;
  5853                           
  5854                           
  5855                           ;psect for function _I2CNak
  5856  07F9                     _I2CNak:	
  5857                           
  5858                           ;I2C.c: 78: ACKDT = 1;
  5859                           
  5860                           ;incstack = 0
  5861                           ; Regs used in _I2CNak: []
  5862  07F9  0024               	movlb	4	; select bank4
  5863  07FA  1696               	bsf	22,5	;volatile
  5864                           
  5865                           ;I2C.c: 79: ACKEN = 1;
  5866  07FB  1616               	bsf	22,4	;volatile
  5867  07FC                     l506:	
  5868                           ;I2C.c: 80: while(ACKEN);
  5869                           
  5870  07FC  1E16               	btfss	22,4	;volatile
  5871  07FD  0008               	return
  5872  07FE  2FFC               	goto	l506
  5873  07FF                     __end_of_I2CNak:	
  5874                           
  5875                           	psect	text24
  5876  0F8B                     __ptext24:	
  5877 ;; *************** function _EEPROMSaveNumber *****************
  5878 ;; Defined at:
  5879 ;;		line 134 in file "eeprom.c"
  5880 ;; Parameters:    Size  Location     Type
  5881 ;;  nmbr            2   11[BANK0 ] PTR const unsigned char 
  5882 ;;		 -> SIM800L.cell(15), SIM800L(125), 
  5883 ;;  nmbrLenght      1   13[BANK0 ] unsigned char 
  5884 ;;  position        2   14[BANK0 ] unsigned int 
  5885 ;; Auto vars:     Size  Location     Type
  5886 ;;  address         2   23[BANK0 ] unsigned int 
  5887 ;;  count           2   21[BANK0 ] unsigned int 
  5888 ;;  result          2   19[BANK0 ] unsigned int 
  5889 ;; Return value:  Size  Location     Type
  5890 ;;                  1    wreg      unsigned char 
  5891 ;; Registers used:
  5892 ;;		wreg, fsr1l, fsr1h, status,2, status,0, pclath, cstack
  5893 ;; Tracked objects:
  5894 ;;		On entry : 0/0
  5895 ;;		On exit  : 0/0
  5896 ;;		Unchanged: 0/0
  5897 ;; Data sizes:     COMMON   BANK0   BANK1   BANK2
  5898 ;;      Params:         0       5       0       0
  5899 ;;      Locals:         0       6       0       0
  5900 ;;      Temps:          0       3       0       0
  5901 ;;      Totals:         0      14       0       0
  5902 ;;Total ram usage:       14 bytes
  5903 ;; Hardware stack levels used:    1
  5904 ;; Hardware stack levels required when called:    5
  5905 ;; This function calls:
  5906 ;;		_EepromWrite
  5907 ;;		___wmul
  5908 ;; This function is called by:
  5909 ;;		_EEPROMAdd
  5910 ;; This function uses a non-reentrant model
  5911 ;;
  5912                           
  5913                           
  5914                           ;psect for function _EEPROMSaveNumber
  5915  0F8B                     _EEPROMSaveNumber:	
  5916                           
  5917                           ;eeprom.c: 136: uint16_t count=0,result=1;
  5918                           
  5919                           ;incstack = 0
  5920                           ; Regs used in _EEPROMSaveNumber: [wreg+fsr1l+fsr1h+status,2+status,0+pclath+cstack]
  5921  0F8B  0020               	movlb	0	; select bank0
  5922  0F8C  01B5               	clrf	EEPROMSaveNumber@count
  5923  0F8D  01B6               	clrf	EEPROMSaveNumber@count+1
  5924  0F8E  3001               	movlw	1
  5925  0F8F  00B3               	movwf	EEPROMSaveNumber@result
  5926  0F90  3000               	movlw	0
  5927  0F91  00B4               	movwf	EEPROMSaveNumber@result+1
  5928                           
  5929                           ;eeprom.c: 137: uint16_t address=0;
  5930  0F92  01B7               	clrf	EEPROMSaveNumber@address
  5931  0F93  01B8               	clrf	EEPROMSaveNumber@address+1
  5932                           
  5933                           ;eeprom.c: 138: address=position*10;
  5934  0F94  082F               	movf	EEPROMSaveNumber@position+1,w
  5935  0F95  00A6               	movwf	___wmul@multiplier+1
  5936  0F96  082E               	movf	EEPROMSaveNumber@position,w
  5937  0F97  00A5               	movwf	___wmul@multiplier
  5938  0F98  300A               	movlw	10
  5939  0F99  00A7               	movwf	___wmul@multiplicand
  5940  0F9A  3000               	movlw	0
  5941  0F9B  00A8               	movwf	___wmul@multiplicand+1
  5942  0F9C  318B  239B  318F   	fcall	___wmul
  5943  0F9F  0020               	movlb	0	; select bank0
  5944  0FA0  0826               	movf	?___wmul+1,w
  5945  0FA1  00B8               	movwf	EEPROMSaveNumber@address+1
  5946  0FA2  0825               	movf	?___wmul,w
  5947  0FA3  00B7               	movwf	EEPROMSaveNumber@address
  5948                           
  5949                           ;eeprom.c: 139: address=address+(10-1);
  5950  0FA4  0837               	movf	EEPROMSaveNumber@address,w
  5951  0FA5  3E09               	addlw	9
  5952  0FA6  00B7               	movwf	EEPROMSaveNumber@address
  5953  0FA7  3000               	movlw	0
  5954  0FA8  3D38               	addwfc	EEPROMSaveNumber@address+1,w
  5955  0FA9  00B8               	movwf	EEPROMSaveNumber@address+1
  5956                           
  5957                           ;eeprom.c: 141: for(count=10;count>0;count--)
  5958  0FAA  300A               	movlw	10
  5959  0FAB  00B5               	movwf	EEPROMSaveNumber@count
  5960  0FAC  3000               	movlw	0
  5961  0FAD  00B6               	movwf	EEPROMSaveNumber@count+1
  5962  0FAE                     L10:	
  5963  0FAE  0835               	movf	EEPROMSaveNumber@count,w
  5964  0FAF  0436               	iorwf	EEPROMSaveNumber@count+1,w
  5965  0FB0  1903               	btfsc	3,2
  5966  0FB1  0008               	return
  5967                           
  5968                           ;eeprom.c: 142: {
  5969                           ;eeprom.c: 143: if(nmbrLenght)
  5970  0FB2  082D               	movf	EEPROMSaveNumber@nmbrLenght,w
  5971  0FB3  1903               	btfsc	3,2
  5972  0FB4  2FE3               	goto	l2318
  5973                           
  5974                           ;eeprom.c: 144: {
  5975                           ;eeprom.c: 145: nmbrLenght--;
  5976  0FB5  3001               	movlw	1
  5977  0FB6  02AD               	subwf	EEPROMSaveNumber@nmbrLenght,f
  5978                           
  5979                           ;eeprom.c: 146: if(*(nmbr+nmbrLenght)>='0' && *(nmbr+nmbrLenght)<='9')
  5980  0FB7  082D               	movf	EEPROMSaveNumber@nmbrLenght,w
  5981  0FB8  00B0               	movwf	??_EEPROMSaveNumber
  5982  0FB9  01B1               	clrf	??_EEPROMSaveNumber+1
  5983  0FBA  0830               	movf	??_EEPROMSaveNumber,w
  5984  0FBB  072B               	addwf	EEPROMSaveNumber@nmbr,w
  5985  0FBC  0086               	movwf	6
  5986  0FBD  0831               	movf	??_EEPROMSaveNumber+1,w
  5987  0FBE  3D2C               	addwfc	EEPROMSaveNumber@nmbr+1,w
  5988  0FBF  0087               	movwf	7
  5989  0FC0  3030               	movlw	48
  5990  0FC1  0201               	subwf	1,w
  5991  0FC2  1C03               	skipc
  5992  0FC3  2FEC               	goto	l2320
  5993  0FC4  082D               	movf	EEPROMSaveNumber@nmbrLenght,w
  5994  0FC5  00B0               	movwf	??_EEPROMSaveNumber
  5995  0FC6  01B1               	clrf	??_EEPROMSaveNumber+1
  5996  0FC7  0830               	movf	??_EEPROMSaveNumber,w
  5997  0FC8  072B               	addwf	EEPROMSaveNumber@nmbr,w
  5998  0FC9  0086               	movwf	6
  5999  0FCA  0831               	movf	??_EEPROMSaveNumber+1,w
  6000  0FCB  3D2C               	addwfc	EEPROMSaveNumber@nmbr+1,w
  6001  0FCC  0087               	movwf	7
  6002  0FCD  303A               	movlw	58
  6003  0FCE  0201               	subwf	1,w
  6004  0FCF  1803               	skipnc
  6005  0FD0  2FEC               	goto	l2320
  6006                           
  6007                           ;eeprom.c: 147: {
  6008                           ;eeprom.c: 148: EepromWrite(address,*(nmbr+nmbrLenght));
  6009  0FD1  0838               	movf	EEPROMSaveNumber@address+1,w
  6010  0FD2  00A7               	movwf	EepromWrite@address+1
  6011  0FD3  0837               	movf	EEPROMSaveNumber@address,w
  6012  0FD4  00A6               	movwf	EepromWrite@address
  6013  0FD5  082D               	movf	EEPROMSaveNumber@nmbrLenght,w
  6014  0FD6  00B0               	movwf	??_EEPROMSaveNumber
  6015  0FD7  01B1               	clrf	??_EEPROMSaveNumber+1
  6016  0FD8  0830               	movf	??_EEPROMSaveNumber,w
  6017  0FD9  072B               	addwf	EEPROMSaveNumber@nmbr,w
  6018  0FDA  0086               	movwf	6
  6019  0FDB  0831               	movf	??_EEPROMSaveNumber+1,w
  6020  0FDC  3D2C               	addwfc	EEPROMSaveNumber@nmbr+1,w
  6021  0FDD  0087               	movwf	7
  6022  0FDE  0801               	movf	1,w
  6023  0FDF  00B2               	movwf	??_EEPROMSaveNumber+2
  6024  0FE0  0832               	movf	??_EEPROMSaveNumber+2,w
  6025  0FE1  00A8               	movwf	EepromWrite@data
  6026  0FE2  2FE9               	goto	L9
  6027  0FE3                     l2318:	
  6028                           ;eeprom.c: 149: }
  6029                           ;eeprom.c: 150: }
  6030                           
  6031                           
  6032                           ;eeprom.c: 151: else
  6033                           ;eeprom.c: 152: {
  6034                           ;eeprom.c: 153: EepromWrite(address,'\0');
  6035  0FE3  0020               	movlb	0	; select bank0
  6036  0FE4  0838               	movf	EEPROMSaveNumber@address+1,w
  6037  0FE5  00A7               	movwf	EepromWrite@address+1
  6038  0FE6  0837               	movf	EEPROMSaveNumber@address,w
  6039  0FE7  00A6               	movwf	EepromWrite@address
  6040  0FE8  01A8               	clrf	EepromWrite@data
  6041  0FE9                     L9:	
  6042  0FE9  318B  2380  318F   	fcall	_EepromWrite
  6043  0FEC                     l2320:	
  6044                           
  6045                           ;eeprom.c: 154: }
  6046                           ;eeprom.c: 155: address--;
  6047  0FEC  3001               	movlw	1
  6048  0FED  0020               	movlb	0	; select bank0
  6049  0FEE  02B7               	subwf	EEPROMSaveNumber@address,f
  6050  0FEF  3000               	movlw	0
  6051  0FF0  3BB8               	subwfb	EEPROMSaveNumber@address+1,f
  6052                           
  6053                           ;eeprom.c: 156: _delay((unsigned long)((5)*(8000000/4000.0)));
  6054  0FF1  300D               	movlw	13
  6055  0FF2  00B1               	movwf	??_EEPROMSaveNumber+1
  6056  0FF3  30FB               	movlw	251
  6057  0FF4  00B0               	movwf	??_EEPROMSaveNumber
  6058  0FF5                     u3327:	
  6059  0FF5  0BB0               	decfsz	??_EEPROMSaveNumber,f
  6060  0FF6  2FF5               	goto	u3327
  6061  0FF7  0BB1               	decfsz	??_EEPROMSaveNumber+1,f
  6062  0FF8  2FF5               	goto	u3327
  6063  0FF9  3200               	nop2
  6064  0FFA  3001               	movlw	1
  6065  0FFB  0020               	movlb	0	; select bank0
  6066  0FFC  02B5               	subwf	EEPROMSaveNumber@count,f
  6067  0FFD  3000               	movlw	0
  6068  0FFE  3BB6               	subwfb	EEPROMSaveNumber@count+1,f
  6069  0FFF  2FAE               	goto	L10
  6070  1000                     __end_of_EEPROMSaveNumber:	
  6071                           ;eeprom.c: 157: }
  6072                           ;eeprom.c: 158: return result;
  6073                           ;	Return value of _EEPROMSaveNumber is never used
  6074                           
  6075                           
  6076                           	psect	text25
  6077  0B9B                     __ptext25:	
  6078 ;; *************** function ___wmul *****************
  6079 ;; Defined at:
  6080 ;;		line 15 in file "C:\Program Files (x86)\Microchip\xc8\v1.38\sources\common\Umul16.c"
  6081 ;; Parameters:    Size  Location     Type
  6082 ;;  multiplier      2    5[BANK0 ] unsigned int 
  6083 ;;  multiplicand    2    7[BANK0 ] unsigned int 
  6084 ;; Auto vars:     Size  Location     Type
  6085 ;;  product         2    9[BANK0 ] unsigned int 
  6086 ;; Return value:  Size  Location     Type
  6087 ;;                  2    5[BANK0 ] unsigned int 
  6088 ;; Registers used:
  6089 ;;		wreg, status,2, status,0
  6090 ;; Tracked objects:
  6091 ;;		On entry : 0/0
  6092 ;;		On exit  : 0/0
  6093 ;;		Unchanged: 0/0
  6094 ;; Data sizes:     COMMON   BANK0   BANK1   BANK2
  6095 ;;      Params:         0       4       0       0
  6096 ;;      Locals:         0       2       0       0
  6097 ;;      Temps:          0       0       0       0
  6098 ;;      Totals:         0       6       0       0
  6099 ;;Total ram usage:        6 bytes
  6100 ;; Hardware stack levels used:    1
  6101 ;; Hardware stack levels required when called:    2
  6102 ;; This function calls:
  6103 ;;		Nothing
  6104 ;; This function is called by:
  6105 ;;		_EEPROMSaveNumber
  6106 ;;		_EEPROMDeleteNumber
  6107 ;;		_EEPROMAdd
  6108 ;;		_EEPROMPrint
  6109 ;; This function uses a non-reentrant model
  6110 ;;
  6111                           
  6112                           
  6113                           ;psect for function ___wmul
  6114  0B9B                     ___wmul:	
  6115                           
  6116                           ;incstack = 0
  6117                           ; Regs used in ___wmul: [wreg+status,2+status,0]
  6118  0B9B  0020               	movlb	0	; select bank0
  6119  0B9C  01A9               	clrf	___wmul@product
  6120  0B9D  01AA               	clrf	___wmul@product+1
  6121  0B9E                     l2254:	
  6122  0B9E  1C25               	btfss	___wmul@multiplier,0
  6123  0B9F  2BA4               	goto	l686
  6124  0BA0  0827               	movf	___wmul@multiplicand,w
  6125  0BA1  07A9               	addwf	___wmul@product,f
  6126  0BA2  0828               	movf	___wmul@multiplicand+1,w
  6127  0BA3  3DAA               	addwfc	___wmul@product+1,f
  6128  0BA4                     l686:	
  6129  0BA4  3001               	movlw	1
  6130  0BA5                     u1605:	
  6131  0BA5  35A7               	lslf	___wmul@multiplicand,f
  6132  0BA6  0DA8               	rlf	___wmul@multiplicand+1,f
  6133  0BA7  0B89               	decfsz	9,f
  6134  0BA8  2BA5               	goto	u1605
  6135  0BA9  3001               	movlw	1
  6136  0BAA                     u1615:	
  6137  0BAA  36A6               	lsrf	___wmul@multiplier+1,f
  6138  0BAB  0CA5               	rrf	___wmul@multiplier,f
  6139  0BAC  0B89               	decfsz	9,f
  6140  0BAD  2BAA               	goto	u1615
  6141  0BAE  0825               	movf	___wmul@multiplier,w
  6142  0BAF  0426               	iorwf	___wmul@multiplier+1,w
  6143  0BB0  1D03               	btfss	3,2
  6144  0BB1  2B9E               	goto	l2254
  6145  0BB2  082A               	movf	___wmul@product+1,w
  6146  0BB3  00A6               	movwf	?___wmul+1
  6147  0BB4  0829               	movf	___wmul@product,w
  6148  0BB5  00A5               	movwf	?___wmul
  6149  0BB6  0008               	return
  6150  0BB7                     __end_of___wmul:	
  6151                           
  6152                           	psect	text26
  6153  0B80                     __ptext26:	
  6154 ;; *************** function _EepromWrite *****************
  6155 ;; Defined at:
  6156 ;;		line 84 in file "eeprom.c"
  6157 ;; Parameters:    Size  Location     Type
  6158 ;;  address         2    6[BANK0 ] unsigned int 
  6159 ;;  data            1    8[BANK0 ] unsigned char 
  6160 ;; Auto vars:     Size  Location     Type
  6161 ;;		None
  6162 ;; Return value:  Size  Location     Type
  6163 ;;                  1    wreg      void 
  6164 ;; Registers used:
  6165 ;;		wreg, status,2, status,0, pclath, cstack
  6166 ;; Tracked objects:
  6167 ;;		On entry : 0/0
  6168 ;;		On exit  : 0/0
  6169 ;;		Unchanged: 0/0
  6170 ;; Data sizes:     COMMON   BANK0   BANK1   BANK2
  6171 ;;      Params:         0       3       0       0
  6172 ;;      Locals:         0       0       0       0
  6173 ;;      Temps:          0       0       0       0
  6174 ;;      Totals:         0       3       0       0
  6175 ;;Total ram usage:        3 bytes
  6176 ;; Hardware stack levels used:    1
  6177 ;; Hardware stack levels required when called:    4
  6178 ;; This function calls:
  6179 ;;		_I2CSend
  6180 ;;		_I2CStart
  6181 ;;		_I2CStop
  6182 ;; This function is called by:
  6183 ;;		_EEPROMSaveNumber
  6184 ;;		_EEPROMDeleteNumber
  6185 ;;		_EEPROMEraseAll
  6186 ;;		_EEPROMUpdatePassword
  6187 ;; This function uses a non-reentrant model
  6188 ;;
  6189                           
  6190                           
  6191                           ;psect for function _EepromWrite
  6192  0B80                     _EepromWrite:	
  6193                           
  6194                           ;eeprom.c: 97: LATBbits.LATB7=0;
  6195                           
  6196                           ;incstack = 0
  6197                           ; Regs used in _EepromWrite: [wreg+status,2+status,0+pclath+cstack]
  6198  0B80  0022               	movlb	2	; select bank2
  6199  0B81  138D               	bcf	13,7	;volatile
  6200                           
  6201                           ;eeprom.c: 98: I2CStart();
  6202  0B82  318A  22FA  318B   	fcall	_I2CStart
  6203                           
  6204                           ;eeprom.c: 99: I2CSend(0xA0);
  6205  0B85  30A0               	movlw	160
  6206  0B86  318B  2319  318B   	fcall	_I2CSend
  6207                           
  6208                           ;eeprom.c: 100: I2CSend(address>>8);
  6209  0B89  0020               	movlb	0	; select bank0
  6210  0B8A  0827               	movf	EepromWrite@address+1,w
  6211  0B8B  318B  2319  318B   	fcall	_I2CSend
  6212                           
  6213                           ;eeprom.c: 101: I2CSend(address);
  6214  0B8E  0020               	movlb	0	; select bank0
  6215  0B8F  0826               	movf	EepromWrite@address,w
  6216  0B90  318B  2319  318B   	fcall	_I2CSend
  6217                           
  6218                           ;eeprom.c: 102: I2CSend(data);
  6219  0B93  0020               	movlb	0	; select bank0
  6220  0B94  0828               	movf	EepromWrite@data,w
  6221  0B95  318B  2319  318B   	fcall	_I2CSend
  6222                           
  6223                           ;eeprom.c: 103: I2CStop();
  6224  0B98  318A  22FF         	fcall	_I2CStop
  6225  0B9A  0008               	return
  6226  0B9B                     __end_of_EepromWrite:	
  6227                           
  6228                           	psect	text27
  6229  0AFF                     __ptext27:	
  6230 ;; *************** function _I2CStop *****************
  6231 ;; Defined at:
  6232 ;;		line 38 in file "I2C.c"
  6233 ;; Parameters:    Size  Location     Type
  6234 ;;		None
  6235 ;; Auto vars:     Size  Location     Type
  6236 ;;		None
  6237 ;; Return value:  Size  Location     Type
  6238 ;;                  1    wreg      void 
  6239 ;; Registers used:
  6240 ;;		None
  6241 ;; Tracked objects:
  6242 ;;		On entry : 0/0
  6243 ;;		On exit  : 0/0
  6244 ;;		Unchanged: 0/0
  6245 ;; Data sizes:     COMMON   BANK0   BANK1   BANK2
  6246 ;;      Params:         0       0       0       0
  6247 ;;      Locals:         0       0       0       0
  6248 ;;      Temps:          0       0       0       0
  6249 ;;      Totals:         0       0       0       0
  6250 ;;Total ram usage:        0 bytes
  6251 ;; Hardware stack levels used:    1
  6252 ;; Hardware stack levels required when called:    2
  6253 ;; This function calls:
  6254 ;;		Nothing
  6255 ;; This function is called by:
  6256 ;;		_EepromWrite
  6257 ;;		_EepromRead
  6258 ;; This function uses a non-reentrant model
  6259 ;;
  6260                           
  6261                           
  6262                           ;psect for function _I2CStop
  6263  0AFF                     _I2CStop:	
  6264                           
  6265                           ;I2C.c: 40: PEN = 1;
  6266                           
  6267                           ;incstack = 0
  6268                           ; Regs used in _I2CStop: []
  6269  0AFF  0024               	movlb	4	; select bank4
  6270  0B00  1516               	bsf	22,2	;volatile
  6271  0B01                     l488:	
  6272                           ;I2C.c: 41: while(PEN);
  6273                           
  6274  0B01  1D16               	btfss	22,2	;volatile
  6275  0B02  0008               	return
  6276  0B03  2B01               	goto	l488
  6277  0B04                     __end_of_I2CStop:	
  6278                           
  6279                           	psect	text28
  6280  0AFA                     __ptext28:	
  6281 ;; *************** function _I2CStart *****************
  6282 ;; Defined at:
  6283 ;;		line 25 in file "I2C.c"
  6284 ;; Parameters:    Size  Location     Type
  6285 ;;		None
  6286 ;; Auto vars:     Size  Location     Type
  6287 ;;		None
  6288 ;; Return value:  Size  Location     Type
  6289 ;;                  1    wreg      void 
  6290 ;; Registers used:
  6291 ;;		None
  6292 ;; Tracked objects:
  6293 ;;		On entry : 0/0
  6294 ;;		On exit  : 0/0
  6295 ;;		Unchanged: 0/0
  6296 ;; Data sizes:     COMMON   BANK0   BANK1   BANK2
  6297 ;;      Params:         0       0       0       0
  6298 ;;      Locals:         0       0       0       0
  6299 ;;      Temps:          0       0       0       0
  6300 ;;      Totals:         0       0       0       0
  6301 ;;Total ram usage:        0 bytes
  6302 ;; Hardware stack levels used:    1
  6303 ;; Hardware stack levels required when called:    2
  6304 ;; This function calls:
  6305 ;;		Nothing
  6306 ;; This function is called by:
  6307 ;;		_EepromWrite
  6308 ;;		_EepromRead
  6309 ;; This function uses a non-reentrant model
  6310 ;;
  6311                           
  6312                           
  6313                           ;psect for function _I2CStart
  6314  0AFA                     _I2CStart:	
  6315                           
  6316                           ;I2C.c: 27: SEN = 1;
  6317                           
  6318                           ;incstack = 0
  6319                           ; Regs used in _I2CStart: []
  6320  0AFA  0024               	movlb	4	; select bank4
  6321  0AFB  1416               	bsf	22,0	;volatile
  6322  0AFC                     l482:	
  6323                           ;I2C.c: 28: while(SEN);
  6324                           
  6325  0AFC  1C16               	btfss	22,0	;volatile
  6326  0AFD  0008               	return
  6327  0AFE  2AFC               	goto	l482
  6328  0AFF                     __end_of_I2CStart:	
  6329                           
  6330                           	psect	text29
  6331  0B19                     __ptext29:	
  6332 ;; *************** function _I2CSend *****************
  6333 ;; Defined at:
  6334 ;;		line 102 in file "I2C.c"
  6335 ;; Parameters:    Size  Location     Type
  6336 ;;  dat             1    wreg     unsigned char 
  6337 ;; Auto vars:     Size  Location     Type
  6338 ;;  dat             1    5[BANK0 ] unsigned char 
  6339 ;; Return value:  Size  Location     Type
  6340 ;;                  1    wreg      void 
  6341 ;; Registers used:
  6342 ;;		wreg, status,2, status,0, pclath, cstack
  6343 ;; Tracked objects:
  6344 ;;		On entry : 0/0
  6345 ;;		On exit  : 0/0
  6346 ;;		Unchanged: 0/0
  6347 ;; Data sizes:     COMMON   BANK0   BANK1   BANK2
  6348 ;;      Params:         0       0       0       0
  6349 ;;      Locals:         0       1       0       0
  6350 ;;      Temps:          0       0       0       0
  6351 ;;      Totals:         0       1       0       0
  6352 ;;Total ram usage:        1 bytes
  6353 ;; Hardware stack levels used:    1
  6354 ;; Hardware stack levels required when called:    3
  6355 ;; This function calls:
  6356 ;;		_I2CWait
  6357 ;; This function is called by:
  6358 ;;		_EepromWrite
  6359 ;;		_EepromRead
  6360 ;; This function uses a non-reentrant model
  6361 ;;
  6362                           
  6363                           
  6364                           ;psect for function _I2CSend
  6365  0B19                     _I2CSend:	
  6366                           
  6367                           ;incstack = 0
  6368                           ; Regs used in _I2CSend: [wreg+status,2+status,0+pclath+cstack]
  6369                           ;I2CSend@dat stored from wreg
  6370  0B19  0020               	movlb	0	; select bank0
  6371  0B1A  00A5               	movwf	I2CSend@dat
  6372                           
  6373                           ;I2C.c: 104: SSPBUF = dat;
  6374  0B1B  0825               	movf	I2CSend@dat,w
  6375  0B1C  0024               	movlb	4	; select bank4
  6376  0B1D  0091               	movwf	17	;volatile
  6377  0B1E                     l518:	
  6378                           ;I2C.c: 105: while(BF);
  6379                           
  6380  0B1E  1814               	btfsc	20,0	;volatile
  6381  0B1F  2B1E               	goto	l518
  6382                           
  6383                           ;I2C.c: 106: I2CWait();
  6384  0B20  318B  2309         	fcall	_I2CWait
  6385  0B22  0008               	return
  6386  0B23                     __end_of_I2CSend:	
  6387                           
  6388                           	psect	text30
  6389  0B09                     __ptext30:	
  6390 ;; *************** function _I2CWait *****************
  6391 ;; Defined at:
  6392 ;;		line 89 in file "I2C.c"
  6393 ;; Parameters:    Size  Location     Type
  6394 ;;		None
  6395 ;; Auto vars:     Size  Location     Type
  6396 ;;		None
  6397 ;; Return value:  Size  Location     Type
  6398 ;;                  1    wreg      void 
  6399 ;; Registers used:
  6400 ;;		wreg, status,2
  6401 ;; Tracked objects:
  6402 ;;		On entry : 0/0
  6403 ;;		On exit  : 0/0
  6404 ;;		Unchanged: 0/0
  6405 ;; Data sizes:     COMMON   BANK0   BANK1   BANK2
  6406 ;;      Params:         0       0       0       0
  6407 ;;      Locals:         0       0       0       0
  6408 ;;      Temps:          0       0       0       0
  6409 ;;      Totals:         0       0       0       0
  6410 ;;Total ram usage:        0 bytes
  6411 ;; Hardware stack levels used:    1
  6412 ;; Hardware stack levels required when called:    2
  6413 ;; This function calls:
  6414 ;;		Nothing
  6415 ;; This function is called by:
  6416 ;;		_I2CSend
  6417 ;;		_I2CRead
  6418 ;; This function uses a non-reentrant model
  6419 ;;
  6420                           
  6421                           
  6422                           ;psect for function _I2CWait
  6423  0B09                     _I2CWait:	
  6424  0B09                     l2202:	
  6425                           ;I2C.c: 91: while ((SSPCON2 & 0x1F ) || ( SSPSTAT & 0x04 ) );
  6426                           
  6427                           ;incstack = 0
  6428                           ; Regs used in _I2CWait: [wreg+status,2]
  6429                           
  6430  0B09  0024               	movlb	4	; select bank4
  6431  0B0A  0816               	movf	22,w	;volatile
  6432  0B0B  391F               	andlw	31
  6433  0B0C  1D03               	btfss	3,2
  6434  0B0D  2B09               	goto	l2202
  6435  0B0E  1D14               	btfss	20,2	;volatile
  6436  0B0F  0008               	return
  6437  0B10  2B09               	goto	l2202
  6438  0B11                     __end_of_I2CWait:	
  6439                           
  6440                           	psect	text31
  6441  0B23                     __ptext31:	
  6442 ;; *************** function _I2CInit *****************
  6443 ;; Defined at:
  6444 ;;		line 9 in file "I2C.c"
  6445 ;; Parameters:    Size  Location     Type
  6446 ;;		None
  6447 ;; Auto vars:     Size  Location     Type
  6448 ;;		None
  6449 ;; Return value:  Size  Location     Type
  6450 ;;                  1    wreg      void 
  6451 ;; Registers used:
  6452 ;;		wreg
  6453 ;; Tracked objects:
  6454 ;;		On entry : 0/0
  6455 ;;		On exit  : 0/0
  6456 ;;		Unchanged: 0/0
  6457 ;; Data sizes:     COMMON   BANK0   BANK1   BANK2
  6458 ;;      Params:         0       0       0       0
  6459 ;;      Locals:         0       0       0       0
  6460 ;;      Temps:          0       0       0       0
  6461 ;;      Totals:         0       0       0       0
  6462 ;;Total ram usage:        0 bytes
  6463 ;; Hardware stack levels used:    1
  6464 ;; Hardware stack levels required when called:    2
  6465 ;; This function calls:
  6466 ;;		Nothing
  6467 ;; This function is called by:
  6468 ;;		_main
  6469 ;; This function uses a non-reentrant model
  6470 ;;
  6471                           
  6472                           
  6473                           ;psect for function _I2CInit
  6474  0B23                     _I2CInit:	
  6475                           
  6476                           ;I2C.c: 11: TRISC7 = 1;
  6477                           
  6478                           ;incstack = 0
  6479                           ; Regs used in _I2CInit: [wreg]
  6480  0B23  0021               	movlb	1	; select bank1
  6481  0B24  178E               	bsf	14,7	;volatile
  6482                           
  6483                           ;I2C.c: 12: TRISB7 = 0;
  6484  0B25  138D               	bcf	13,7	;volatile
  6485                           
  6486                           ;I2C.c: 13: TRISB6 = 1;
  6487  0B26  170D               	bsf	13,6	;volatile
  6488                           
  6489                           ;I2C.c: 14: SSPSTAT |= 0x80;
  6490  0B27  0024               	movlb	4	; select bank4
  6491  0B28  1794               	bsf	20,7	;volatile
  6492                           
  6493                           ;I2C.c: 15: SSPCON = 0x28;
  6494  0B29  3028               	movlw	40
  6495  0B2A  0095               	movwf	21	;volatile
  6496                           
  6497                           ;I2C.c: 16: SSPADD = 0x09;
  6498  0B2B  3009               	movlw	9
  6499  0B2C  0092               	movwf	18	;volatile
  6500  0B2D  0008               	return
  6501  0B2E                     __end_of_I2CInit:	
  6502                           
  6503                           	psect	text32
  6504  0B58                     __ptext32:	
  6505 ;; *************** function _GPIOPortInit *****************
  6506 ;; Defined at:
  6507 ;;		line 5 in file "gpio.c"
  6508 ;; Parameters:    Size  Location     Type
  6509 ;;		None
  6510 ;; Auto vars:     Size  Location     Type
  6511 ;;		None
  6512 ;; Return value:  Size  Location     Type
  6513 ;;                  1    wreg      void 
  6514 ;; Registers used:
  6515 ;;		status,2
  6516 ;; Tracked objects:
  6517 ;;		On entry : 0/0
  6518 ;;		On exit  : 0/0
  6519 ;;		Unchanged: 0/0
  6520 ;; Data sizes:     COMMON   BANK0   BANK1   BANK2
  6521 ;;      Params:         0       0       0       0
  6522 ;;      Locals:         0       0       0       0
  6523 ;;      Temps:          0       0       0       0
  6524 ;;      Totals:         0       0       0       0
  6525 ;;Total ram usage:        0 bytes
  6526 ;; Hardware stack levels used:    1
  6527 ;; Hardware stack levels required when called:    2
  6528 ;; This function calls:
  6529 ;;		Nothing
  6530 ;; This function is called by:
  6531 ;;		_main
  6532 ;; This function uses a non-reentrant model
  6533 ;;
  6534                           
  6535                           
  6536                           ;psect for function _GPIOPortInit
  6537  0B58                     _GPIOPortInit:	
  6538                           
  6539                           ;gpio.c: 8: TRISB7=0;
  6540                           
  6541                           ;incstack = 0
  6542                           ; Regs used in _GPIOPortInit: [status,2]
  6543  0B58  0021               	movlb	1	; select bank1
  6544  0B59  138D               	bcf	13,7	;volatile
  6545                           
  6546                           ;gpio.c: 9: TRISB6=0;
  6547  0B5A  130D               	bcf	13,6	;volatile
  6548                           
  6549                           ;gpio.c: 10: TRISC7=0;
  6550  0B5B  138E               	bcf	14,7	;volatile
  6551                           
  6552                           ;gpio.c: 11: TRISB4=1;
  6553  0B5C  160D               	bsf	13,4	;volatile
  6554                           
  6555                           ;gpio.c: 12: ANSELB=0x00;
  6556  0B5D  0023               	movlb	3	; select bank3
  6557  0B5E  018D               	clrf	13	;volatile
  6558                           
  6559                           ;gpio.c: 14: TRISC0=0;
  6560  0B5F  0021               	movlb	1	; select bank1
  6561  0B60  100E               	bcf	14,0	;volatile
  6562                           
  6563                           ;gpio.c: 15: TRISC1=0;
  6564  0B61  108E               	bcf	14,1	;volatile
  6565                           
  6566                           ;gpio.c: 16: TRISC2=0;
  6567  0B62  110E               	bcf	14,2	;volatile
  6568                           
  6569                           ;gpio.c: 18: TRISC4=0;
  6570  0B63  120E               	bcf	14,4	;volatile
  6571                           
  6572                           ;gpio.c: 19: TRISC5=1;
  6573  0B64  168E               	bsf	14,5	;volatile
  6574                           
  6575                           ;gpio.c: 21: TRISC6=0;
  6576  0B65  130E               	bcf	14,6	;volatile
  6577                           
  6578                           ;gpio.c: 23: TRISA4=0;
  6579  0B66  120C               	bcf	12,4	;volatile
  6580                           
  6581                           ;gpio.c: 24: TRISA5=0;
  6582  0B67  128C               	bcf	12,5	;volatile
  6583  0B68  0008               	return
  6584  0B69                     __end_of_GPIOPortInit:	
  6585                           
  6586                           	psect	text33
  6587  0C56                     __ptext33:	
  6588 ;; *************** function _GPIOGreenLedBlink *****************
  6589 ;; Defined at:
  6590 ;;		line 51 in file "gpio.c"
  6591 ;; Parameters:    Size  Location     Type
  6592 ;;  times           1    wreg     unsigned char 
  6593 ;; Auto vars:     Size  Location     Type
  6594 ;;  times           1    8[BANK0 ] unsigned char 
  6595 ;;  i               1    9[BANK0 ] unsigned char 
  6596 ;; Return value:  Size  Location     Type
  6597 ;;                  1    wreg      void 
  6598 ;; Registers used:
  6599 ;;		wreg, status,2, status,0
  6600 ;; Tracked objects:
  6601 ;;		On entry : 0/0
  6602 ;;		On exit  : 0/0
  6603 ;;		Unchanged: 0/0
  6604 ;; Data sizes:     COMMON   BANK0   BANK1   BANK2
  6605 ;;      Params:         0       0       0       0
  6606 ;;      Locals:         0       2       0       0
  6607 ;;      Temps:          0       3       0       0
  6608 ;;      Totals:         0       5       0       0
  6609 ;;Total ram usage:        5 bytes
  6610 ;; Hardware stack levels used:    1
  6611 ;; Hardware stack levels required when called:    2
  6612 ;; This function calls:
  6613 ;;		Nothing
  6614 ;; This function is called by:
  6615 ;;		_main
  6616 ;; This function uses a non-reentrant model
  6617 ;;
  6618                           
  6619                           
  6620                           ;psect for function _GPIOGreenLedBlink
  6621  0C56                     _GPIOGreenLedBlink:	
  6622                           
  6623                           ;incstack = 0
  6624                           ; Regs used in _GPIOGreenLedBlink: [wreg+status,2+status,0]
  6625                           ;GPIOGreenLedBlink@times stored from wreg
  6626  0C56  0020               	movlb	0	; select bank0
  6627  0C57  00A8               	movwf	GPIOGreenLedBlink@times
  6628                           
  6629                           ;gpio.c: 53: uint8_t i=0;
  6630  0C58  01A9               	clrf	GPIOGreenLedBlink@i
  6631                           
  6632                           ;gpio.c: 54: for(i=0;i<times;i++)
  6633  0C59  01A9               	clrf	GPIOGreenLedBlink@i
  6634  0C5A                     l2542:	
  6635  0C5A  0828               	movf	GPIOGreenLedBlink@times,w
  6636  0C5B  0229               	subwf	GPIOGreenLedBlink@i,w
  6637  0C5C  1803               	btfsc	3,0
  6638  0C5D  0008               	return
  6639                           
  6640                           ;gpio.c: 55: {
  6641                           ;gpio.c: 56: LATCbits.LATC2=1;
  6642  0C5E  0022               	movlb	2	; select bank2
  6643  0C5F  150E               	bsf	14,2	;volatile
  6644                           
  6645                           ;gpio.c: 57: _delay((unsigned long)((100)*(8000000/4000.0)));
  6646  0C60  3002               	movlw	2
  6647  0C61  0020               	movlb	0	; select bank0
  6648  0C62  00A7               	movwf	??_GPIOGreenLedBlink+2
  6649  0C63  3004               	movlw	4
  6650  0C64  00A6               	movwf	??_GPIOGreenLedBlink+1
  6651  0C65  30BA               	movlw	186
  6652  0C66  00A5               	movwf	??_GPIOGreenLedBlink
  6653  0C67                     u3337:	
  6654  0C67  0BA5               	decfsz	??_GPIOGreenLedBlink,f
  6655  0C68  2C67               	goto	u3337
  6656  0C69  0BA6               	decfsz	??_GPIOGreenLedBlink+1,f
  6657  0C6A  2C67               	goto	u3337
  6658  0C6B  0BA7               	decfsz	??_GPIOGreenLedBlink+2,f
  6659  0C6C  2C67               	goto	u3337
  6660  0C6D  0000               	nop
  6661                           
  6662                           ;gpio.c: 58: LATCbits.LATC2=0;
  6663  0C6E  0022               	movlb	2	; select bank2
  6664  0C6F  110E               	bcf	14,2	;volatile
  6665                           
  6666                           ;gpio.c: 59: _delay((unsigned long)((100)*(8000000/4000.0)));
  6667  0C70  3002               	movlw	2
  6668  0C71  0020               	movlb	0	; select bank0
  6669  0C72  00A7               	movwf	??_GPIOGreenLedBlink+2
  6670  0C73  3004               	movlw	4
  6671  0C74  00A6               	movwf	??_GPIOGreenLedBlink+1
  6672  0C75  30BA               	movlw	186
  6673  0C76  00A5               	movwf	??_GPIOGreenLedBlink
  6674  0C77                     u3347:	
  6675  0C77  0BA5               	decfsz	??_GPIOGreenLedBlink,f
  6676  0C78  2C77               	goto	u3347
  6677  0C79  0BA6               	decfsz	??_GPIOGreenLedBlink+1,f
  6678  0C7A  2C77               	goto	u3347
  6679  0C7B  0BA7               	decfsz	??_GPIOGreenLedBlink+2,f
  6680  0C7C  2C77               	goto	u3347
  6681  0C7D  0000               	nop
  6682  0C7E  3001               	movlw	1
  6683  0C7F  0020               	movlb	0	; select bank0
  6684  0C80  00A5               	movwf	??_GPIOGreenLedBlink
  6685  0C81  0825               	movf	??_GPIOGreenLedBlink,w
  6686  0C82  07A9               	addwf	GPIOGreenLedBlink@i,f
  6687  0C83  2C5A               	goto	l2542
  6688  0C84                     __end_of_GPIOGreenLedBlink:	
  6689                           
  6690                           	psect	text34
  6691  0C28                     __ptext34:	
  6692 ;; *************** function _GPIOBlueLedBlink *****************
  6693 ;; Defined at:
  6694 ;;		line 39 in file "gpio.c"
  6695 ;; Parameters:    Size  Location     Type
  6696 ;;  times           1    wreg     unsigned char 
  6697 ;; Auto vars:     Size  Location     Type
  6698 ;;  times           1    8[BANK0 ] unsigned char 
  6699 ;;  i               1    9[BANK0 ] unsigned char 
  6700 ;; Return value:  Size  Location     Type
  6701 ;;                  1    wreg      void 
  6702 ;; Registers used:
  6703 ;;		wreg, status,2, status,0
  6704 ;; Tracked objects:
  6705 ;;		On entry : 0/0
  6706 ;;		On exit  : 0/0
  6707 ;;		Unchanged: 0/0
  6708 ;; Data sizes:     COMMON   BANK0   BANK1   BANK2
  6709 ;;      Params:         0       0       0       0
  6710 ;;      Locals:         0       2       0       0
  6711 ;;      Temps:          0       3       0       0
  6712 ;;      Totals:         0       5       0       0
  6713 ;;Total ram usage:        5 bytes
  6714 ;; Hardware stack levels used:    1
  6715 ;; Hardware stack levels required when called:    2
  6716 ;; This function calls:
  6717 ;;		Nothing
  6718 ;; This function is called by:
  6719 ;;		_main
  6720 ;; This function uses a non-reentrant model
  6721 ;;
  6722                           
  6723                           
  6724                           ;psect for function _GPIOBlueLedBlink
  6725  0C28                     _GPIOBlueLedBlink:	
  6726                           
  6727                           ;incstack = 0
  6728                           ; Regs used in _GPIOBlueLedBlink: [wreg+status,2+status,0]
  6729                           ;GPIOBlueLedBlink@times stored from wreg
  6730  0C28  0020               	movlb	0	; select bank0
  6731  0C29  00A8               	movwf	GPIOBlueLedBlink@times
  6732                           
  6733                           ;gpio.c: 41: uint8_t i=0;
  6734  0C2A  01A9               	clrf	GPIOBlueLedBlink@i
  6735                           
  6736                           ;gpio.c: 42: for(i=0;i<times;i++)
  6737  0C2B  01A9               	clrf	GPIOBlueLedBlink@i
  6738  0C2C                     l2532:	
  6739  0C2C  0828               	movf	GPIOBlueLedBlink@times,w
  6740  0C2D  0229               	subwf	GPIOBlueLedBlink@i,w
  6741  0C2E  1803               	btfsc	3,0
  6742  0C2F  0008               	return
  6743                           
  6744                           ;gpio.c: 43: {
  6745                           ;gpio.c: 44: LATCbits.LATC0=1;
  6746  0C30  0022               	movlb	2	; select bank2
  6747  0C31  140E               	bsf	14,0	;volatile
  6748                           
  6749                           ;gpio.c: 45: _delay((unsigned long)((100)*(8000000/4000.0)));
  6750  0C32  3002               	movlw	2
  6751  0C33  0020               	movlb	0	; select bank0
  6752  0C34  00A7               	movwf	??_GPIOBlueLedBlink+2
  6753  0C35  3004               	movlw	4
  6754  0C36  00A6               	movwf	??_GPIOBlueLedBlink+1
  6755  0C37  30BA               	movlw	186
  6756  0C38  00A5               	movwf	??_GPIOBlueLedBlink
  6757  0C39                     u3357:	
  6758  0C39  0BA5               	decfsz	??_GPIOBlueLedBlink,f
  6759  0C3A  2C39               	goto	u3357
  6760  0C3B  0BA6               	decfsz	??_GPIOBlueLedBlink+1,f
  6761  0C3C  2C39               	goto	u3357
  6762  0C3D  0BA7               	decfsz	??_GPIOBlueLedBlink+2,f
  6763  0C3E  2C39               	goto	u3357
  6764  0C3F  0000               	nop
  6765                           
  6766                           ;gpio.c: 46: LATCbits.LATC0=0;
  6767  0C40  0022               	movlb	2	; select bank2
  6768  0C41  100E               	bcf	14,0	;volatile
  6769                           
  6770                           ;gpio.c: 47: _delay((unsigned long)((100)*(8000000/4000.0)));
  6771  0C42  3002               	movlw	2
  6772  0C43  0020               	movlb	0	; select bank0
  6773  0C44  00A7               	movwf	??_GPIOBlueLedBlink+2
  6774  0C45  3004               	movlw	4
  6775  0C46  00A6               	movwf	??_GPIOBlueLedBlink+1
  6776  0C47  30BA               	movlw	186
  6777  0C48  00A5               	movwf	??_GPIOBlueLedBlink
  6778  0C49                     u3367:	
  6779  0C49  0BA5               	decfsz	??_GPIOBlueLedBlink,f
  6780  0C4A  2C49               	goto	u3367
  6781  0C4B  0BA6               	decfsz	??_GPIOBlueLedBlink+1,f
  6782  0C4C  2C49               	goto	u3367
  6783  0C4D  0BA7               	decfsz	??_GPIOBlueLedBlink+2,f
  6784  0C4E  2C49               	goto	u3367
  6785  0C4F  0000               	nop
  6786  0C50  3001               	movlw	1
  6787  0C51  0020               	movlb	0	; select bank0
  6788  0C52  00A5               	movwf	??_GPIOBlueLedBlink
  6789  0C53  0825               	movf	??_GPIOBlueLedBlink,w
  6790  0C54  07A9               	addwf	GPIOBlueLedBlink@i,f
  6791  0C55  2C2C               	goto	l2532
  6792  0C56                     __end_of_GPIOBlueLedBlink:	
  6793                           
  6794                           	psect	intentry
  6795  0004                     __pintentry:	
  6796 ;; *************** function _ISR *****************
  6797 ;; Defined at:
  6798 ;;		line 6 in file "isr.c"
  6799 ;; Parameters:    Size  Location     Type
  6800 ;;		None
  6801 ;; Auto vars:     Size  Location     Type
  6802 ;;		None
  6803 ;; Return value:  Size  Location     Type
  6804 ;;                  1    wreg      void 
  6805 ;; Registers used:
  6806 ;;		wreg, fsr0l, fsr0h, fsr1l, fsr1h, status,2, status,0, pclath, cstack
  6807 ;; Tracked objects:
  6808 ;;		On entry : 0/0
  6809 ;;		On exit  : 0/0
  6810 ;;		Unchanged: 0/0
  6811 ;; Data sizes:     COMMON   BANK0   BANK1   BANK2
  6812 ;;      Params:         0       0       0       0
  6813 ;;      Locals:         0       0       0       0
  6814 ;;      Temps:          1       0       0       0
  6815 ;;      Totals:         1       0       0       0
  6816 ;;Total ram usage:        1 bytes
  6817 ;; Hardware stack levels used:    1
  6818 ;; Hardware stack levels required when called:    1
  6819 ;; This function calls:
  6820 ;;		_USARTHandleRxInt
  6821 ;; This function is called by:
  6822 ;;		Interrupt level 1
  6823 ;; This function uses a non-reentrant model
  6824 ;;
  6825                           
  6826  0004                     _ISR:	
  6827                           
  6828                           ;incstack = 0
  6829  0004  147E               	bsf	126,0	;set compiler interrupt flag (level 1)
  6830                           
  6831                           ; Regs used in _ISR: [wreg-fsr1h+status,2+status,0+pclath+cstack]
  6832  0005  3180               	pagesel	$
  6833  0006  0020               	movlb	0	; select bank0
  6834  0007  087F               	movf	127,w
  6835  0008  00FB               	movwf	??_ISR
  6836                           
  6837                           ;isr.c: 8: if (RCIE && RCIF) {
  6838  0009  0021               	movlb	1	; select bank1
  6839  000A  1E91               	btfss	17,5	;volatile
  6840  000B  2811               	goto	i1l190
  6841  000C  0020               	movlb	0	; select bank0
  6842  000D  1E91               	btfss	17,5	;volatile
  6843  000E  2811               	goto	i1l190
  6844                           
  6845                           ;isr.c: 9: USARTHandleRxInt();
  6846  000F  3180  2031         	fcall	_USARTHandleRxInt
  6847  0011                     i1l190:	
  6848                           ;isr.c: 10: return;
  6849                           
  6850  0011  087B               	movf	??_ISR,w
  6851  0012  0020               	movlb	0	; select bank0
  6852  0013  00FF               	movwf	127
  6853  0014  107E               	bcf	126,0	;clear compiler interrupt flag (level 1)
  6854  0015  0009               	retfie
  6855  0016                     __end_of_ISR:	
  6856                           
  6857                           	psect	text36
  6858  0031                     __ptext36:	
  6859 ;; *************** function _USARTHandleRxInt *****************
  6860 ;; Defined at:
  6861 ;;		line 73 in file "usart.c"
  6862 ;; Parameters:    Size  Location     Type
  6863 ;;		None
  6864 ;; Auto vars:     Size  Location     Type
  6865 ;;  ci              1    1[BANK0 ] unsigned char 
  6866 ;;  ci              1    4[BANK0 ] unsigned char 
  6867 ;;  ci              1    3[BANK0 ] unsigned char 
  6868 ;;  ci              1    2[BANK0 ] unsigned char 
  6869 ;;  data            1    0[BANK0 ] unsigned char 
  6870 ;; Return value:  Size  Location     Type
  6871 ;;                  1    wreg      void 
  6872 ;; Registers used:
  6873 ;;		wreg, fsr0l, fsr0h, fsr1l, fsr1h, status,2, status,0
  6874 ;; Tracked objects:
  6875 ;;		On entry : 0/0
  6876 ;;		On exit  : 0/0
  6877 ;;		Unchanged: 0/0
  6878 ;; Data sizes:     COMMON   BANK0   BANK1   BANK2
  6879 ;;      Params:         0       0       0       0
  6880 ;;      Locals:         0       5       0       0
  6881 ;;      Temps:         11       0       0       0
  6882 ;;      Totals:        11       5       0       0
  6883 ;;Total ram usage:       16 bytes
  6884 ;; Hardware stack levels used:    1
  6885 ;; This function calls:
  6886 ;;		Nothing
  6887 ;; This function is called by:
  6888 ;;		_ISR
  6889 ;; This function uses a non-reentrant model
  6890 ;;
  6891                           
  6892                           
  6893                           ;psect for function _USARTHandleRxInt
  6894  0031                     _USARTHandleRxInt:	
  6895                           
  6896                           ;usart.c: 75: LATCbits.LATC0=1;
  6897                           
  6898                           ;incstack = 0
  6899                           ; Regs used in _USARTHandleRxInt: [wreg-fsr1h+status,2+status,0]
  6900  0031  0022               	movlb	2	; select bank2
  6901  0032  140E               	bsf	14,0	;volatile
  6902                           
  6903                           ;usart.c: 77: char data=RCREG;
  6904  0033  0023               	movlb	3	; select bank3
  6905  0034  0819               	movf	25,w	;volatile
  6906  0035  00F0               	movwf	??_USARTHandleRxInt
  6907  0036  0870               	movf	??_USARTHandleRxInt,w
  6908  0037  0020               	movlb	0	; select bank0
  6909  0038  00A0               	movwf	USARTHandleRxInt@data
  6910                           
  6911                           ;usart.c: 78: SIM800L.busy=1;
  6912  0039  3063               	movlw	99
  6913  003A  0086               	movwf	6
  6914  003B  3020               	movlw	32
  6915  003C  0087               	movwf	7
  6916  003D  3001               	movlw	1
  6917  003E  3FC0               	movwi [0]fsr1
  6918                           
  6919                           ;usart.c: 79: switch(data)
  6920  003F  2ABC               	goto	i1l2662
  6921  0040                     i1l2550:	
  6922                           ;usart.c: 80: {
  6923                           ;usart.c: 81: case '\r':
  6924                           
  6925                           
  6926                           ;usart.c: 82: if(SIM800L.uncomplete==1 && bufque==0){SIM800L.uncomplete=0;}
  6927  0040  3063               	movlw	99
  6928  0041  0086               	movwf	6
  6929  0042  3020               	movlw	32
  6930  0043  0087               	movwf	7
  6931  0044  3141               	addfsr 1,1
  6932  0045  0301               	decf	1,w
  6933  0046  1D03               	btfss	3,2
  6934  0047  2AC4               	goto	i1l384
  6935  0048  085A               	movf	_bufque,w
  6936  0049  1D03               	btfss	3,2
  6937  004A  2AC4               	goto	i1l384
  6938  004B  3063               	movlw	99
  6939  004C  0086               	movwf	6
  6940  004D  3020               	movlw	32
  6941  004E  0087               	movwf	7
  6942  004F  3141               	addfsr 1,1
  6943  0050  0181               	clrf	1
  6944                           
  6945                           ;usart.c: 83: break;
  6946  0051  2AC4               	goto	i1l384
  6947  0052                     i1l2556:	
  6948                           ;usart.c: 84: case '\n':
  6949                           
  6950                           
  6951                           ;usart.c: 85: if(SIM800L.uncomplete==0) SIM800L.uncomplete=1;
  6952  0052  3063               	movlw	99
  6953  0053  0086               	movwf	6
  6954  0054  3020               	movlw	32
  6955  0055  0087               	movwf	7
  6956  0056  3141               	addfsr 1,1
  6957  0057  0801               	movf	1,w
  6958  0058  1D03               	btfss	3,2
  6959  0059  2861               	goto	i1l2560
  6960  005A  3064               	movlw	100
  6961  005B  0086               	movwf	6
  6962  005C  3020               	movlw	32
  6963  005D  0087               	movwf	7
  6964  005E  3001               	movlw	1
  6965  005F  0081               	movwf	1
  6966  0060  2A99               	goto	i1l2652
  6967  0061                     i1l2560:	
  6968                           
  6969                           ;usart.c: 86: else
  6970                           ;usart.c: 87: {
  6971                           ;usart.c: 88: SIM800L.buffer[bufque]=0;
  6972  0061  085A               	movf	_bufque,w
  6973  0062  00F0               	movwf	??_USARTHandleRxInt
  6974  0063  01F1               	clrf	??_USARTHandleRxInt+1
  6975  0064  307D               	movlw	125
  6976  0065  00F2               	movwf	??_USARTHandleRxInt+2
  6977  0066  3020               	movlw	32
  6978  0067  00F3               	movwf	??_USARTHandleRxInt+3
  6979  0068  0870               	movf	??_USARTHandleRxInt,w
  6980  0069  0772               	addwf	??_USARTHandleRxInt+2,w
  6981  006A  0086               	movwf	6
  6982  006B  0871               	movf	??_USARTHandleRxInt+1,w
  6983  006C  3D73               	addwfc	??_USARTHandleRxInt+3,w
  6984  006D  0087               	movwf	7
  6985  006E  0181               	clrf	1
  6986                           
  6987                           ;usart.c: 89: SIM800L.uncomplete=0;
  6988  006F  3063               	movlw	99
  6989  0070  0086               	movwf	6
  6990  0071  3020               	movlw	32
  6991  0072  0087               	movwf	7
  6992  0073  3141               	addfsr 1,1
  6993  0074  0181               	clrf	1
  6994                           
  6995                           ;usart.c: 91: if(SIM800L.buffer[0]=='+')
  6996  0075  3063               	movlw	99
  6997  0076  0086               	movwf	6
  6998  0077  3020               	movlw	32
  6999  0078  0087               	movwf	7
  7000  0079  315A               	addfsr 1,26
  7001  007A  302B               	movlw	43
  7002  007B  0601               	xorwf	1,w
  7003  007C  1D03               	btfss	3,2
  7004  007D  2A80               	goto	i1l2644
  7005                           
  7006                           ;usart.c: 92: {
  7007                           ;usart.c: 93: if(SIM800L.buffer[1]=='C' && SIM800L.buffer[2]=='L' && SIM800L.buffer[3]==
      +                          'I' )
  7008  007E  3063               	movlw	99
  7009  007F  0086               	movwf	6
  7010  0080  3020               	movlw	32
  7011  0081  0087               	movwf	7
  7012  0082  315B               	addfsr 1,27
  7013  0083  3043               	movlw	67
  7014  0084  0601               	xorwf	1,w
  7015  0085  1D03               	btfss	3,2
  7016  0086  290A               	goto	i1l389
  7017  0087  3063               	movlw	99
  7018  0088  0086               	movwf	6
  7019  0089  3020               	movlw	32
  7020  008A  0087               	movwf	7
  7021  008B  315C               	addfsr 1,28
  7022  008C  304C               	movlw	76
  7023  008D  0601               	xorwf	1,w
  7024  008E  1D03               	btfss	3,2
  7025  008F  290A               	goto	i1l389
  7026  0090  3063               	movlw	99
  7027  0091  0086               	movwf	6
  7028  0092  3020               	movlw	32
  7029  0093  0087               	movwf	7
  7030  0094  315D               	addfsr 1,29
  7031  0095  3049               	movlw	73
  7032  0096  0601               	xorwf	1,w
  7033  0097  1D03               	btfss	3,2
  7034  0098  290A               	goto	i1l389
  7035                           
  7036                           ;usart.c: 94: {
  7037                           ;usart.c: 95: uint8_t ci=8;
  7038  0099  3008               	movlw	8
  7039  009A  00F0               	movwf	??_USARTHandleRxInt
  7040  009B  0870               	movf	??_USARTHandleRxInt,w
  7041  009C  00A2               	movwf	USARTHandleRxInt@ci
  7042                           
  7043                           ;usart.c: 96: while(SIM800L.buffer[ci]!='\"' && (ci-8)<15)
  7044  009D  28D2               	goto	i1l2580
  7045  009E                     i1l2574:	
  7046                           
  7047                           ;usart.c: 97: {
  7048                           ;usart.c: 98: SIM800L.cell[ci-8]=SIM800L.buffer[ci];
  7049  009E  0020               	movlb	0	; select bank0
  7050  009F  0822               	movf	USARTHandleRxInt@ci,w
  7051  00A0  00F0               	movwf	??_USARTHandleRxInt
  7052  00A1  01F1               	clrf	??_USARTHandleRxInt+1
  7053  00A2  307D               	movlw	125
  7054  00A3  00F2               	movwf	??_USARTHandleRxInt+2
  7055  00A4  3020               	movlw	32
  7056  00A5  00F3               	movwf	??_USARTHandleRxInt+3
  7057  00A6  0870               	movf	??_USARTHandleRxInt,w
  7058  00A7  0772               	addwf	??_USARTHandleRxInt+2,w
  7059  00A8  0086               	movwf	6
  7060  00A9  0871               	movf	??_USARTHandleRxInt+1,w
  7061  00AA  3D73               	addwfc	??_USARTHandleRxInt+3,w
  7062  00AB  0087               	movwf	7
  7063  00AC  0801               	movf	1,w
  7064  00AD  00F4               	movwf	??_USARTHandleRxInt+4
  7065  00AE  0822               	movf	USARTHandleRxInt@ci,w
  7066  00AF  3EF8               	addlw	248
  7067  00B0  00F5               	movwf	??_USARTHandleRxInt+5
  7068  00B1  30FF               	movlw	255
  7069  00B2  1803               	skipnc
  7070  00B3  3000               	movlw	0
  7071  00B4  00F6               	movwf	??_USARTHandleRxInt+6
  7072  00B5  3067               	movlw	103
  7073  00B6  00F7               	movwf	??_USARTHandleRxInt+7
  7074  00B7  3020               	movlw	32
  7075  00B8  00F8               	movwf	??_USARTHandleRxInt+8
  7076  00B9  0875               	movf	??_USARTHandleRxInt+5,w
  7077  00BA  0777               	addwf	??_USARTHandleRxInt+7,w
  7078  00BB  00F9               	movwf	??_USARTHandleRxInt+9
  7079  00BC  0876               	movf	??_USARTHandleRxInt+6,w
  7080  00BD  3D78               	addwfc	??_USARTHandleRxInt+8,w
  7081  00BE  00FA               	movwf	??_USARTHandleRxInt+10
  7082  00BF  0879               	movf	??_USARTHandleRxInt+9,w
  7083  00C0  0086               	movwf	6
  7084  00C1  087A               	movf	??_USARTHandleRxInt+10,w
  7085  00C2  0087               	movwf	7
  7086  00C3  0874               	movf	??_USARTHandleRxInt+4,w
  7087  00C4  0081               	movwf	1
  7088                           
  7089                           ;usart.c: 99: ci++;
  7090  00C5  3001               	movlw	1
  7091  00C6  00F0               	movwf	??_USARTHandleRxInt
  7092  00C7  0870               	movf	??_USARTHandleRxInt,w
  7093  00C8  07A2               	addwf	USARTHandleRxInt@ci,f
  7094                           
  7095                           ;usart.c: 100: SIM800L.cell_lenght++;
  7096  00C9  3001               	movlw	1
  7097  00CA  00F0               	movwf	??_USARTHandleRxInt
  7098  00CB  3063               	movlw	99
  7099  00CC  0086               	movwf	6
  7100  00CD  3020               	movlw	32
  7101  00CE  0087               	movwf	7
  7102  00CF  3153               	addfsr 1,19
  7103  00D0  0870               	movf	??_USARTHandleRxInt,w
  7104  00D1  0781               	addwf	1,f
  7105  00D2                     i1l2580:	
  7106  00D2  0822               	movf	USARTHandleRxInt@ci,w
  7107  00D3  00F0               	movwf	??_USARTHandleRxInt
  7108  00D4  01F1               	clrf	??_USARTHandleRxInt+1
  7109  00D5  307D               	movlw	125
  7110  00D6  00F2               	movwf	??_USARTHandleRxInt+2
  7111  00D7  3020               	movlw	32
  7112  00D8  00F3               	movwf	??_USARTHandleRxInt+3
  7113  00D9  0870               	movf	??_USARTHandleRxInt,w
  7114  00DA  0772               	addwf	??_USARTHandleRxInt+2,w
  7115  00DB  0086               	movwf	6
  7116  00DC  0871               	movf	??_USARTHandleRxInt+1,w
  7117  00DD  3D73               	addwfc	??_USARTHandleRxInt+3,w
  7118  00DE  0087               	movwf	7
  7119  00DF  3022               	movlw	34
  7120  00E0  0601               	xorwf	1,w
  7121  00E1  1903               	btfsc	3,2
  7122  00E2  28F5               	goto	i1l2584
  7123  00E3  0822               	movf	USARTHandleRxInt@ci,w
  7124  00E4  3EF8               	addlw	248
  7125  00E5  00F0               	movwf	??_USARTHandleRxInt
  7126  00E6  30FF               	movlw	255
  7127  00E7  1803               	skipnc
  7128  00E8  3000               	movlw	0
  7129  00E9  00F1               	movwf	??_USARTHandleRxInt+1
  7130  00EA  0871               	movf	??_USARTHandleRxInt+1,w
  7131  00EB  3A80               	xorlw	128
  7132  00EC  00F2               	movwf	??_USARTHandleRxInt+2
  7133  00ED  3080               	movlw	128
  7134  00EE  0272               	subwf	??_USARTHandleRxInt+2,w
  7135  00EF  1D03               	skipz
  7136  00F0  28F3               	goto	u205_25
  7137  00F1  300F               	movlw	15
  7138  00F2  0270               	subwf	??_USARTHandleRxInt,w
  7139  00F3                     u205_25:	
  7140  00F3  1C03               	skipc
  7141  00F4  289E               	goto	i1l2574
  7142  00F5                     i1l2584:	
  7143                           
  7144                           ;usart.c: 101: }
  7145                           ;usart.c: 102: SIM800L.cell[ci-8]='\0';
  7146  00F5  0020               	movlb	0	; select bank0
  7147  00F6  0822               	movf	USARTHandleRxInt@ci,w
  7148  00F7  3EF8               	addlw	248
  7149  00F8  00F0               	movwf	??_USARTHandleRxInt
  7150  00F9  30FF               	movlw	255
  7151  00FA  1803               	skipnc
  7152  00FB  3000               	movlw	0
  7153  00FC  00F1               	movwf	??_USARTHandleRxInt+1
  7154  00FD  3067               	movlw	103
  7155  00FE  00F2               	movwf	??_USARTHandleRxInt+2
  7156  00FF  3020               	movlw	32
  7157  0100  00F3               	movwf	??_USARTHandleRxInt+3
  7158  0101  0870               	movf	??_USARTHandleRxInt,w
  7159  0102  0772               	addwf	??_USARTHandleRxInt+2,w
  7160  0103  0086               	movwf	6
  7161  0104  0871               	movf	??_USARTHandleRxInt+1,w
  7162  0105  3D73               	addwfc	??_USARTHandleRxInt+3,w
  7163  0106  0087               	movwf	7
  7164  0107  0181               	clrf	1
  7165                           
  7166                           ;usart.c: 103: task=1;
  7167  0108  01DC               	clrf	_task
  7168  0109  0ADC               	incf	_task,f
  7169  010A                     i1l389:	
  7170                           
  7171                           ;usart.c: 104: }
  7172                           ;usart.c: 105: if(SIM800L.buffer[1]=='C' && SIM800L.buffer[2]=='M' && SIM800L.buffer[3]=
      +                          ='T' && SIM800L.buffer[4]=='I' )
  7173  010A  3063               	movlw	99
  7174  010B  0086               	movwf	6
  7175  010C  3020               	movlw	32
  7176  010D  0087               	movwf	7
  7177  010E  315B               	addfsr 1,27
  7178  010F  3043               	movlw	67
  7179  0110  0601               	xorwf	1,w
  7180  0111  1D03               	btfss	3,2
  7181  0112  299B               	goto	i1l2610
  7182  0113  3063               	movlw	99
  7183  0114  0086               	movwf	6
  7184  0115  3020               	movlw	32
  7185  0116  0087               	movwf	7
  7186  0117  315C               	addfsr 1,28
  7187  0118  304D               	movlw	77
  7188  0119  0601               	xorwf	1,w
  7189  011A  1D03               	btfss	3,2
  7190  011B  299B               	goto	i1l2610
  7191  011C  3063               	movlw	99
  7192  011D  0086               	movwf	6
  7193  011E  3020               	movlw	32
  7194  011F  0087               	movwf	7
  7195  0120  315D               	addfsr 1,29
  7196  0121  3054               	movlw	84
  7197  0122  0601               	xorwf	1,w
  7198  0123  1D03               	btfss	3,2
  7199  0124  299B               	goto	i1l2610
  7200  0125  3063               	movlw	99
  7201  0126  0086               	movwf	6
  7202  0127  3020               	movlw	32
  7203  0128  0087               	movwf	7
  7204  0129  315E               	addfsr 1,30
  7205  012A  3049               	movlw	73
  7206  012B  0601               	xorwf	1,w
  7207  012C  1D03               	btfss	3,2
  7208  012D  299B               	goto	i1l2610
  7209                           
  7210                           ;usart.c: 106: {
  7211                           ;usart.c: 107: uint8_t ci=12;
  7212  012E  300C               	movlw	12
  7213  012F  00F0               	movwf	??_USARTHandleRxInt
  7214  0130  0870               	movf	??_USARTHandleRxInt,w
  7215  0131  00A3               	movwf	USARTHandleRxInt@ci_559
  7216                           
  7217                           ;usart.c: 108: while(SIM800L.buffer[ci]>='0' && SIM800L.buffer[ci]<='9' )
  7218  0132  295D               	goto	i1l2600
  7219  0133                     i1l2596:	
  7220                           
  7221                           ;usart.c: 109: {
  7222                           ;usart.c: 110: SIM800L.smsmem[ci-12]=SIM800L.buffer[ci];
  7223  0133  0823               	movf	USARTHandleRxInt@ci_559,w
  7224  0134  00F0               	movwf	??_USARTHandleRxInt
  7225  0135  01F1               	clrf	??_USARTHandleRxInt+1
  7226  0136  307D               	movlw	125
  7227  0137  00F2               	movwf	??_USARTHandleRxInt+2
  7228  0138  3020               	movlw	32
  7229  0139  00F3               	movwf	??_USARTHandleRxInt+3
  7230  013A  0870               	movf	??_USARTHandleRxInt,w
  7231  013B  0772               	addwf	??_USARTHandleRxInt+2,w
  7232  013C  0086               	movwf	6
  7233  013D  0871               	movf	??_USARTHandleRxInt+1,w
  7234  013E  3D73               	addwfc	??_USARTHandleRxInt+3,w
  7235  013F  0087               	movwf	7
  7236  0140  0801               	movf	1,w
  7237  0141  00F4               	movwf	??_USARTHandleRxInt+4
  7238  0142  0823               	movf	USARTHandleRxInt@ci_559,w
  7239  0143  3EF4               	addlw	244
  7240  0144  00F5               	movwf	??_USARTHandleRxInt+5
  7241  0145  30FF               	movlw	255
  7242  0146  1803               	skipnc
  7243  0147  3000               	movlw	0
  7244  0148  00F6               	movwf	??_USARTHandleRxInt+6
  7245  0149  3078               	movlw	120
  7246  014A  00F7               	movwf	??_USARTHandleRxInt+7
  7247  014B  3020               	movlw	32
  7248  014C  00F8               	movwf	??_USARTHandleRxInt+8
  7249  014D  0875               	movf	??_USARTHandleRxInt+5,w
  7250  014E  0777               	addwf	??_USARTHandleRxInt+7,w
  7251  014F  00F9               	movwf	??_USARTHandleRxInt+9
  7252  0150  0876               	movf	??_USARTHandleRxInt+6,w
  7253  0151  3D78               	addwfc	??_USARTHandleRxInt+8,w
  7254  0152  00FA               	movwf	??_USARTHandleRxInt+10
  7255  0153  0879               	movf	??_USARTHandleRxInt+9,w
  7256  0154  0086               	movwf	6
  7257  0155  087A               	movf	??_USARTHandleRxInt+10,w
  7258  0156  0087               	movwf	7
  7259  0157  0874               	movf	??_USARTHandleRxInt+4,w
  7260  0158  0081               	movwf	1
  7261                           
  7262                           ;usart.c: 111: ci++;
  7263  0159  3001               	movlw	1
  7264  015A  00F0               	movwf	??_USARTHandleRxInt
  7265  015B  0870               	movf	??_USARTHandleRxInt,w
  7266  015C  07A3               	addwf	USARTHandleRxInt@ci_559,f
  7267  015D                     i1l2600:	
  7268  015D  0823               	movf	USARTHandleRxInt@ci_559,w
  7269  015E  00F0               	movwf	??_USARTHandleRxInt
  7270  015F  01F1               	clrf	??_USARTHandleRxInt+1
  7271  0160  307D               	movlw	125
  7272  0161  00F2               	movwf	??_USARTHandleRxInt+2
  7273  0162  3020               	movlw	32
  7274  0163  00F3               	movwf	??_USARTHandleRxInt+3
  7275  0164  0870               	movf	??_USARTHandleRxInt,w
  7276  0165  0772               	addwf	??_USARTHandleRxInt+2,w
  7277  0166  0086               	movwf	6
  7278  0167  0871               	movf	??_USARTHandleRxInt+1,w
  7279  0168  3D73               	addwfc	??_USARTHandleRxInt+3,w
  7280  0169  0087               	movwf	7
  7281  016A  3030               	movlw	48
  7282  016B  0201               	subwf	1,w
  7283  016C  1C03               	skipc
  7284  016D  297F               	goto	i1l2604
  7285  016E  0823               	movf	USARTHandleRxInt@ci_559,w
  7286  016F  00F0               	movwf	??_USARTHandleRxInt
  7287  0170  01F1               	clrf	??_USARTHandleRxInt+1
  7288  0171  307D               	movlw	125
  7289  0172  00F2               	movwf	??_USARTHandleRxInt+2
  7290  0173  3020               	movlw	32
  7291  0174  00F3               	movwf	??_USARTHandleRxInt+3
  7292  0175  0870               	movf	??_USARTHandleRxInt,w
  7293  0176  0772               	addwf	??_USARTHandleRxInt+2,w
  7294  0177  0086               	movwf	6
  7295  0178  0871               	movf	??_USARTHandleRxInt+1,w
  7296  0179  3D73               	addwfc	??_USARTHandleRxInt+3,w
  7297  017A  0087               	movwf	7
  7298  017B  303A               	movlw	58
  7299  017C  0201               	subwf	1,w
  7300  017D  1C03               	skipc
  7301  017E  2933               	goto	i1l2596
  7302  017F                     i1l2604:	
  7303                           
  7304                           ;usart.c: 112: }
  7305                           ;usart.c: 113: SIM800L.smsmem[ci-12]=0;
  7306  017F  0823               	movf	USARTHandleRxInt@ci_559,w
  7307  0180  3EF4               	addlw	244
  7308  0181  00F0               	movwf	??_USARTHandleRxInt
  7309  0182  30FF               	movlw	255
  7310  0183  1803               	skipnc
  7311  0184  3000               	movlw	0
  7312  0185  00F1               	movwf	??_USARTHandleRxInt+1
  7313  0186  3078               	movlw	120
  7314  0187  00F2               	movwf	??_USARTHandleRxInt+2
  7315  0188  3020               	movlw	32
  7316  0189  00F3               	movwf	??_USARTHandleRxInt+3
  7317  018A  0870               	movf	??_USARTHandleRxInt,w
  7318  018B  0772               	addwf	??_USARTHandleRxInt+2,w
  7319  018C  0086               	movwf	6
  7320  018D  0871               	movf	??_USARTHandleRxInt+1,w
  7321  018E  3D73               	addwfc	??_USARTHandleRxInt+3,w
  7322  018F  0087               	movwf	7
  7323  0190  0181               	clrf	1
  7324                           
  7325                           ;usart.c: 114: SIM800L.unreadsms=1;
  7326  0191  3077               	movlw	119
  7327  0192  0086               	movwf	6
  7328  0193  3020               	movlw	32
  7329  0194  0087               	movwf	7
  7330  0195  3001               	movlw	1
  7331  0196  0081               	movwf	1
  7332                           
  7333                           ;usart.c: 115: task=2;
  7334  0197  3002               	movlw	2
  7335  0198  00F0               	movwf	??_USARTHandleRxInt
  7336  0199  0870               	movf	??_USARTHandleRxInt,w
  7337  019A  00DC               	movwf	_task
  7338  019B                     i1l2610:	
  7339                           
  7340                           ;usart.c: 116: }
  7341                           ;usart.c: 117: if(SIM800L.buffer[1]=='C' && SIM800L.buffer[2]=='S' && SIM800L.buffer[3]=
      +                          ='Q')
  7342  019B  3063               	movlw	99
  7343  019C  0086               	movwf	6
  7344  019D  3020               	movlw	32
  7345  019E  0087               	movwf	7
  7346  019F  315B               	addfsr 1,27
  7347  01A0  3043               	movlw	67
  7348  01A1  0601               	xorwf	1,w
  7349  01A2  1D03               	btfss	3,2
  7350  01A3  2A0C               	goto	i1l401
  7351  01A4  3063               	movlw	99
  7352  01A5  0086               	movwf	6
  7353  01A6  3020               	movlw	32
  7354  01A7  0087               	movwf	7
  7355  01A8  315C               	addfsr 1,28
  7356  01A9  3053               	movlw	83
  7357  01AA  0601               	xorwf	1,w
  7358  01AB  1D03               	btfss	3,2
  7359  01AC  2A0C               	goto	i1l401
  7360  01AD  3063               	movlw	99
  7361  01AE  0086               	movwf	6
  7362  01AF  3020               	movlw	32
  7363  01B0  0087               	movwf	7
  7364  01B1  315D               	addfsr 1,29
  7365  01B2  3051               	movlw	81
  7366  01B3  0601               	xorwf	1,w
  7367  01B4  1D03               	btfss	3,2
  7368  01B5  2A0C               	goto	i1l401
  7369                           
  7370                           ;usart.c: 118: {
  7371                           ;usart.c: 119: uint8_t ci=6;
  7372  01B6  3006               	movlw	6
  7373  01B7  00F0               	movwf	??_USARTHandleRxInt
  7374  01B8  0870               	movf	??_USARTHandleRxInt,w
  7375  01B9  00A4               	movwf	USARTHandleRxInt@ci_560
  7376                           
  7377                           ;usart.c: 120: while(SIM800L.buffer[ci]!=',' && (ci)<8)
  7378  01BA  29E5               	goto	i1l2622
  7379  01BB                     i1l2618:	
  7380                           
  7381                           ;usart.c: 121: {
  7382                           ;usart.c: 122: SIM800L.csq[ci-6]=SIM800L.buffer[ci];
  7383  01BB  0824               	movf	USARTHandleRxInt@ci_560,w
  7384  01BC  00F0               	movwf	??_USARTHandleRxInt
  7385  01BD  01F1               	clrf	??_USARTHandleRxInt+1
  7386  01BE  307D               	movlw	125
  7387  01BF  00F2               	movwf	??_USARTHandleRxInt+2
  7388  01C0  3020               	movlw	32
  7389  01C1  00F3               	movwf	??_USARTHandleRxInt+3
  7390  01C2  0870               	movf	??_USARTHandleRxInt,w
  7391  01C3  0772               	addwf	??_USARTHandleRxInt+2,w
  7392  01C4  0086               	movwf	6
  7393  01C5  0871               	movf	??_USARTHandleRxInt+1,w
  7394  01C6  3D73               	addwfc	??_USARTHandleRxInt+3,w
  7395  01C7  0087               	movwf	7
  7396  01C8  0801               	movf	1,w
  7397  01C9  00F4               	movwf	??_USARTHandleRxInt+4
  7398  01CA  0824               	movf	USARTHandleRxInt@ci_560,w
  7399  01CB  3EFA               	addlw	250
  7400  01CC  00F5               	movwf	??_USARTHandleRxInt+5
  7401  01CD  30FF               	movlw	255
  7402  01CE  1803               	skipnc
  7403  01CF  3000               	movlw	0
  7404  01D0  00F6               	movwf	??_USARTHandleRxInt+6
  7405  01D1  30D6               	movlw	214
  7406  01D2  00F7               	movwf	??_USARTHandleRxInt+7
  7407  01D3  3020               	movlw	32
  7408  01D4  00F8               	movwf	??_USARTHandleRxInt+8
  7409  01D5  0875               	movf	??_USARTHandleRxInt+5,w
  7410  01D6  0777               	addwf	??_USARTHandleRxInt+7,w
  7411  01D7  00F9               	movwf	??_USARTHandleRxInt+9
  7412  01D8  0876               	movf	??_USARTHandleRxInt+6,w
  7413  01D9  3D78               	addwfc	??_USARTHandleRxInt+8,w
  7414  01DA  00FA               	movwf	??_USARTHandleRxInt+10
  7415  01DB  0879               	movf	??_USARTHandleRxInt+9,w
  7416  01DC  0086               	movwf	6
  7417  01DD  087A               	movf	??_USARTHandleRxInt+10,w
  7418  01DE  0087               	movwf	7
  7419  01DF  0874               	movf	??_USARTHandleRxInt+4,w
  7420  01E0  0081               	movwf	1
  7421                           
  7422                           ;usart.c: 123: ci++;
  7423  01E1  3001               	movlw	1
  7424  01E2  00F0               	movwf	??_USARTHandleRxInt
  7425  01E3  0870               	movf	??_USARTHandleRxInt,w
  7426  01E4  07A4               	addwf	USARTHandleRxInt@ci_560,f
  7427  01E5                     i1l2622:	
  7428  01E5  0824               	movf	USARTHandleRxInt@ci_560,w
  7429  01E6  00F0               	movwf	??_USARTHandleRxInt
  7430  01E7  01F1               	clrf	??_USARTHandleRxInt+1
  7431  01E8  307D               	movlw	125
  7432  01E9  00F2               	movwf	??_USARTHandleRxInt+2
  7433  01EA  3020               	movlw	32
  7434  01EB  00F3               	movwf	??_USARTHandleRxInt+3
  7435  01EC  0870               	movf	??_USARTHandleRxInt,w
  7436  01ED  0772               	addwf	??_USARTHandleRxInt+2,w
  7437  01EE  0086               	movwf	6
  7438  01EF  0871               	movf	??_USARTHandleRxInt+1,w
  7439  01F0  3D73               	addwfc	??_USARTHandleRxInt+3,w
  7440  01F1  0087               	movwf	7
  7441  01F2  302C               	movlw	44
  7442  01F3  0601               	xorwf	1,w
  7443  01F4  1903               	btfsc	3,2
  7444  01F5  29FA               	goto	i1l2626
  7445  01F6  3008               	movlw	8
  7446  01F7  0224               	subwf	USARTHandleRxInt@ci_560,w
  7447  01F8  1C03               	skipc
  7448  01F9  29BB               	goto	i1l2618
  7449  01FA                     i1l2626:	
  7450                           
  7451                           ;usart.c: 124: }
  7452                           ;usart.c: 125: SIM800L.csq[ci-6]=0;
  7453  01FA  0824               	movf	USARTHandleRxInt@ci_560,w
  7454  01FB  3EFA               	addlw	250
  7455  01FC  00F0               	movwf	??_USARTHandleRxInt
  7456  01FD  30FF               	movlw	255
  7457  01FE  1803               	skipnc
  7458  01FF  3000               	movlw	0
  7459  0200  00F1               	movwf	??_USARTHandleRxInt+1
  7460  0201  30D6               	movlw	214
  7461  0202  00F2               	movwf	??_USARTHandleRxInt+2
  7462  0203  3020               	movlw	32
  7463  0204  00F3               	movwf	??_USARTHandleRxInt+3
  7464  0205  0870               	movf	??_USARTHandleRxInt,w
  7465  0206  0772               	addwf	??_USARTHandleRxInt+2,w
  7466  0207  0086               	movwf	6
  7467  0208  0871               	movf	??_USARTHandleRxInt+1,w
  7468  0209  3D73               	addwfc	??_USARTHandleRxInt+3,w
  7469  020A  0087               	movwf	7
  7470  020B  0181               	clrf	1
  7471  020C                     i1l401:	
  7472                           
  7473                           ;usart.c: 126: }
  7474                           ;usart.c: 127: if(SIM800L.buffer[1]=='C' && SIM800L.buffer[2]=='M' && SIM800L.buffer[3]=
      +                          ='D')
  7475  020C  3063               	movlw	99
  7476  020D  0086               	movwf	6
  7477  020E  3020               	movlw	32
  7478  020F  0087               	movwf	7
  7479  0210  315B               	addfsr 1,27
  7480  0211  3043               	movlw	67
  7481  0212  0601               	xorwf	1,w
  7482  0213  1D03               	btfss	3,2
  7483  0214  2A98               	goto	i1l2650
  7484  0215  3063               	movlw	99
  7485  0216  0086               	movwf	6
  7486  0217  3020               	movlw	32
  7487  0218  0087               	movwf	7
  7488  0219  315C               	addfsr 1,28
  7489  021A  304D               	movlw	77
  7490  021B  0601               	xorwf	1,w
  7491  021C  1D03               	btfss	3,2
  7492  021D  2A98               	goto	i1l2650
  7493  021E  3063               	movlw	99
  7494  021F  0086               	movwf	6
  7495  0220  3020               	movlw	32
  7496  0221  0087               	movwf	7
  7497  0222  315D               	addfsr 1,29
  7498  0223  3044               	movlw	68
  7499  0224  0601               	xorwf	1,w
  7500  0225  1D03               	btfss	3,2
  7501  0226  2A98               	goto	i1l2650
  7502                           
  7503                           ;usart.c: 128: {
  7504                           ;usart.c: 129: uint8_t ci=4;
  7505  0227  3004               	movlw	4
  7506  0228  00F0               	movwf	??_USARTHandleRxInt
  7507  0229  0870               	movf	??_USARTHandleRxInt,w
  7508  022A  00A1               	movwf	USARTHandleRxInt@ci_561
  7509                           
  7510                           ;usart.c: 130: while(SIM800L.buffer[ci]!='#' && (ci-4)<25)
  7511  022B  2A57               	goto	i1l2638
  7512  022C                     i1l2634:	
  7513                           
  7514                           ;usart.c: 131: {
  7515                           ;usart.c: 132: SIM800L.command[ci-4]=SIM800L.buffer[ci];
  7516  022C  0020               	movlb	0	; select bank0
  7517  022D  0821               	movf	USARTHandleRxInt@ci_561,w
  7518  022E  00F0               	movwf	??_USARTHandleRxInt
  7519  022F  01F1               	clrf	??_USARTHandleRxInt+1
  7520  0230  307D               	movlw	125
  7521  0231  00F2               	movwf	??_USARTHandleRxInt+2
  7522  0232  3020               	movlw	32
  7523  0233  00F3               	movwf	??_USARTHandleRxInt+3
  7524  0234  0870               	movf	??_USARTHandleRxInt,w
  7525  0235  0772               	addwf	??_USARTHandleRxInt+2,w
  7526  0236  0086               	movwf	6
  7527  0237  0871               	movf	??_USARTHandleRxInt+1,w
  7528  0238  3D73               	addwfc	??_USARTHandleRxInt+3,w
  7529  0239  0087               	movwf	7
  7530  023A  0801               	movf	1,w
  7531  023B  00F4               	movwf	??_USARTHandleRxInt+4
  7532  023C  0821               	movf	USARTHandleRxInt@ci_561,w
  7533  023D  3EFC               	addlw	252
  7534  023E  00F5               	movwf	??_USARTHandleRxInt+5
  7535  023F  30FF               	movlw	255
  7536  0240  1803               	skipnc
  7537  0241  3000               	movlw	0
  7538  0242  00F6               	movwf	??_USARTHandleRxInt+6
  7539  0243  30BD               	movlw	189
  7540  0244  00F7               	movwf	??_USARTHandleRxInt+7
  7541  0245  3020               	movlw	32
  7542  0246  00F8               	movwf	??_USARTHandleRxInt+8
  7543  0247  0875               	movf	??_USARTHandleRxInt+5,w
  7544  0248  0777               	addwf	??_USARTHandleRxInt+7,w
  7545  0249  00F9               	movwf	??_USARTHandleRxInt+9
  7546  024A  0876               	movf	??_USARTHandleRxInt+6,w
  7547  024B  3D78               	addwfc	??_USARTHandleRxInt+8,w
  7548  024C  00FA               	movwf	??_USARTHandleRxInt+10
  7549  024D  0879               	movf	??_USARTHandleRxInt+9,w
  7550  024E  0086               	movwf	6
  7551  024F  087A               	movf	??_USARTHandleRxInt+10,w
  7552  0250  0087               	movwf	7
  7553  0251  0874               	movf	??_USARTHandleRxInt+4,w
  7554  0252  0081               	movwf	1
  7555                           
  7556                           ;usart.c: 133: ci++;
  7557  0253  3001               	movlw	1
  7558  0254  00F0               	movwf	??_USARTHandleRxInt
  7559  0255  0870               	movf	??_USARTHandleRxInt,w
  7560  0256  07A1               	addwf	USARTHandleRxInt@ci_561,f
  7561  0257                     i1l2638:	
  7562  0257  0821               	movf	USARTHandleRxInt@ci_561,w
  7563  0258  00F0               	movwf	??_USARTHandleRxInt
  7564  0259  01F1               	clrf	??_USARTHandleRxInt+1
  7565  025A  307D               	movlw	125
  7566  025B  00F2               	movwf	??_USARTHandleRxInt+2
  7567  025C  3020               	movlw	32
  7568  025D  00F3               	movwf	??_USARTHandleRxInt+3
  7569  025E  0870               	movf	??_USARTHandleRxInt,w
  7570  025F  0772               	addwf	??_USARTHandleRxInt+2,w
  7571  0260  0086               	movwf	6
  7572  0261  0871               	movf	??_USARTHandleRxInt+1,w
  7573  0262  3D73               	addwfc	??_USARTHandleRxInt+3,w
  7574  0263  0087               	movwf	7
  7575  0264  3023               	movlw	35
  7576  0265  0601               	xorwf	1,w
  7577  0266  1903               	btfsc	3,2
  7578  0267  2A7A               	goto	i1l2642
  7579  0268  0821               	movf	USARTHandleRxInt@ci_561,w
  7580  0269  3EFC               	addlw	252
  7581  026A  00F0               	movwf	??_USARTHandleRxInt
  7582  026B  30FF               	movlw	255
  7583  026C  1803               	skipnc
  7584  026D  3000               	movlw	0
  7585  026E  00F1               	movwf	??_USARTHandleRxInt+1
  7586  026F  0871               	movf	??_USARTHandleRxInt+1,w
  7587  0270  3A80               	xorlw	128
  7588  0271  00F2               	movwf	??_USARTHandleRxInt+2
  7589  0272  3080               	movlw	128
  7590  0273  0272               	subwf	??_USARTHandleRxInt+2,w
  7591  0274  1D03               	skipz
  7592  0275  2A78               	goto	u221_25
  7593  0276  3019               	movlw	25
  7594  0277  0270               	subwf	??_USARTHandleRxInt,w
  7595  0278                     u221_25:	
  7596  0278  1C03               	skipc
  7597  0279  2A2C               	goto	i1l2634
  7598  027A                     i1l2642:	
  7599                           
  7600                           ;usart.c: 134: }
  7601                           ;usart.c: 135: task=3;
  7602  027A  3003               	movlw	3
  7603  027B  00F0               	movwf	??_USARTHandleRxInt
  7604  027C  0870               	movf	??_USARTHandleRxInt,w
  7605  027D  0020               	movlb	0	; select bank0
  7606  027E  00DC               	movwf	_task
  7607                           
  7608                           ;usart.c: 136: }
  7609                           ;usart.c: 137: }
  7610  027F  2A98               	goto	i1l2650
  7611  0280                     i1l2644:	
  7612                           
  7613                           ;usart.c: 138: else if(SIM800L.buffer[0]=='O' && SIM800L.buffer[1]=='K') SIM800L.ok=1;
  7614  0280  3063               	movlw	99
  7615  0281  0086               	movwf	6
  7616  0282  3020               	movlw	32
  7617  0283  0087               	movwf	7
  7618  0284  315A               	addfsr 1,26
  7619  0285  304F               	movlw	79
  7620  0286  0601               	xorwf	1,w
  7621  0287  1D03               	btfss	3,2
  7622  0288  2A98               	goto	i1l2650
  7623  0289  3063               	movlw	99
  7624  028A  0086               	movwf	6
  7625  028B  3020               	movlw	32
  7626  028C  0087               	movwf	7
  7627  028D  315B               	addfsr 1,27
  7628  028E  304B               	movlw	75
  7629  028F  0601               	xorwf	1,w
  7630  0290  1D03               	btfss	3,2
  7631  0291  2A98               	goto	i1l2650
  7632  0292  3065               	movlw	101
  7633  0293  0086               	movwf	6
  7634  0294  3020               	movlw	32
  7635  0295  0087               	movwf	7
  7636  0296  3001               	movlw	1
  7637  0297  0081               	movwf	1
  7638  0298                     i1l2650:	
  7639                           
  7640                           ;usart.c: 139: bufque=0;
  7641  0298  01DA               	clrf	_bufque
  7642  0299                     i1l2652:	
  7643                           
  7644                           ;usart.c: 140: }
  7645                           ;usart.c: 141: SIM800L.busy=0;
  7646  0299  3063               	movlw	99
  7647  029A  0086               	movwf	6
  7648  029B  3020               	movlw	32
  7649  029C  0087               	movwf	7
  7650  029D  3000               	movlw	0
  7651  029E  3FC0               	movwi [0]fsr1
  7652                           
  7653                           ;usart.c: 142: break;
  7654  029F  2AC4               	goto	i1l384
  7655  02A0                     i1l2654:	
  7656                           ;usart.c: 143: default:
  7657                           
  7658                           
  7659                           ;usart.c: 144: if(bufque<(64-1))
  7660  02A0  303F               	movlw	63
  7661  02A1  025A               	subwf	_bufque,w
  7662  02A2  1803               	skipnc
  7663  02A3  2AC4               	goto	i1l384
  7664                           
  7665                           ;usart.c: 145: {
  7666                           ;usart.c: 146: SIM800L.buffer[bufque]=data;
  7667  02A4  085A               	movf	_bufque,w
  7668  02A5  00F0               	movwf	??_USARTHandleRxInt
  7669  02A6  01F1               	clrf	??_USARTHandleRxInt+1
  7670  02A7  307D               	movlw	125
  7671  02A8  00F2               	movwf	??_USARTHandleRxInt+2
  7672  02A9  3020               	movlw	32
  7673  02AA  00F3               	movwf	??_USARTHandleRxInt+3
  7674  02AB  0870               	movf	??_USARTHandleRxInt,w
  7675  02AC  0772               	addwf	??_USARTHandleRxInt+2,w
  7676  02AD  00F4               	movwf	??_USARTHandleRxInt+4
  7677  02AE  0871               	movf	??_USARTHandleRxInt+1,w
  7678  02AF  3D73               	addwfc	??_USARTHandleRxInt+3,w
  7679  02B0  00F5               	movwf	??_USARTHandleRxInt+5
  7680  02B1  0874               	movf	??_USARTHandleRxInt+4,w
  7681  02B2  0086               	movwf	6
  7682  02B3  0875               	movf	??_USARTHandleRxInt+5,w
  7683  02B4  0087               	movwf	7
  7684  02B5  0820               	movf	USARTHandleRxInt@data,w
  7685  02B6  0081               	movwf	1
  7686                           
  7687                           ;usart.c: 147: bufque++;
  7688  02B7  3001               	movlw	1
  7689  02B8  00F0               	movwf	??_USARTHandleRxInt
  7690  02B9  0870               	movf	??_USARTHandleRxInt,w
  7691  02BA  07DA               	addwf	_bufque,f
  7692                           
  7693                           ;usart.c: 150: }
  7694                           
  7695                           ;usart.c: 148: }
  7696                           ;usart.c: 149: break;
  7697  02BB  2AC4               	goto	i1l384
  7698  02BC                     i1l2662:	
  7699  02BC  0820               	movf	USARTHandleRxInt@data,w
  7700                           
  7701                           ; Switch size 1, requested type "space"
  7702                           ; Number of cases is 2, Range of values is 10 to 13
  7703                           ; switch strategies available:
  7704                           ; Name         Instructions Cycles
  7705                           ; simple_byte            7     4 (average)
  7706                           ; direct_byte           17     9 (fixed)
  7707                           ; jumptable            263     9 (fixed)
  7708                           ;	Chosen strategy is simple_byte
  7709  02BD  3A0A               	xorlw	10	; case 10
  7710  02BE  1903               	skipnz
  7711  02BF  2852               	goto	i1l2556
  7712  02C0  3A07               	xorlw	7	; case 13
  7713  02C1  1903               	skipnz
  7714  02C2  2840               	goto	i1l2550
  7715  02C3  2AA0               	goto	i1l2654
  7716  02C4                     i1l384:	
  7717                           
  7718                           ;usart.c: 151: LATCbits.LATC0=0;
  7719  02C4  0022               	movlb	2	; select bank2
  7720  02C5  100E               	bcf	14,0	;volatile
  7721  02C6  0008               	return
  7722  02C7                     __end_of_USARTHandleRxInt:	
  7723  007E                     btemp	set	126	;btemp
  7724  007E                     int$flags	set	126
  7725  007E                     wtemp	set	126
  7726  007E                     wtemp0	set	126
  7727  0080                     wtemp1	set	128
  7728  0082                     wtemp2	set	130
  7729  0084                     wtemp3	set	132
  7730  0086                     wtemp4	set	134
  7731  0088                     wtemp5	set	136
  7732  007F                     wtemp6	set	127
  7733  007E                     ttemp	set	126
  7734  007E                     ttemp0	set	126
  7735  0081                     ttemp1	set	129
  7736  0084                     ttemp2	set	132
  7737  0087                     ttemp3	set	135
  7738  007F                     ttemp4	set	127
  7739  007E                     ltemp	set	126
  7740  007E                     ltemp0	set	126
  7741  0082                     ltemp1	set	130
  7742  0086                     ltemp2	set	134
  7743  0080                     ltemp3	set	128


Data Sizes:
    Strings     208
    Constant    0
    Data        0
    BSS         16
    Persistent  0
    Stack       0

Auto Spaces:
    Space          Size  Autos    Used
    COMMON           14     12      12
    BANK0            80     49      65
    BANK1            19      0       0
    BANK2             0      0       0

Pointer List with Targets:

    USARTWriteLine@str	PTR const unsigned char  size(2) Largest target is 14
		 -> STR_22(CODE[6]), STR_21(CODE[9]), STR_12(CODE[9]), STR_10(CODE[9]), 
		 -> STR_9(CODE[14]), STR_7(CODE[10]), STR_6(CODE[14]), STR_5(CODE[5]), 
		 -> STR_4(CODE[12]), STR_3(CODE[7]), STR_2(CODE[5]), STR_1(CODE[3]), 

    USARTWriteString@str	PTR const unsigned char  size(2) Largest target is 125
		 -> STR_24(CODE[2]), STR_23(CODE[2]), STR_22(CODE[6]), STR_21(CODE[9]), 
		 -> STR_20(CODE[15]), STR_19(CODE[11]), SIM800L.smsmem(BIGRAM[5]), STR_16(CODE[29]), 
		 -> STR_15(CODE[26]), STR_14(CODE[27]), SIM800L.cell(BIGRAM[15]), SIM800L(BIGRAM[125]), 
		 -> STR_13(CODE[3]), STR_12(CODE[9]), STR_11(CODE[3]), STR_10(CODE[9]), 
		 -> STR_9(CODE[14]), STR_8(CODE[4]), STR_7(CODE[10]), STR_6(CODE[14]), 
		 -> STR_5(CODE[5]), STR_4(CODE[12]), STR_3(CODE[7]), STR_2(CODE[5]), 
		 -> STR_1(CODE[3]), 

    SIM800DeleteSms@flag	PTR const unsigned char  size(2) Largest target is 2
		 -> STR_24(CODE[2]), 

    SIM800DeleteSms@index	PTR const unsigned char  size(2) Largest target is 2
		 -> STR_23(CODE[2]), 

    SIM800ReadSms@mem	PTR const unsigned char  size(2) Largest target is 125
		 -> SIM800L.smsmem(BIGRAM[5]), SIM800L(BIGRAM[125]), 

    SIM800SendSms@msg	PTR const unsigned char  size(2) Largest target is 29
		 -> STR_20(CODE[15]), STR_16(CODE[29]), STR_15(CODE[26]), STR_14(CODE[27]), 

    SIM800SendSms@nmbr	PTR const unsigned char  size(2) Largest target is 125
		 -> STR_19(CODE[11]), SIM800L.cell(BIGRAM[15]), SIM800L(BIGRAM[125]), 

    EEPROMCheckPassword@pass	PTR const unsigned char  size(2) Largest target is 125
		 -> password_empty(BANK0[4]), SIM800L.command(BIGRAM[25]), SIM800L(BIGRAM[125]), 

    EEPROMUpdatePassword@pass	PTR const unsigned char  size(2) Largest target is 125
		 -> STR_18(CODE[5]), SIM800L.password(BIGRAM[5]), STR_17(CODE[5]), SIM800L(BIGRAM[125]), 

    EEPROMAdd@nmbr	PTR const unsigned char  size(2) Largest target is 125
		 -> SIM800L.cell(BIGRAM[15]), SIM800L(BIGRAM[125]), 

    EEPROMSearchNumber@nmbr	PTR const unsigned char  size(2) Largest target is 125
		 -> SIM800L.cell(BIGRAM[15]), SIM800L(BIGRAM[125]), 

    EEPROMSaveNumber@nmbr	PTR const unsigned char  size(2) Largest target is 125
		 -> SIM800L.cell(BIGRAM[15]), SIM800L(BIGRAM[125]), 


Critical Paths under _main in COMMON

    None.

Critical Paths under _ISR in COMMON

    _ISR->_USARTHandleRxInt

Critical Paths under _main in BANK0

    _main->_SIM800Command
    _SIM800init->_USARTWriteLine
    _SIM800ReadSms->_USARTWriteLine
    _SIM800DeleteSms->_USARTWriteLine
    _SIM800Command->_EEPROMAdd
    _SIM800SendSms->_USARTWriteLine
    _USARTWriteLine->_USARTWriteString
    _USARTWriteString->_USARTWriteChar
    _EEPROMUpdatePassword->_EepromWrite
    _EEPROMSearchNumber->_EepromRead
    _EEPROMEraseAll->_EepromWrite
    _EEPROMDeleteNumber->___wmul
    _EEPROMCheckPassword->_EepromRead
    _EEPROMAdd->_EEPROMSaveNumber
    _EepromRead->___wmul
    _EEPROMSaveNumber->___wmul
    _EepromWrite->_I2CSend

Critical Paths under _ISR in BANK0

    _ISR->_USARTHandleRxInt

Critical Paths under _main in BANK1

    None.

Critical Paths under _ISR in BANK1

    None.

Critical Paths under _main in BANK2

    None.

Critical Paths under _ISR in BANK2

    None.

Call Graph Tables:

 ---------------------------------------------------------------------------------
 (Depth) Function   	        Calls       Base Space   Used Autos Params    Refs
 ---------------------------------------------------------------------------------
 (0) _main                                                 3     3      0   27442
                                             46 BANK0      3     3      0
                _EEPROMCheckPassword
                 _EEPROMSearchNumber
               _EEPROMUpdatePassword
                   _GPIOBlueLedBlink
                  _GPIOGreenLedBlink
                       _GPIOPortInit
                    _GPIORedLedBlink
                            _I2CInit
                      _SIM800Command
                    _SIM800DeleteSms
                       _SIM800LClear
                      _SIM800ReadSms
                      _SIM800SendSms
                         _SIM800init
                         _SYSTEMInit
                          _USARTInit
                     _USARTWriteLine
 ---------------------------------------------------------------------------------
 (1) _USARTInit                                            2     0      2      86
                                              5 BANK0      2     0      2
 ---------------------------------------------------------------------------------
 (1) _SYSTEMInit                                           1     1      0      22
                                              5 BANK0      1     1      0
 ---------------------------------------------------------------------------------
 (1) _SIM800init                                           3     3      0    1455
                                             11 BANK0      3     3      0
                     _USARTWriteLine
 ---------------------------------------------------------------------------------
 (1) _SIM800ReadSms                                        5     3      2    2184
                                             11 BANK0      5     3      2
                     _USARTWriteLine
                   _USARTWriteString
 ---------------------------------------------------------------------------------
 (1) _SIM800LClear                                         5     5      0     204
                                              5 BANK0      5     5      0
 ---------------------------------------------------------------------------------
 (1) _SIM800DeleteSms                                      7     3      4    2292
                                             11 BANK0      7     3      4
                     _USARTWriteChar
                     _USARTWriteLine
                   _USARTWriteString
 ---------------------------------------------------------------------------------
 (1) _SIM800Command                                       12    12      0   13227
                                             34 BANK0     12    12      0
                          _EEPROMAdd
                _EEPROMCheckPassword
                 _EEPROMDeleteNumber
                     _EEPROMEraseAll
                 _EEPROMSearchNumber
               _EEPROMUpdatePassword
                    _GPIORedLedBlink
                      _SIM800SendSms
 ---------------------------------------------------------------------------------
 (1) _SIM800SendSms                                        7     3      4    2676
                                             11 BANK0      7     3      4
                     _USARTWriteChar
                     _USARTWriteLine
                   _USARTWriteString
 ---------------------------------------------------------------------------------
 (1) _USARTWriteLine                                       2     0      2    1455
                                              9 BANK0      2     0      2
                     _USARTWriteChar
                   _USARTWriteString
 ---------------------------------------------------------------------------------
 (2) _USARTWriteString                                     3     1      2     643
                                              6 BANK0      3     1      2
                     _USARTWriteChar
 ---------------------------------------------------------------------------------
 (3) _USARTWriteChar                                       1     1      0      22
                                              5 BANK0      1     1      0
 ---------------------------------------------------------------------------------
 (2) _GPIORedLedBlink                                      5     5      0      47
                                              5 BANK0      5     5      0
 ---------------------------------------------------------------------------------
 (2) _EEPROMUpdatePassword                                 5     3      2    1392
                                              9 BANK0      5     3      2
                        _EepromWrite
 ---------------------------------------------------------------------------------
 (2) _EEPROMSearchNumber                                  15    12      3    1531
                                             15 BANK0     15    12      3
                         _EepromRead
                            ___lwdiv
 ---------------------------------------------------------------------------------
 (3) ___lwdiv                                              8     4      4     290
                                              5 BANK0      8     4      4
 ---------------------------------------------------------------------------------
 (2) _EEPROMEraseAll                                       4     4      0    1180
                                              9 BANK0      4     4      0
                        _EepromWrite
 ---------------------------------------------------------------------------------
 (2) _EEPROMDeleteNumber                                   7     5      2    1895
                                             11 BANK0      7     5      2
                        _EepromWrite
                             ___wmul
 ---------------------------------------------------------------------------------
 (2) _EEPROMCheckPassword                                  3     1      2     777
                                             15 BANK0      3     1      2
                         _EepromRead
 ---------------------------------------------------------------------------------
 (2) _EEPROMAdd                                            9     6      3    3684
                                             25 BANK0      9     6      3
                   _EEPROMSaveNumber
                         _EepromRead
                             ___wmul
 ---------------------------------------------------------------------------------
 (3) _EepromRead                                           4     2      2     561
                                             11 BANK0      4     2      2
                             _I2CNak
                            _I2CRead
                         _I2CRestart
                            _I2CSend
                           _I2CStart
                            _I2CStop
                             ___wmul (ARG)
 ---------------------------------------------------------------------------------
 (4) _I2CRestart                                           0     0      0       0
 ---------------------------------------------------------------------------------
 (4) _I2CRead                                              2     2      0      23
                                              5 BANK0      2     2      0
                            _I2CWait
 ---------------------------------------------------------------------------------
 (4) _I2CNak                                               0     0      0       0
 ---------------------------------------------------------------------------------
 (3) _EEPROMSaveNumber                                    14     9      5    2209
                                             11 BANK0     14     9      5
                        _EepromWrite
                             ___wmul
 ---------------------------------------------------------------------------------
 (3) ___wmul                                               6     2      4     604
                                              5 BANK0      6     2      4
 ---------------------------------------------------------------------------------
 (3) _EepromWrite                                          3     0      3    1112
                                              6 BANK0      3     0      3
                            _I2CSend
                           _I2CStart
                            _I2CStop
 ---------------------------------------------------------------------------------
 (4) _I2CStop                                              0     0      0       0
 ---------------------------------------------------------------------------------
 (4) _I2CStart                                             0     0      0       0
 ---------------------------------------------------------------------------------
 (4) _I2CSend                                              1     1      0      22
                                              5 BANK0      1     1      0
                            _I2CWait
 ---------------------------------------------------------------------------------
 (5) _I2CWait                                              0     0      0       0
 ---------------------------------------------------------------------------------
 (1) _I2CInit                                              0     0      0       0
 ---------------------------------------------------------------------------------
 (1) _GPIOPortInit                                         0     0      0       0
 ---------------------------------------------------------------------------------
 (1) _GPIOGreenLedBlink                                    5     5      0      47
                                              5 BANK0      5     5      0
 ---------------------------------------------------------------------------------
 (1) _GPIOBlueLedBlink                                     5     5      0      47
                                              5 BANK0      5     5      0
 ---------------------------------------------------------------------------------
 Estimated maximum stack depth 5
 ---------------------------------------------------------------------------------
 (Depth) Function   	        Calls       Base Space   Used Autos Params    Refs
 ---------------------------------------------------------------------------------
 (7) _ISR                                                  1     1      0     471
                                             11 COMMON     1     1      0
                   _USARTHandleRxInt
 ---------------------------------------------------------------------------------
 (8) _USARTHandleRxInt                                    16    16      0     471
                                              0 COMMON    11    11      0
                                              0 BANK0      5     5      0
 ---------------------------------------------------------------------------------
 Estimated maximum stack depth 8
 ---------------------------------------------------------------------------------

 Call Graph Graphs:

 _main (ROOT)
   _EEPROMCheckPassword
     _EepromRead
       _I2CNak
       _I2CRead
         _I2CWait
       _I2CRestart
       _I2CSend
         _I2CWait
       _I2CStart
       _I2CStop
       ___wmul (ARG)
   _EEPROMSearchNumber
     _EepromRead
       _I2CNak
       _I2CRead
         _I2CWait
       _I2CRestart
       _I2CSend
         _I2CWait
       _I2CStart
       _I2CStop
       ___wmul (ARG)
     ___lwdiv
   _EEPROMUpdatePassword
     _EepromWrite
       _I2CSend
         _I2CWait
       _I2CStart
       _I2CStop
   _GPIOBlueLedBlink
   _GPIOGreenLedBlink
   _GPIOPortInit
   _GPIORedLedBlink
   _I2CInit
   _SIM800Command
     _EEPROMAdd
       _EEPROMSaveNumber
         _EepromWrite
           _I2CSend
             _I2CWait
           _I2CStart
           _I2CStop
         ___wmul
       _EepromRead
         _I2CNak
         _I2CRead
           _I2CWait
         _I2CRestart
         _I2CSend
           _I2CWait
         _I2CStart
         _I2CStop
         ___wmul (ARG)
       ___wmul
     _EEPROMCheckPassword
       _EepromRead
         _I2CNak
         _I2CRead
           _I2CWait
         _I2CRestart
         _I2CSend
           _I2CWait
         _I2CStart
         _I2CStop
         ___wmul (ARG)
     _EEPROMDeleteNumber
       _EepromWrite
         _I2CSend
           _I2CWait
         _I2CStart
         _I2CStop
       ___wmul
     _EEPROMEraseAll
       _EepromWrite
         _I2CSend
           _I2CWait
         _I2CStart
         _I2CStop
     _EEPROMSearchNumber
       _EepromRead
         _I2CNak
         _I2CRead
           _I2CWait
         _I2CRestart
         _I2CSend
           _I2CWait
         _I2CStart
         _I2CStop
         ___wmul (ARG)
       ___lwdiv
     _EEPROMUpdatePassword
       _EepromWrite
         _I2CSend
           _I2CWait
         _I2CStart
         _I2CStop
     _GPIORedLedBlink
     _SIM800SendSms
       _USARTWriteChar
       _USARTWriteLine
         _USARTWriteChar
         _USARTWriteString
           _USARTWriteChar
       _USARTWriteString
         _USARTWriteChar
   _SIM800DeleteSms
     _USARTWriteChar
     _USARTWriteLine
       _USARTWriteChar
       _USARTWriteString
         _USARTWriteChar
     _USARTWriteString
       _USARTWriteChar
   _SIM800LClear
   _SIM800ReadSms
     _USARTWriteLine
       _USARTWriteChar
       _USARTWriteString
         _USARTWriteChar
     _USARTWriteString
       _USARTWriteChar
   _SIM800SendSms
     _USARTWriteChar
     _USARTWriteLine
       _USARTWriteChar
       _USARTWriteString
         _USARTWriteChar
     _USARTWriteString
       _USARTWriteChar
   _SIM800init
     _USARTWriteLine
       _USARTWriteChar
       _USARTWriteString
         _USARTWriteChar
   _SYSTEMInit
   _USARTInit
   _USARTWriteLine
     _USARTWriteChar
     _USARTWriteString
       _USARTWriteChar

 _ISR (ROOT)
   _USARTHandleRxInt

 Address spaces:
Name               Size   Autos  Total    Cost      Usage
BIGRAM              E0      0       0       0        0.0%
EEDATA             100      0       0       0        0.0%
NULL                 0      0       0       0        0.0%
CODE                 0      0       0       0        0.0%
BITCOMMON            E      0       0       1        0.0%
BITSFR0              0      0       0       1        0.0%
SFR0                 0      0       0       1        0.0%
COMMON               E      C       C       2       85.7%
BITSFR1              0      0       0       2        0.0%
SFR1                 0      0       0       2        0.0%
BITSFR2              0      0       0       3        0.0%
SFR2                 0      0       0       3        0.0%
STACK                0      0       0       3        0.0%
BITSFR3              0      0       0       4        0.0%
SFR3                 0      0       0       4        0.0%
ABS                  0      0      4D       4        0.0%
BITBANK0            50      0       0       5        0.0%
BITSFR4              0      0       0       5        0.0%
SFR4                 0      0       0       5        0.0%
BANK0               50     31      41       6       81.3%
BITSFR5              0      0       0       6        0.0%
SFR5                 0      0       0       6        0.0%
BITBANK1            50      0       0       7        0.0%
BITSFR6              0      0       0       7        0.0%
SFR6                 0      0       0       7        0.0%
BANK1               13      0       0       8        0.0%
BITSFR7              0      0       0       8        0.0%
SFR7                 0      0       0       8        0.0%
BITBANK2            40      0       0       9        0.0%
BITSFR8              0      0       0       9        0.0%
SFR8                 0      0       0       9        0.0%
BITSFR9              0      0       0      10        0.0%
SFR9                 0      0       0      10        0.0%
BANK2                0      0       0      10        0.0%
BITSFR10             0      0       0      11        0.0%
SFR10                0      0       0      11        0.0%
DATA                 0      0      4D      11        0.0%
BITSFR11             0      0       0      12        0.0%
SFR11                0      0       0      12        0.0%
BITSFR12             0      0       0      13        0.0%
SFR12                0      0       0      13        0.0%
BITSFR13             0      0       0      14        0.0%
SFR13                0      0       0      14        0.0%
BITSFR14             0      0       0      15        0.0%
SFR14                0      0       0      15        0.0%
BITSFR15             0      0       0      16        0.0%
SFR15                0      0       0      16        0.0%
BITSFR16             0      0       0      17        0.0%
SFR16                0      0       0      17        0.0%
BITSFR17             0      0       0      18        0.0%
SFR17                0      0       0      18        0.0%
BITSFR18             0      0       0      19        0.0%
SFR18                0      0       0      19        0.0%
BITSFR19             0      0       0      20        0.0%
SFR19                0      0       0      20        0.0%
BITSFR20             0      0       0      21        0.0%
SFR20                0      0       0      21        0.0%
BITSFR21             0      0       0      22        0.0%
SFR21                0      0       0      22        0.0%
BITSFR22             0      0       0      23        0.0%
SFR22                0      0       0      23        0.0%
BITSFR23             0      0       0      24        0.0%
SFR23                0      0       0      24        0.0%
BITSFR24             0      0       0      25        0.0%
SFR24                0      0       0      25        0.0%
BITSFR25             0      0       0      26        0.0%
SFR25                0      0       0      26        0.0%
BITSFR26             0      0       0      27        0.0%
SFR26                0      0       0      27        0.0%
BITSFR27             0      0       0      28        0.0%
SFR27                0      0       0      28        0.0%
BITSFR28             0      0       0      29        0.0%
SFR28                0      0       0      29        0.0%
BITSFR29             0      0       0      30        0.0%
SFR29                0      0       0      30        0.0%
BITSFR30             0      0       0      31        0.0%
SFR30                0      0       0      31        0.0%
BITSFR31             0      0       0      32        0.0%
SFR31                0      0       0      32        0.0%


Microchip Technology PIC Macro Assembler V1.38 build -256452561 
Symbol Table                                                                                   Wed Jan 04 10:15:25 2017

      EEPROMCheckPassword@pass 002F                     __CFG_CP$ON 0000                              _i 005B  
                           _BF 10A0                             l78 0718                    __CFG_CPD$ON 0000  
      __size_of_EEPROMEraseAll 0025            ___wmul@multiplicand 0027             USARTInit@baud_rate 0025  
  __size_of_EEPROMSearchNumber 0083            __size_of_I2CRestart 0005                    __CFG_LVP$ON 0000  
__size_of_EEPROMUpdatePassword 007E                            l100 0D47                            l317 0BD7  
                          l506 07FC                            l524 0B3C                            l518 0B1E  
                          l366 0B13                            l358 0D9F                            l482 0AFC  
                          l494 0B06                            l591 054C                            l488 0B01  
                          l686 0BA4                            l598 05BF                            _GIE 005F  
                          _PEN 10B2                            _ISR 0004                            _SEN 10B0  
              __end_of_I2CInit 0B2E                __end_of_I2CRead 0B48                __end_of_I2CSend 0B23  
              __end_of_I2CWait 0B11                __end_of_I2CStop 0B04                   __CFG_BORV$LO 0000  
                          wreg 0009                   __CFG_IESO$ON 0000             __size_of_EEPROMAdd 0049  
                   _SYSTEMInit 0BB7                           ?_ISR 0070                    ?_SIM800init 0070  
                         l2202 0B09                           l3102 05A5                           l2320 0FEC  
                         l3104 05A9                           l2410 0737                           l2402 0723  
                         l2250 0B69                           l3122 05D5                           l3108 05AD  
                         l2254 0B9E                           l2318 0FE3                           l2430 0D24  
                         l2350 0CD9                           l2342 0CBB                           l3310 0D86  
                         l3126 05D7                           l2344 0CC7                           l3312 0D8B  
                         l2442 0D56                           l2354 0CE2                           l3314 0D90  
                         l2532 0C2C                           l2436 0D43                           l3316 0D95  
                         l3084 0557                           l3068 0538                           l2542 0C5A  
                         l2390 06FC                           l3318 0D9A                           l2392 06FF  
                         l2384 06CB                           l2720 02F8                           l2800 04F6  
                         l3088 056F                           l2474 0E4E                           l2386 06CD  
                         l2730 034D                           l2740 0399                           l2398 0712  
                         l2486 0C88                           l2726 032B                           l2822 0EE9  
                         l2816 0ED3                           l2754 03EA                           l2738 038D  
                         l2834 0F04                           l2850 0BC3                           l2748 03B7  
                         l2828 0EEE                           l2852 0BC7                           l2860 0D68  
                         l2790 04B7                           l2758 040C                           l2862 0D6A  
                         l2768 044C                           l2848 0BBF                           l2856 0BCB  
                         l2864 0D6C                           l2872 0D74                           l2794 04D9  
                         l2786 048D                           l2778 046F                           l2866 0D6E  
                         l2868 0D70      EEPROMDeleteNumber@address 002F                           STR_1 06B2  
                 __CFG_WDTE$ON 0000                           STR_2 069F                           STR_3 0692  
                         STR_4 0656                           STR_5 06A4                           STR_6 0648  
                         STR_7 066D                           STR_8 06AE                           STR_9 0648  
                         _CREN 0CEC             EepromWrite@address 0026                           u3107 0F31  
                         u1605 0BA5                           u3117 0F41                           u1615 0BAA  
                         u3207 0E57                           u3127 0F57                           u3217 0E6D  
                         u3137 0F6D                           u3307 0BF2                           u1715 0CC8  
                         u3227 0E93                           u3147 0F83                           u3067 0553  
                         u3317 0D13                           u1725 0CD2                           u1805 0710  
                         u3237 0EAD                           u3157 0DB8                           u3077 0566  
                         u3327 0FF5                           u1735 0CDA                           u3247 0C95  
                         u3167 0DCE                           u3087 059B                           u3337 0C67  
                         u3257 0CA5                           u3177 0DF4                           u3097 0F23  
                         u3347 0C77                           u3267 074F                           u3187 07BF  
                         u3357 0C39                           u3277 0770                           u3197 07F1  
                         u3367 0C49                           u1695 0CBE                           u3287 0791  
                         u3297 07B2                           _PEIE 005E                           _RCIE 048D  
                         _RCEN 10B3                           _RCIF 008D                           _RSEN 10B1  
                 __CFG_WRT$OFF 0000         __end_of_USARTWriteChar 0B19                  __CFG_FCMEN$ON 0000  
       __end_of_USARTWriteLine 0B58                           _main 04FA                           _task 005C  
                         fsr0h 0005                           fsr1h 0007                           fsr0l 0004  
                         indf0 0000                           indf1 0001                           fsr1l 0006  
                         btemp 007E               __end_of_I2CStart 0AFF                  __CFG_BOREN$ON 0000  
                         ltemp 007E                           start 0016                           ttemp 007E  
                         wtemp 007E            __end_of_EepromWrite 0B9B                          ??_ISR 007B  
                ?_GPIOPortInit 0070              ?_USARTHandleRxInt 0070        EEPROMSearchNumber@count 0038  
                        ?_main 0070                          _ACKEN 10B4                          _ACKDT 10B5  
           ??_USARTHandleRxInt 0070                          STR_10 0689                          STR_11 06AF  
                        STR_12 0680                          STR_20 0639                          STR_13 06AF  
                        STR_21 0677                          STR_22 0699                          STR_14 0604  
                        STR_23 06B5                          STR_15 061F                          STR_24 06AC  
                        STR_16 05E7                          STR_17 06A9                          STR_18 06A9  
                        STR_19 0662               USARTWriteChar@ch 0025                     _EepromRead 0BFD  
              __end_of___lwdiv 0CE7                          i1l401 020C                          i1l190 0011  
                        i1l384 02C4                          i1l389 010A                          _RCREG 0199  
                        _SPBRG 019B                          _TXREG 019A                  __CFG_PWRTE$ON 0000  
                        ltemp0 007E                          ltemp1 0082                          ltemp2 0086  
                        ltemp3 0080        EEPROMDeleteNumber@count 0031             __size_of_USARTInit 004A  
              ?_USARTWriteChar 0070                ?_USARTWriteLine 0029                          ttemp0 007E  
                        ttemp1 0081                          ttemp2 0084                          ttemp3 0087  
                        ttemp4 007F                          status 0003                          wtemp0 007E  
                        wtemp1 0080                          wtemp2 0082                          wtemp3 0084  
                        wtemp4 0086                          wtemp5 0088                          wtemp6 007F  
       __size_of_SIM800Command 0233               _GPIOBlueLedBlink 0C28         __size_of_SIM800ReadSms 004B  
             ?_SIM800DeleteSms 002B                 __CFG_MCLRE$OFF 0000              __end_of_EEPROMAdd 0D67  
              __initialization 0018         __size_of_SIM800SendSms 0065                  ?_SIM800LClear 0070  
   EEPROMDeleteNumber@position 002B                   __end_of_main 05E7                 ??_GPIOPortInit 0025  
           GPIOGreenLedBlink@i 0029            __size_of_SIM800init 006F                      ??_I2CInit 0025  
                    ??_I2CRead 0025                      ??_I2CSend 0025                      ??_I2CWait 0025  
                    ??_I2CStop 0025       __end_of_EEPROMSaveNumber 1000                         ??_main 004E  
               __CFG_PLLEN$OFF 0000                    ?_SYSTEMInit 0070       EEPROMSearchNumber@result 003A  
                       _I2CNak 07F9                _GPIORedLedBlink 0C84                         _ANSELB 018D  
                 ??_I2CRestart 0025                         i1l2600 015D                         i1l2610 019B  
                       i1l2604 017F                         i1l2622 01E5                         i1l2550 0040  
                       i1l2560 0061                         i1l2642 027A                         i1l2634 022C  
                       i1l2650 0298                         i1l2626 01FA                         i1l2618 01BB  
                       i1l2580 00D2                         i1l2644 0280                         i1l2652 0299  
                       i1l2556 0052                         i1l2654 02A0                         i1l2638 0257  
                       i1l2574 009E                         i1l2662 02BC                         i1l2584 00F5  
                       i1l2596 0133                         u221_25 0278                         u205_25 00F3  
                  _EepromWrite 0B80                         _OSCCON 0099                         _SSPADD 0212  
                       _TRISC0 0470                         _TRISA4 0464                         _TRISC1 0471  
                       _TRISA5 0465                         _TRISC2 0472                         _TRISB4 046C  
                       _TRISC4 0474                         _TRISB6 046E                         _TRISC5 0475  
                       _TRISB7 046F                         _TRISC6 0476                         _TRISC7 0477  
                       _SSPCON 0215                         _SSPBUF 0211             _EEPROMDeleteNumber 0CE7  
               ??_SIM800LClear 0025              USARTWriteLine@str 0029                         ___wmul 0B9B  
               __CFG_STVREN$ON 0000                      ??___lwdiv 0029                 _EEPROMEraseAll 0BD8  
                       _bufque 005A            ?_EEPROMDeleteNumber 002B       __end_of_USARTWriteString 0B80  
            __end_of_USARTInit 0DB1             __end_of_I2CRestart 0B09                    ?_EepromRead 002B  
                _SIM800Command 02C7                      ?_I2CStart 0070                  _SIM800ReadSms 0DB1  
          _EEPROMCheckPassword 0DFC                  _SIM800SendSms 0E50                 _password_empty 005D  
           USARTHandleRxInt@ci 0022           ??_EEPROMDeleteNumber 002D        __end_of__initialization 002D  
         ?_EEPROMCheckPassword 002F         __end_of_EEPROMEraseAll 0BFD                 __pcstackCOMMON 0070  
        EEPROMSearchNumber@aux 003C            __size_of_SYSTEMInit 0021                 ?_SIM800Command 0070  
      EEPROMSaveNumber@address 0037        __end_of_GPIORedLedBlink 0CB2                 ?_SIM800ReadSms 002B  
                   ??_I2CStart 0025                 ?_SIM800SendSms 002B                        ?_I2CNak 0070  
                 ??_SIM800init 002B           __end_of_GPIOPortInit 0B69          GPIOBlueLedBlink@times 0028  
                   __pbssBANK0 0051   __end_of_EEPROMUpdatePassword 07B8         GPIOGreenLedBlink@times 0028  
          __size_of_EepromRead 002B          ??_EEPROMCheckPassword 0031                     I2CSend@dat 0025  
                   __pmaintext 04FA                ?_EEPROMEraseAll 0070   EEPROMSearchNumber@nmbrLenght 0031  
                      ?___wmul 0025     __end_of_EEPROMSearchNumber 073A                     __pintentry 0004  
                      _I2CInit 0B23                        _I2CRead 0B3A                        _I2CSend 0B19  
                      _I2CWait 0B09                        _I2CStop 0AFF             __end_of_SIM800init 0F8B  
     __end_of_GPIOBlueLedBlink 0C56                        _SIM800L 2063               ??_USARTWriteChar 0025  
         __end_of_SIM800LClear 0F1C                 EepromRead@data 002E               ??_USARTWriteLine 002B  
                      _SSPCON2 0216             USARTWriteInt@F3224 0051                __size_of_I2CNak 0006  
                      _SSPSTAT 0214      __size_of_USARTHandleRxInt 0296                __size_of___wmul 001C  
                      ___lwdiv 0CB2                      _EEPROMAdd 0D1E                ??_SIM800Command 0042  
                      __ptext1 0D67                        __ptext2 0BB7                        __ptext3 0F1C  
                      __ptext4 0DB1                        __ptext5 0EB5                        __ptext6 07B8  
                      __ptext7 02C7                ??_SIM800ReadSms 002D                        __ptext8 0E50  
                      __ptext9 0B48              ?_EEPROMSaveNumber 002B            SIM800DeleteSms@flag 002D  
                 __size_of_ISR 0012                ??_SIM800SendSms 002F               ?_GPIORedLedBlink 0070  
           ??_EEPROMSaveNumber 0030                   ??_SYSTEMInit 0025                        clrloop0 0B2F  
         end_of_initialization 002D                   ?_EepromWrite 0026                  EEPROMAdd@nmbr 0039  
                    _RCSTAbits 019D             __end_of_SYSTEMInit 0BD8                   __pstringtext 05E7  
                   ?_EEPROMAdd 0039              ?_USARTWriteString 0026       __size_of_SIM800DeleteSms 0041  
                    _PORTBbits 000D                   ??_EepromRead 002D           _EEPROMUpdatePassword 073A  
           ??_USARTWriteString 0028               __CFG_FOSC$INTOSC 0000          __size_of_GPIOPortInit 0011  
                    _USARTInit 0D67              __size_of_I2CStart 0005                 __end_of_I2CNak 07FF  
                    _TXSTAbits 019E             __end_of_EepromRead 0C28         EEPROMSearchNumber@nmbr 002F  
                 _GPIOPortInit 0B58                 __end_of___wmul 0BB7                    _BAUDCONbits 019F  
        ?_EEPROMUpdatePassword 0029          __size_of_SIM800LClear 0067            start_initialization 0018  
                   ?_USARTInit 0025                    __end_of_ISR 0016                       ??_I2CNak 0025  
               SYSTEMInit@freq 0025               _USARTHandleRxInt 0031    __size_of_EEPROMDeleteNumber 0037  
             ??_EEPROMEraseAll 0029                    _APFCON0bits 011D                   _SIM800LClear 0EB5  
                     ??___wmul 0029                    ??_EEPROMAdd 003C                       ?_I2CInit 0070  
                     ?_I2CRead 0070                       ?_I2CSend 0070                       ?_I2CWait 0070  
                     ?_I2CStop 0070     EEPROMSaveNumber@nmbrLenght 002D              _GPIOGreenLedBlink 0C56  
                  __pbssBIGRAM 2063       EEPROMSaveNumber@position 002E                      ___latbits 0001  
         GPIORedLedBlink@times 0028              ?_GPIOBlueLedBlink 0070                  __pcstackBANK0 0020  
           _EEPROMSearchNumber 06B7             ?_GPIOGreenLedBlink 0070              ??_SIM800DeleteSms 002F  
           ??_GPIOBlueLedBlink 0025                    I2CRead@temp 0026    __end_of_EEPROMCheckPassword 0E50  
          ?_EEPROMSearchNumber 002F            ??_GPIOGreenLedBlink 0025         EEPROMSaveNumber@result 0033  
         __size_of_EepromWrite 001B               ___lwdiv@dividend 0027                       ?___lwdiv 0025  
       ??_EEPROMUpdatePassword 002B           ??_EEPROMSearchNumber 0032      __end_of_GPIOGreenLedBlink 0C84  
                SIM800LClear@i 0029                       _I2CStart 0AFA                    ??_USARTInit 0027  
             ___lwdiv@quotient 002A            EEPROMAdd@nmbrLenght 003B       EEPROMUpdatePassword@pass 0029  
    __size_of_EEPROMSaveNumber 0075                 ___wmul@product 0029                       _LATAbits 010C  
                     _LATBbits 010D                       _LATCbits 010E                   EEPROMAdd@aux 003F  
                    clear_ram0 0B2E                       _PIR1bits 0011               SIM800Command@add 004D  
             __size_of_I2CInit 000B               __size_of_I2CRead 000E               __size_of_I2CSend 000A  
             __size_of_I2CWait 0008               __size_of_I2CStop 0005              ___wmul@multiplier 0025  
        __end_of_SIM800Command 04FA          __end_of_SIM800ReadSms 0DFC          __end_of_SIM800SendSms 0EB5  
     __size_of_GPIORedLedBlink 002E                     _I2CRestart 0B04      __size_of_USARTWriteString 0017  
      __size_of_USARTWriteChar 0008        __size_of_USARTWriteLine 0010       __end_of_USARTHandleRxInt 02C7  
             __size_of___lwdiv 0035     __size_of_GPIOGreenLedBlink 002E              SIM800SendSms@nmbr 002B  
        EEPROMSaveNumber@count 0035              GPIOBlueLedBlink@i 0029                ___lwdiv@divisor 0025  
              ___lwdiv@counter 002C                       __ptext10 0B69                       __ptext11 0B11  
                     __ptext20 0BFD                       __ptext12 0C84                       __ptext21 0B04  
                     __ptext13 073A                       __ptext30 0B09                       __ptext22 0B3A  
                     __ptext14 06B7                       __ptext31 0B23                       __ptext23 07F9  
                     __ptext15 0CB2                       __ptext32 0B58                       __ptext24 0F8B  
                     __ptext16 0BD8                       __ptext33 0C56                       __ptext25 0B9B  
                     __ptext17 0CE7                       __ptext34 0C28                       __ptext26 0B80  
                     __ptext18 0DFC                       __ptext27 0AFF                       __ptext19 0D1E  
                     __ptext36 0031                       __ptext28 0AFA                       __ptext29 0B19  
             SIM800ReadSms@mem 002B           SIM800DeleteSms@index 002B         USARTHandleRxInt@ci_560 0024  
       USARTHandleRxInt@ci_561 0021         USARTHandleRxInt@ci_559 0023               GPIORedLedBlink@i 0029  
                __size_of_main 00ED                       _password 0056                       int$flags 007E  
              _SIM800DeleteSms 07B8                EepromWrite@data 0028                 EEPROMAdd@empty 0040  
               EEPROMAdd@found 003D     __end_of_EEPROMDeleteNumber 0D1E                     _SIM800init 0F1C  
             SIM800SendSms@msg 002D                    ?_I2CRestart 0070                       intlevel1 0000  
         EEPROMSaveNumber@nmbr 002B               _EEPROMSaveNumber 0F8B                EEPROMEraseAll@i 002B  
            __CFG_CLKOUTEN$OFF 0000      __size_of_GPIOBlueLedBlink 002E              ??_GPIORedLedBlink 0025  
          USARTWriteString@str 0026              EepromRead@address 002B           USARTHandleRxInt@data 0020  
                   _WDTCONbits 0097               _USARTWriteString 0B69                  ??_EepromWrite 0029  
               _USARTWriteChar 0B11                 _USARTWriteLine 0B48        __end_of_SIM800DeleteSms 07F9  
 __size_of_EEPROMCheckPassword 0054  
