

Microchip Technology PIC LITE Macro Assembler V1.33 build 59893 
                                                                                               Tue Apr 05 15:24:48 2016

Microchip Technology Omniscient Code Generator (Lite mode) build 59893
     1                           	processor	16F1828
     2                           	opt	pw 120
     3                           	opt	lm
     4                           	psect	stringtext,global,reloc=256,class=STRCODE,delta=2
     5                           	psect	cinit,global,class=CODE,merge=1,delta=2
     6                           	psect	bssBANK0,global,class=BANK0,space=1,delta=1
     7                           	psect	clrtext,global,class=CODE,delta=2
     8                           	psect	cstackCOMMON,global,class=COMMON,space=1,delta=1
     9                           	psect	cstackBANK0,global,class=BANK0,space=1,delta=1
    10                           	psect	maintext,global,class=CODE,merge=1,split=1,delta=2
    11                           	psect	text1,local,class=CODE,merge=1,delta=2
    12                           	psect	text2,local,class=CODE,merge=1,delta=2
    13                           	psect	text3,local,class=CODE,merge=1,delta=2
    14                           	psect	text4,local,class=CODE,merge=1,delta=2
    15                           	psect	text5,local,class=CODE,merge=1,delta=2
    16                           	psect	text6,local,class=CODE,merge=1,delta=2
    17                           	psect	text7,local,class=CODE,merge=1,delta=2
    18                           	psect	text8,local,class=CODE,merge=1,delta=2
    19                           	psect	text9,local,class=CODE,merge=1,delta=2
    20                           	psect	text10,local,class=CODE,merge=1,delta=2
    21                           	psect	text11,local,class=CODE,merge=1,delta=2
    22                           	psect	text12,local,class=CODE,merge=1,delta=2
    23                           	psect	text13,local,class=CODE,merge=1,delta=2
    24                           	psect	text14,local,class=CODE,merge=1,delta=2
    25                           	psect	text15,local,class=CODE,merge=1,delta=2
    26                           	psect	text16,local,class=CODE,merge=1,delta=2
    27                           	psect	text17,local,class=CODE,merge=1,delta=2
    28                           	psect	text18,local,class=CODE,merge=1,delta=2
    29                           	psect	text19,local,class=CODE,merge=1,delta=2
    30                           	psect	text20,local,class=CODE,merge=1,delta=2
    31                           	psect	text21,local,class=CODE,merge=1,delta=2
    32                           	psect	text22,local,class=CODE,merge=1,delta=2
    33                           	psect	text23,local,class=CODE,merge=1,delta=2
    34                           	psect	text24,local,class=CODE,merge=1,delta=2
    35                           	psect	text25,local,class=CODE,merge=1,delta=2
    36                           	psect	intentry,global,class=CODE,delta=2
    37                           	psect	text27,local,class=CODE,merge=1,delta=2
    38                           	dabs	1,0x120,80
    39                           	dabs	1,0xC8,40
    40                           	dabs	1,0x2078,0,_SIM800L
    41                           	dabs	1,0x7E,2
    42  0000                     	;# 
    43  0001                     	;# 
    44  0002                     	;# 
    45  0003                     	;# 
    46  0004                     	;# 
    47  0005                     	;# 
    48  0006                     	;# 
    49  0007                     	;# 
    50  0008                     	;# 
    51  0009                     	;# 
    52  000A                     	;# 
    53  000B                     	;# 
    54  000C                     	;# 
    55  000D                     	;# 
    56  000E                     	;# 
    57  0011                     	;# 
    58  0012                     	;# 
    59  0013                     	;# 
    60  0015                     	;# 
    61  0016                     	;# 
    62  0016                     	;# 
    63  0017                     	;# 
    64  0018                     	;# 
    65  0019                     	;# 
    66  001A                     	;# 
    67  001B                     	;# 
    68  001C                     	;# 
    69  001E                     	;# 
    70  001F                     	;# 
    71  008C                     	;# 
    72  008D                     	;# 
    73  008E                     	;# 
    74  0091                     	;# 
    75  0092                     	;# 
    76  0093                     	;# 
    77  0095                     	;# 
    78  0096                     	;# 
    79  0097                     	;# 
    80  0098                     	;# 
    81  0099                     	;# 
    82  009A                     	;# 
    83  009B                     	;# 
    84  009B                     	;# 
    85  009C                     	;# 
    86  009D                     	;# 
    87  009E                     	;# 
    88  010C                     	;# 
    89  010D                     	;# 
    90  010E                     	;# 
    91  0111                     	;# 
    92  0112                     	;# 
    93  0113                     	;# 
    94  0114                     	;# 
    95  0115                     	;# 
    96  0116                     	;# 
    97  0117                     	;# 
    98  0118                     	;# 
    99  0119                     	;# 
   100  011A                     	;# 
   101  011B                     	;# 
   102  011D                     	;# 
   103  011E                     	;# 
   104  018C                     	;# 
   105  018D                     	;# 
   106  018E                     	;# 
   107  0191                     	;# 
   108  0191                     	;# 
   109  0192                     	;# 
   110  0193                     	;# 
   111  0193                     	;# 
   112  0193                     	;# 
   113  0194                     	;# 
   114  0195                     	;# 
   115  0196                     	;# 
   116  0199                     	;# 
   117  019A                     	;# 
   118  019B                     	;# 
   119  019B                     	;# 
   120  019B                     	;# 
   121  019B                     	;# 
   122  019C                     	;# 
   123  019C                     	;# 
   124  019D                     	;# 
   125  019E                     	;# 
   126  019F                     	;# 
   127  020C                     	;# 
   128  020D                     	;# 
   129  020E                     	;# 
   130  0211                     	;# 
   131  0211                     	;# 
   132  0212                     	;# 
   133  0212                     	;# 
   134  0213                     	;# 
   135  0213                     	;# 
   136  0214                     	;# 
   137  0214                     	;# 
   138  0215                     	;# 
   139  0215                     	;# 
   140  0215                     	;# 
   141  0215                     	;# 
   142  0216                     	;# 
   143  0216                     	;# 
   144  0217                     	;# 
   145  0217                     	;# 
   146  0291                     	;# 
   147  0291                     	;# 
   148  0292                     	;# 
   149  0293                     	;# 
   150  0294                     	;# 
   151  0295                     	;# 
   152  0295                     	;# 
   153  0296                     	;# 
   154  0298                     	;# 
   155  0298                     	;# 
   156  0299                     	;# 
   157  029A                     	;# 
   158  029B                     	;# 
   159  029C                     	;# 
   160  029D                     	;# 
   161  029E                     	;# 
   162  029E                     	;# 
   163  0311                     	;# 
   164  0311                     	;# 
   165  0312                     	;# 
   166  0313                     	;# 
   167  0318                     	;# 
   168  0318                     	;# 
   169  0319                     	;# 
   170  031A                     	;# 
   171  038C                     	;# 
   172  038D                     	;# 
   173  038E                     	;# 
   174  0391                     	;# 
   175  0392                     	;# 
   176  0393                     	;# 
   177  0394                     	;# 
   178  0395                     	;# 
   179  0396                     	;# 
   180  039A                     	;# 
   181  039C                     	;# 
   182  039D                     	;# 
   183  039E                     	;# 
   184  039F                     	;# 
   185  0415                     	;# 
   186  0416                     	;# 
   187  0417                     	;# 
   188  041C                     	;# 
   189  041D                     	;# 
   190  041E                     	;# 
   191  0FE4                     	;# 
   192  0FE5                     	;# 
   193  0FE6                     	;# 
   194  0FE7                     	;# 
   195  0FE8                     	;# 
   196  0FE9                     	;# 
   197  0FEA                     	;# 
   198  0FEB                     	;# 
   199  0FED                     	;# 
   200  0FEE                     	;# 
   201  0FEF                     	;# 
   202  0000                     	;# 
   203  0001                     	;# 
   204  0002                     	;# 
   205  0003                     	;# 
   206  0004                     	;# 
   207  0005                     	;# 
   208  0006                     	;# 
   209  0007                     	;# 
   210  0008                     	;# 
   211  0009                     	;# 
   212  000A                     	;# 
   213  000B                     	;# 
   214  000C                     	;# 
   215  000D                     	;# 
   216  000E                     	;# 
   217  0011                     	;# 
   218  0012                     	;# 
   219  0013                     	;# 
   220  0015                     	;# 
   221  0016                     	;# 
   222  0016                     	;# 
   223  0017                     	;# 
   224  0018                     	;# 
   225  0019                     	;# 
   226  001A                     	;# 
   227  001B                     	;# 
   228  001C                     	;# 
   229  001E                     	;# 
   230  001F                     	;# 
   231  008C                     	;# 
   232  008D                     	;# 
   233  008E                     	;# 
   234  0091                     	;# 
   235  0092                     	;# 
   236  0093                     	;# 
   237  0095                     	;# 
   238  0096                     	;# 
   239  0097                     	;# 
   240  0098                     	;# 
   241  0099                     	;# 
   242  009A                     	;# 
   243  009B                     	;# 
   244  009B                     	;# 
   245  009C                     	;# 
   246  009D                     	;# 
   247  009E                     	;# 
   248  010C                     	;# 
   249  010D                     	;# 
   250  010E                     	;# 
   251  0111                     	;# 
   252  0112                     	;# 
   253  0113                     	;# 
   254  0114                     	;# 
   255  0115                     	;# 
   256  0116                     	;# 
   257  0117                     	;# 
   258  0118                     	;# 
   259  0119                     	;# 
   260  011A                     	;# 
   261  011B                     	;# 
   262  011D                     	;# 
   263  011E                     	;# 
   264  018C                     	;# 
   265  018D                     	;# 
   266  018E                     	;# 
   267  0191                     	;# 
   268  0191                     	;# 
   269  0192                     	;# 
   270  0193                     	;# 
   271  0193                     	;# 
   272  0193                     	;# 
   273  0194                     	;# 
   274  0195                     	;# 
   275  0196                     	;# 
   276  0199                     	;# 
   277  019A                     	;# 
   278  019B                     	;# 
   279  019B                     	;# 
   280  019B                     	;# 
   281  019B                     	;# 
   282  019C                     	;# 
   283  019C                     	;# 
   284  019D                     	;# 
   285  019E                     	;# 
   286  019F                     	;# 
   287  020C                     	;# 
   288  020D                     	;# 
   289  020E                     	;# 
   290  0211                     	;# 
   291  0211                     	;# 
   292  0212                     	;# 
   293  0212                     	;# 
   294  0213                     	;# 
   295  0213                     	;# 
   296  0214                     	;# 
   297  0214                     	;# 
   298  0215                     	;# 
   299  0215                     	;# 
   300  0215                     	;# 
   301  0215                     	;# 
   302  0216                     	;# 
   303  0216                     	;# 
   304  0217                     	;# 
   305  0217                     	;# 
   306  0291                     	;# 
   307  0291                     	;# 
   308  0292                     	;# 
   309  0293                     	;# 
   310  0294                     	;# 
   311  0295                     	;# 
   312  0295                     	;# 
   313  0296                     	;# 
   314  0298                     	;# 
   315  0298                     	;# 
   316  0299                     	;# 
   317  029A                     	;# 
   318  029B                     	;# 
   319  029C                     	;# 
   320  029D                     	;# 
   321  029E                     	;# 
   322  029E                     	;# 
   323  0311                     	;# 
   324  0311                     	;# 
   325  0312                     	;# 
   326  0313                     	;# 
   327  0318                     	;# 
   328  0318                     	;# 
   329  0319                     	;# 
   330  031A                     	;# 
   331  038C                     	;# 
   332  038D                     	;# 
   333  038E                     	;# 
   334  0391                     	;# 
   335  0392                     	;# 
   336  0393                     	;# 
   337  0394                     	;# 
   338  0395                     	;# 
   339  0396                     	;# 
   340  039A                     	;# 
   341  039C                     	;# 
   342  039D                     	;# 
   343  039E                     	;# 
   344  039F                     	;# 
   345  0415                     	;# 
   346  0416                     	;# 
   347  0417                     	;# 
   348  041C                     	;# 
   349  041D                     	;# 
   350  041E                     	;# 
   351  0FE4                     	;# 
   352  0FE5                     	;# 
   353  0FE6                     	;# 
   354  0FE7                     	;# 
   355  0FE8                     	;# 
   356  0FE9                     	;# 
   357  0FEA                     	;# 
   358  0FEB                     	;# 
   359  0FED                     	;# 
   360  0FEE                     	;# 
   361  0FEF                     	;# 
   362  0000                     	;# 
   363  0001                     	;# 
   364  0002                     	;# 
   365  0003                     	;# 
   366  0004                     	;# 
   367  0005                     	;# 
   368  0006                     	;# 
   369  0007                     	;# 
   370  0008                     	;# 
   371  0009                     	;# 
   372  000A                     	;# 
   373  000B                     	;# 
   374  000C                     	;# 
   375  000D                     	;# 
   376  000E                     	;# 
   377  0011                     	;# 
   378  0012                     	;# 
   379  0013                     	;# 
   380  0015                     	;# 
   381  0016                     	;# 
   382  0016                     	;# 
   383  0017                     	;# 
   384  0018                     	;# 
   385  0019                     	;# 
   386  001A                     	;# 
   387  001B                     	;# 
   388  001C                     	;# 
   389  001E                     	;# 
   390  001F                     	;# 
   391  008C                     	;# 
   392  008D                     	;# 
   393  008E                     	;# 
   394  0091                     	;# 
   395  0092                     	;# 
   396  0093                     	;# 
   397  0095                     	;# 
   398  0096                     	;# 
   399  0097                     	;# 
   400  0098                     	;# 
   401  0099                     	;# 
   402  009A                     	;# 
   403  009B                     	;# 
   404  009B                     	;# 
   405  009C                     	;# 
   406  009D                     	;# 
   407  009E                     	;# 
   408  010C                     	;# 
   409  010D                     	;# 
   410  010E                     	;# 
   411  0111                     	;# 
   412  0112                     	;# 
   413  0113                     	;# 
   414  0114                     	;# 
   415  0115                     	;# 
   416  0116                     	;# 
   417  0117                     	;# 
   418  0118                     	;# 
   419  0119                     	;# 
   420  011A                     	;# 
   421  011B                     	;# 
   422  011D                     	;# 
   423  011E                     	;# 
   424  018C                     	;# 
   425  018D                     	;# 
   426  018E                     	;# 
   427  0191                     	;# 
   428  0191                     	;# 
   429  0192                     	;# 
   430  0193                     	;# 
   431  0193                     	;# 
   432  0193                     	;# 
   433  0194                     	;# 
   434  0195                     	;# 
   435  0196                     	;# 
   436  0199                     	;# 
   437  019A                     	;# 
   438  019B                     	;# 
   439  019B                     	;# 
   440  019B                     	;# 
   441  019B                     	;# 
   442  019C                     	;# 
   443  019C                     	;# 
   444  019D                     	;# 
   445  019E                     	;# 
   446  019F                     	;# 
   447  020C                     	;# 
   448  020D                     	;# 
   449  020E                     	;# 
   450  0211                     	;# 
   451  0211                     	;# 
   452  0212                     	;# 
   453  0212                     	;# 
   454  0213                     	;# 
   455  0213                     	;# 
   456  0214                     	;# 
   457  0214                     	;# 
   458  0215                     	;# 
   459  0215                     	;# 
   460  0215                     	;# 
   461  0215                     	;# 
   462  0216                     	;# 
   463  0216                     	;# 
   464  0217                     	;# 
   465  0217                     	;# 
   466  0291                     	;# 
   467  0291                     	;# 
   468  0292                     	;# 
   469  0293                     	;# 
   470  0294                     	;# 
   471  0295                     	;# 
   472  0295                     	;# 
   473  0296                     	;# 
   474  0298                     	;# 
   475  0298                     	;# 
   476  0299                     	;# 
   477  029A                     	;# 
   478  029B                     	;# 
   479  029C                     	;# 
   480  029D                     	;# 
   481  029E                     	;# 
   482  029E                     	;# 
   483  0311                     	;# 
   484  0311                     	;# 
   485  0312                     	;# 
   486  0313                     	;# 
   487  0318                     	;# 
   488  0318                     	;# 
   489  0319                     	;# 
   490  031A                     	;# 
   491  038C                     	;# 
   492  038D                     	;# 
   493  038E                     	;# 
   494  0391                     	;# 
   495  0392                     	;# 
   496  0393                     	;# 
   497  0394                     	;# 
   498  0395                     	;# 
   499  0396                     	;# 
   500  039A                     	;# 
   501  039C                     	;# 
   502  039D                     	;# 
   503  039E                     	;# 
   504  039F                     	;# 
   505  0415                     	;# 
   506  0416                     	;# 
   507  0417                     	;# 
   508  041C                     	;# 
   509  041D                     	;# 
   510  041E                     	;# 
   511  0FE4                     	;# 
   512  0FE5                     	;# 
   513  0FE6                     	;# 
   514  0FE7                     	;# 
   515  0FE8                     	;# 
   516  0FE9                     	;# 
   517  0FEA                     	;# 
   518  0FEB                     	;# 
   519  0FED                     	;# 
   520  0FEE                     	;# 
   521  0FEF                     	;# 
   522  0000                     	;# 
   523  0001                     	;# 
   524  0002                     	;# 
   525  0003                     	;# 
   526  0004                     	;# 
   527  0005                     	;# 
   528  0006                     	;# 
   529  0007                     	;# 
   530  0008                     	;# 
   531  0009                     	;# 
   532  000A                     	;# 
   533  000B                     	;# 
   534  000C                     	;# 
   535  000D                     	;# 
   536  000E                     	;# 
   537  0011                     	;# 
   538  0012                     	;# 
   539  0013                     	;# 
   540  0015                     	;# 
   541  0016                     	;# 
   542  0016                     	;# 
   543  0017                     	;# 
   544  0018                     	;# 
   545  0019                     	;# 
   546  001A                     	;# 
   547  001B                     	;# 
   548  001C                     	;# 
   549  001E                     	;# 
   550  001F                     	;# 
   551  008C                     	;# 
   552  008D                     	;# 
   553  008E                     	;# 
   554  0091                     	;# 
   555  0092                     	;# 
   556  0093                     	;# 
   557  0095                     	;# 
   558  0096                     	;# 
   559  0097                     	;# 
   560  0098                     	;# 
   561  0099                     	;# 
   562  009A                     	;# 
   563  009B                     	;# 
   564  009B                     	;# 
   565  009C                     	;# 
   566  009D                     	;# 
   567  009E                     	;# 
   568  010C                     	;# 
   569  010D                     	;# 
   570  010E                     	;# 
   571  0111                     	;# 
   572  0112                     	;# 
   573  0113                     	;# 
   574  0114                     	;# 
   575  0115                     	;# 
   576  0116                     	;# 
   577  0117                     	;# 
   578  0118                     	;# 
   579  0119                     	;# 
   580  011A                     	;# 
   581  011B                     	;# 
   582  011D                     	;# 
   583  011E                     	;# 
   584  018C                     	;# 
   585  018D                     	;# 
   586  018E                     	;# 
   587  0191                     	;# 
   588  0191                     	;# 
   589  0192                     	;# 
   590  0193                     	;# 
   591  0193                     	;# 
   592  0193                     	;# 
   593  0194                     	;# 
   594  0195                     	;# 
   595  0196                     	;# 
   596  0199                     	;# 
   597  019A                     	;# 
   598  019B                     	;# 
   599  019B                     	;# 
   600  019B                     	;# 
   601  019B                     	;# 
   602  019C                     	;# 
   603  019C                     	;# 
   604  019D                     	;# 
   605  019E                     	;# 
   606  019F                     	;# 
   607  020C                     	;# 
   608  020D                     	;# 
   609  020E                     	;# 
   610  0211                     	;# 
   611  0211                     	;# 
   612  0212                     	;# 
   613  0212                     	;# 
   614  0213                     	;# 
   615  0213                     	;# 
   616  0214                     	;# 
   617  0214                     	;# 
   618  0215                     	;# 
   619  0215                     	;# 
   620  0215                     	;# 
   621  0215                     	;# 
   622  0216                     	;# 
   623  0216                     	;# 
   624  0217                     	;# 
   625  0217                     	;# 
   626  0291                     	;# 
   627  0291                     	;# 
   628  0292                     	;# 
   629  0293                     	;# 
   630  0294                     	;# 
   631  0295                     	;# 
   632  0295                     	;# 
   633  0296                     	;# 
   634  0298                     	;# 
   635  0298                     	;# 
   636  0299                     	;# 
   637  029A                     	;# 
   638  029B                     	;# 
   639  029C                     	;# 
   640  029D                     	;# 
   641  029E                     	;# 
   642  029E                     	;# 
   643  0311                     	;# 
   644  0311                     	;# 
   645  0312                     	;# 
   646  0313                     	;# 
   647  0318                     	;# 
   648  0318                     	;# 
   649  0319                     	;# 
   650  031A                     	;# 
   651  038C                     	;# 
   652  038D                     	;# 
   653  038E                     	;# 
   654  0391                     	;# 
   655  0392                     	;# 
   656  0393                     	;# 
   657  0394                     	;# 
   658  0395                     	;# 
   659  0396                     	;# 
   660  039A                     	;# 
   661  039C                     	;# 
   662  039D                     	;# 
   663  039E                     	;# 
   664  039F                     	;# 
   665  0415                     	;# 
   666  0416                     	;# 
   667  0417                     	;# 
   668  041C                     	;# 
   669  041D                     	;# 
   670  041E                     	;# 
   671  0FE4                     	;# 
   672  0FE5                     	;# 
   673  0FE6                     	;# 
   674  0FE7                     	;# 
   675  0FE8                     	;# 
   676  0FE9                     	;# 
   677  0FEA                     	;# 
   678  0FEB                     	;# 
   679  0FED                     	;# 
   680  0FEE                     	;# 
   681  0FEF                     	;# 
   682  0000                     	;# 
   683  0001                     	;# 
   684  0002                     	;# 
   685  0003                     	;# 
   686  0004                     	;# 
   687  0005                     	;# 
   688  0006                     	;# 
   689  0007                     	;# 
   690  0008                     	;# 
   691  0009                     	;# 
   692  000A                     	;# 
   693  000B                     	;# 
   694  000C                     	;# 
   695  000D                     	;# 
   696  000E                     	;# 
   697  0011                     	;# 
   698  0012                     	;# 
   699  0013                     	;# 
   700  0015                     	;# 
   701  0016                     	;# 
   702  0016                     	;# 
   703  0017                     	;# 
   704  0018                     	;# 
   705  0019                     	;# 
   706  001A                     	;# 
   707  001B                     	;# 
   708  001C                     	;# 
   709  001E                     	;# 
   710  001F                     	;# 
   711  008C                     	;# 
   712  008D                     	;# 
   713  008E                     	;# 
   714  0091                     	;# 
   715  0092                     	;# 
   716  0093                     	;# 
   717  0095                     	;# 
   718  0096                     	;# 
   719  0097                     	;# 
   720  0098                     	;# 
   721  0099                     	;# 
   722  009A                     	;# 
   723  009B                     	;# 
   724  009B                     	;# 
   725  009C                     	;# 
   726  009D                     	;# 
   727  009E                     	;# 
   728  010C                     	;# 
   729  010D                     	;# 
   730  010E                     	;# 
   731  0111                     	;# 
   732  0112                     	;# 
   733  0113                     	;# 
   734  0114                     	;# 
   735  0115                     	;# 
   736  0116                     	;# 
   737  0117                     	;# 
   738  0118                     	;# 
   739  0119                     	;# 
   740  011A                     	;# 
   741  011B                     	;# 
   742  011D                     	;# 
   743  011E                     	;# 
   744  018C                     	;# 
   745  018D                     	;# 
   746  018E                     	;# 
   747  0191                     	;# 
   748  0191                     	;# 
   749  0192                     	;# 
   750  0193                     	;# 
   751  0193                     	;# 
   752  0193                     	;# 
   753  0194                     	;# 
   754  0195                     	;# 
   755  0196                     	;# 
   756  0199                     	;# 
   757  019A                     	;# 
   758  019B                     	;# 
   759  019B                     	;# 
   760  019B                     	;# 
   761  019B                     	;# 
   762  019C                     	;# 
   763  019C                     	;# 
   764  019D                     	;# 
   765  019E                     	;# 
   766  019F                     	;# 
   767  020C                     	;# 
   768  020D                     	;# 
   769  020E                     	;# 
   770  0211                     	;# 
   771  0211                     	;# 
   772  0212                     	;# 
   773  0212                     	;# 
   774  0213                     	;# 
   775  0213                     	;# 
   776  0214                     	;# 
   777  0214                     	;# 
   778  0215                     	;# 
   779  0215                     	;# 
   780  0215                     	;# 
   781  0215                     	;# 
   782  0216                     	;# 
   783  0216                     	;# 
   784  0217                     	;# 
   785  0217                     	;# 
   786  0291                     	;# 
   787  0291                     	;# 
   788  0292                     	;# 
   789  0293                     	;# 
   790  0294                     	;# 
   791  0295                     	;# 
   792  0295                     	;# 
   793  0296                     	;# 
   794  0298                     	;# 
   795  0298                     	;# 
   796  0299                     	;# 
   797  029A                     	;# 
   798  029B                     	;# 
   799  029C                     	;# 
   800  029D                     	;# 
   801  029E                     	;# 
   802  029E                     	;# 
   803  0311                     	;# 
   804  0311                     	;# 
   805  0312                     	;# 
   806  0313                     	;# 
   807  0318                     	;# 
   808  0318                     	;# 
   809  0319                     	;# 
   810  031A                     	;# 
   811  038C                     	;# 
   812  038D                     	;# 
   813  038E                     	;# 
   814  0391                     	;# 
   815  0392                     	;# 
   816  0393                     	;# 
   817  0394                     	;# 
   818  0395                     	;# 
   819  0396                     	;# 
   820  039A                     	;# 
   821  039C                     	;# 
   822  039D                     	;# 
   823  039E                     	;# 
   824  039F                     	;# 
   825  0415                     	;# 
   826  0416                     	;# 
   827  0417                     	;# 
   828  041C                     	;# 
   829  041D                     	;# 
   830  041E                     	;# 
   831  0FE4                     	;# 
   832  0FE5                     	;# 
   833  0FE6                     	;# 
   834  0FE7                     	;# 
   835  0FE8                     	;# 
   836  0FE9                     	;# 
   837  0FEA                     	;# 
   838  0FEB                     	;# 
   839  0FED                     	;# 
   840  0FEE                     	;# 
   841  0FEF                     	;# 
   842  0000                     	;# 
   843  0001                     	;# 
   844  0002                     	;# 
   845  0003                     	;# 
   846  0004                     	;# 
   847  0005                     	;# 
   848  0006                     	;# 
   849  0007                     	;# 
   850  0008                     	;# 
   851  0009                     	;# 
   852  000A                     	;# 
   853  000B                     	;# 
   854  000C                     	;# 
   855  000D                     	;# 
   856  000E                     	;# 
   857  0011                     	;# 
   858  0012                     	;# 
   859  0013                     	;# 
   860  0015                     	;# 
   861  0016                     	;# 
   862  0016                     	;# 
   863  0017                     	;# 
   864  0018                     	;# 
   865  0019                     	;# 
   866  001A                     	;# 
   867  001B                     	;# 
   868  001C                     	;# 
   869  001E                     	;# 
   870  001F                     	;# 
   871  008C                     	;# 
   872  008D                     	;# 
   873  008E                     	;# 
   874  0091                     	;# 
   875  0092                     	;# 
   876  0093                     	;# 
   877  0095                     	;# 
   878  0096                     	;# 
   879  0097                     	;# 
   880  0098                     	;# 
   881  0099                     	;# 
   882  009A                     	;# 
   883  009B                     	;# 
   884  009B                     	;# 
   885  009C                     	;# 
   886  009D                     	;# 
   887  009E                     	;# 
   888  010C                     	;# 
   889  010D                     	;# 
   890  010E                     	;# 
   891  0111                     	;# 
   892  0112                     	;# 
   893  0113                     	;# 
   894  0114                     	;# 
   895  0115                     	;# 
   896  0116                     	;# 
   897  0117                     	;# 
   898  0118                     	;# 
   899  0119                     	;# 
   900  011A                     	;# 
   901  011B                     	;# 
   902  011D                     	;# 
   903  011E                     	;# 
   904  018C                     	;# 
   905  018D                     	;# 
   906  018E                     	;# 
   907  0191                     	;# 
   908  0191                     	;# 
   909  0192                     	;# 
   910  0193                     	;# 
   911  0193                     	;# 
   912  0193                     	;# 
   913  0194                     	;# 
   914  0195                     	;# 
   915  0196                     	;# 
   916  0199                     	;# 
   917  019A                     	;# 
   918  019B                     	;# 
   919  019B                     	;# 
   920  019B                     	;# 
   921  019B                     	;# 
   922  019C                     	;# 
   923  019C                     	;# 
   924  019D                     	;# 
   925  019E                     	;# 
   926  019F                     	;# 
   927  020C                     	;# 
   928  020D                     	;# 
   929  020E                     	;# 
   930  0211                     	;# 
   931  0211                     	;# 
   932  0212                     	;# 
   933  0212                     	;# 
   934  0213                     	;# 
   935  0213                     	;# 
   936  0214                     	;# 
   937  0214                     	;# 
   938  0215                     	;# 
   939  0215                     	;# 
   940  0215                     	;# 
   941  0215                     	;# 
   942  0216                     	;# 
   943  0216                     	;# 
   944  0217                     	;# 
   945  0217                     	;# 
   946  0291                     	;# 
   947  0291                     	;# 
   948  0292                     	;# 
   949  0293                     	;# 
   950  0294                     	;# 
   951  0295                     	;# 
   952  0295                     	;# 
   953  0296                     	;# 
   954  0298                     	;# 
   955  0298                     	;# 
   956  0299                     	;# 
   957  029A                     	;# 
   958  029B                     	;# 
   959  029C                     	;# 
   960  029D                     	;# 
   961  029E                     	;# 
   962  029E                     	;# 
   963  0311                     	;# 
   964  0311                     	;# 
   965  0312                     	;# 
   966  0313                     	;# 
   967  0318                     	;# 
   968  0318                     	;# 
   969  0319                     	;# 
   970  031A                     	;# 
   971  038C                     	;# 
   972  038D                     	;# 
   973  038E                     	;# 
   974  0391                     	;# 
   975  0392                     	;# 
   976  0393                     	;# 
   977  0394                     	;# 
   978  0395                     	;# 
   979  0396                     	;# 
   980  039A                     	;# 
   981  039C                     	;# 
   982  039D                     	;# 
   983  039E                     	;# 
   984  039F                     	;# 
   985  0415                     	;# 
   986  0416                     	;# 
   987  0417                     	;# 
   988  041C                     	;# 
   989  041D                     	;# 
   990  041E                     	;# 
   991  0FE4                     	;# 
   992  0FE5                     	;# 
   993  0FE6                     	;# 
   994  0FE7                     	;# 
   995  0FE8                     	;# 
   996  0FE9                     	;# 
   997  0FEA                     	;# 
   998  0FEB                     	;# 
   999  0FED                     	;# 
  1000  0FEE                     	;# 
  1001  0FEF                     	;# 
  1002  0000                     	;# 
  1003  0001                     	;# 
  1004  0002                     	;# 
  1005  0003                     	;# 
  1006  0004                     	;# 
  1007  0005                     	;# 
  1008  0006                     	;# 
  1009  0007                     	;# 
  1010  0008                     	;# 
  1011  0009                     	;# 
  1012  000A                     	;# 
  1013  000B                     	;# 
  1014  000C                     	;# 
  1015  000D                     	;# 
  1016  000E                     	;# 
  1017  0011                     	;# 
  1018  0012                     	;# 
  1019  0013                     	;# 
  1020  0015                     	;# 
  1021  0016                     	;# 
  1022  0016                     	;# 
  1023  0017                     	;# 
  1024  0018                     	;# 
  1025  0019                     	;# 
  1026  001A                     	;# 
  1027  001B                     	;# 
  1028  001C                     	;# 
  1029  001E                     	;# 
  1030  001F                     	;# 
  1031  008C                     	;# 
  1032  008D                     	;# 
  1033  008E                     	;# 
  1034  0091                     	;# 
  1035  0092                     	;# 
  1036  0093                     	;# 
  1037  0095                     	;# 
  1038  0096                     	;# 
  1039  0097                     	;# 
  1040  0098                     	;# 
  1041  0099                     	;# 
  1042  009A                     	;# 
  1043  009B                     	;# 
  1044  009B                     	;# 
  1045  009C                     	;# 
  1046  009D                     	;# 
  1047  009E                     	;# 
  1048  010C                     	;# 
  1049  010D                     	;# 
  1050  010E                     	;# 
  1051  0111                     	;# 
  1052  0112                     	;# 
  1053  0113                     	;# 
  1054  0114                     	;# 
  1055  0115                     	;# 
  1056  0116                     	;# 
  1057  0117                     	;# 
  1058  0118                     	;# 
  1059  0119                     	;# 
  1060  011A                     	;# 
  1061  011B                     	;# 
  1062  011D                     	;# 
  1063  011E                     	;# 
  1064  018C                     	;# 
  1065  018D                     	;# 
  1066  018E                     	;# 
  1067  0191                     	;# 
  1068  0191                     	;# 
  1069  0192                     	;# 
  1070  0193                     	;# 
  1071  0193                     	;# 
  1072  0193                     	;# 
  1073  0194                     	;# 
  1074  0195                     	;# 
  1075  0196                     	;# 
  1076  0199                     	;# 
  1077  019A                     	;# 
  1078  019B                     	;# 
  1079  019B                     	;# 
  1080  019B                     	;# 
  1081  019B                     	;# 
  1082  019C                     	;# 
  1083  019C                     	;# 
  1084  019D                     	;# 
  1085  019E                     	;# 
  1086  019F                     	;# 
  1087  020C                     	;# 
  1088  020D                     	;# 
  1089  020E                     	;# 
  1090  0211                     	;# 
  1091  0211                     	;# 
  1092  0212                     	;# 
  1093  0212                     	;# 
  1094  0213                     	;# 
  1095  0213                     	;# 
  1096  0214                     	;# 
  1097  0214                     	;# 
  1098  0215                     	;# 
  1099  0215                     	;# 
  1100  0215                     	;# 
  1101  0215                     	;# 
  1102  0216                     	;# 
  1103  0216                     	;# 
  1104  0217                     	;# 
  1105  0217                     	;# 
  1106  0291                     	;# 
  1107  0291                     	;# 
  1108  0292                     	;# 
  1109  0293                     	;# 
  1110  0294                     	;# 
  1111  0295                     	;# 
  1112  0295                     	;# 
  1113  0296                     	;# 
  1114  0298                     	;# 
  1115  0298                     	;# 
  1116  0299                     	;# 
  1117  029A                     	;# 
  1118  029B                     	;# 
  1119  029C                     	;# 
  1120  029D                     	;# 
  1121  029E                     	;# 
  1122  029E                     	;# 
  1123  0311                     	;# 
  1124  0311                     	;# 
  1125  0312                     	;# 
  1126  0313                     	;# 
  1127  0318                     	;# 
  1128  0318                     	;# 
  1129  0319                     	;# 
  1130  031A                     	;# 
  1131  038C                     	;# 
  1132  038D                     	;# 
  1133  038E                     	;# 
  1134  0391                     	;# 
  1135  0392                     	;# 
  1136  0393                     	;# 
  1137  0394                     	;# 
  1138  0395                     	;# 
  1139  0396                     	;# 
  1140  039A                     	;# 
  1141  039C                     	;# 
  1142  039D                     	;# 
  1143  039E                     	;# 
  1144  039F                     	;# 
  1145  0415                     	;# 
  1146  0416                     	;# 
  1147  0417                     	;# 
  1148  041C                     	;# 
  1149  041D                     	;# 
  1150  041E                     	;# 
  1151  0FE4                     	;# 
  1152  0FE5                     	;# 
  1153  0FE6                     	;# 
  1154  0FE7                     	;# 
  1155  0FE8                     	;# 
  1156  0FE9                     	;# 
  1157  0FEA                     	;# 
  1158  0FEB                     	;# 
  1159  0FED                     	;# 
  1160  0FEE                     	;# 
  1161  0FEF                     	;_SIM800L
  1162  0011                     _PIR1bits	set	17
  1163  000D                     _PORTBbits	set	13
  1164  005F                     _GIE	set	95
  1165  005E                     _PEIE	set	94
  1166  008D                     _RCIF	set	141
  1167  0099                     _OSCCON	set	153
  1168  048D                     _RCIE	set	1165
  1169  0464                     _TRISA4	set	1124
  1170  046C                     _TRISB4	set	1132
  1171  046E                     _TRISB6	set	1134
  1172  046F                     _TRISB7	set	1135
  1173  0470                     _TRISC0	set	1136
  1174  0471                     _TRISC1	set	1137
  1175  0472                     _TRISC2	set	1138
  1176  0474                     _TRISC4	set	1140
  1177  0475                     _TRISC5	set	1141
  1178  0476                     _TRISC6	set	1142
  1179  0477                     _TRISC7	set	1143
  1180  011D                     _APFCON0bits	set	285
  1181  010C                     _LATAbits	set	268
  1182  010D                     _LATBbits	set	269
  1183  010E                     _LATCbits	set	270
  1184  018D                     _ANSELB	set	397
  1185  019F                     _BAUDCONbits	set	415
  1186  0199                     _RCREG	set	409
  1187  019D                     _RCSTAbits	set	413
  1188  019B                     _SPBRG	set	411
  1189  019A                     _TXREG	set	410
  1190  019E                     _TXSTAbits	set	414
  1191                           
  1192                           	psect	stringtext
  1193  0500                     __pstringtext:	
  1194  0500                     __stringdata:	
  1195  0500                     STR_4:	
  1196  0500  3443               	retlw	67	;'C'
  1197  0501  346F               	retlw	111	;'o'
  1198  0502  346D               	retlw	109	;'m'
  1199  0503  346D               	retlw	109	;'m'
  1200  0504  3461               	retlw	97	;'a'
  1201  0505  346E               	retlw	110	;'n'
  1202  0506  3464               	retlw	100	;'d'
  1203  0507  3420               	retlw	32	;' '
  1204  0508  3472               	retlw	114	;'r'
  1205  0509  3465               	retlw	101	;'e'
  1206  050A  3463               	retlw	99	;'c'
  1207  050B  3465               	retlw	101	;'e'
  1208  050C  3469               	retlw	105	;'i'
  1209  050D  3476               	retlw	118	;'v'
  1210  050E  3465               	retlw	101	;'e'
  1211  050F  3464               	retlw	100	;'d'
  1212  0510  3400               	retlw	0
  1213  0511                     STR_8:	
  1214  0511  3441               	retlw	65	;'A'
  1215  0512  3454               	retlw	84	;'T'
  1216  0513  342B               	retlw	43	;'+'
  1217  0514  3443               	retlw	67	;'C'
  1218  0515  344D               	retlw	77	;'M'
  1219  0516  3447               	retlw	71	;'G'
  1220  0517  3446               	retlw	70	;'F'
  1221  0518  3420               	retlw	32	;' '
  1222  0519  343D               	retlw	61	;'='
  1223  051A  3420               	retlw	32	;' '
  1224  051B  3431               	retlw	49	;'1'
  1225  051C  340D               	retlw	13
  1226  051D  340A               	retlw	10
  1227  051E  3400               	retlw	0
  1228  051F                     STR_3:	
  1229  051F  342B               	retlw	43	;'+'
  1230  0520  3435               	retlw	53	;'5'
  1231  0521  3432               	retlw	50	;'2'
  1232  0522  3436               	retlw	54	;'6'
  1233  0523  3431               	retlw	49	;'1'
  1234  0524  3434               	retlw	52	;'4'
  1235  0525  3431               	retlw	49	;'1'
  1236  0526  3436               	retlw	54	;'6'
  1237  0527  3435               	retlw	53	;'5'
  1238  0528  3434               	retlw	52	;'4'
  1239  0529  3438               	retlw	56	;'8'
  1240  052A  3431               	retlw	49	;'1'
  1241  052B  3438               	retlw	56	;'8'
  1242  052C  3400               	retlw	0
  1243  052D                     STR_9:	
  1244  052D  3441               	retlw	65	;'A'
  1245  052E  3454               	retlw	84	;'T'
  1246  052F  342B               	retlw	43	;'+'
  1247  0530  3443               	retlw	67	;'C'
  1248  0531  344D               	retlw	77	;'M'
  1249  0532  3447               	retlw	71	;'G'
  1250  0533  3453               	retlw	83	;'S'
  1251  0534  343D               	retlw	61	;'='
  1252  0535  3422               	retlw	34	;'"'
  1253  0536  3400               	retlw	0
  1254  0537                     STR_15:	
  1255  0537  3441               	retlw	65	;'A'
  1256  0538  3454               	retlw	84	;'T'
  1257  0539  342B               	retlw	43	;'+'
  1258  053A  3443               	retlw	67	;'C'
  1259  053B  344D               	retlw	77	;'M'
  1260  053C  3447               	retlw	71	;'G'
  1261  053D  3444               	retlw	68	;'D'
  1262  053E  343D               	retlw	61	;'='
  1263  053F  3400               	retlw	0
  1264  0540                     STR_12:	
  1265  0540  3441               	retlw	65	;'A'
  1266  0541  3454               	retlw	84	;'T'
  1267  0542  342B               	retlw	43	;'+'
  1268  0543  3443               	retlw	67	;'C'
  1269  0544  344D               	retlw	77	;'M'
  1270  0545  3447               	retlw	71	;'G'
  1271  0546  3452               	retlw	82	;'R'
  1272  0547  343D               	retlw	61	;'='
  1273  0548  3400               	retlw	0
  1274  0549                     STR_1:	
  1275  0549  3441               	retlw	65	;'A'
  1276  054A  3454               	retlw	84	;'T'
  1277  054B  342B               	retlw	43	;'+'
  1278  054C  3443               	retlw	67	;'C'
  1279  054D  3453               	retlw	83	;'S'
  1280  054E  3451               	retlw	81	;'Q'
  1281  054F  340D               	retlw	13
  1282  0550  340A               	retlw	10
  1283  0551  3400               	retlw	0
  1284  0552                     STR_6:	
  1285  0552  3441               	retlw	65	;'A'
  1286  0553  3454               	retlw	84	;'T'
  1287  0554  3445               	retlw	69	;'E'
  1288  0555  3430               	retlw	48	;'0'
  1289  0556  340D               	retlw	13
  1290  0557  340A               	retlw	10
  1291  0558  3400               	retlw	0
  1292  0559                     STR_2:	
  1293  0559  3441               	retlw	65	;'A'
  1294  055A  3454               	retlw	84	;'T'
  1295  055B  3448               	retlw	72	;'H'
  1296  055C  340D               	retlw	13
  1297  055D  340A               	retlw	10
  1298  055E  3400               	retlw	0
  1299  055F                     STR_5:	
  1300  055F  3441               	retlw	65	;'A'
  1301  0560  3454               	retlw	84	;'T'
  1302  0561  340D               	retlw	13
  1303  0562  340A               	retlw	10
  1304  0563  3400               	retlw	0
  1305  0564                     STR_7:	
  1306  0564  3441               	retlw	65	;'A'
  1307  0565  3454               	retlw	84	;'T'
  1308  0566  340A               	retlw	10
  1309  0567  340D               	retlw	13
  1310  0568  3400               	retlw	0
  1311  0569                     STR_10:	
  1312  0569  3422               	retlw	34	;'"'
  1313  056A  340D               	retlw	13
  1314  056B  340A               	retlw	10
  1315  056C  3400               	retlw	0
  1316  056D                     __end_of__stringdata:	
  1317                           
  1318                           ; #config settings
  1319  0000                     
  1320                           	psect	cinit
  1321  0018                     start_initialization:	
  1322  0018                     __initialization:		;BIGRAM
  1323                           
  1324                           ; Clear objects allocated to BIGRAM
  1325  0018  3078               	movlw	low (0+8312)
  1326  0019  0084               	movwf	4
  1327  001A  3020               	movlw	high (0+8312)
  1328  001B  0085               	movwf	5
  1329  001C  3078               	movlw	120
  1330  001D  00FE               	movwf	btemp
  1331  001E  3000               	movlw	0
  1332  001F  00FF               	movwf	btemp+1
  1333  0020  318E  269B         	fcall	clear_ram0
  1334                           
  1335                           ; Clear objects allocated to BANK0
  1336  0022  01CF               	clrf	__pbssBANK0& (0+127)
  1337  0023  01D0               	clrf	(__pbssBANK0+1)& (0+127)
  1338  0024  01D1               	clrf	(__pbssBANK0+2)& (0+127)
  1339  0025  01D2               	clrf	(__pbssBANK0+3)& (0+127)
  1340  0026  01D3               	clrf	(__pbssBANK0+4)& (0+127)
  1341  0027  01D4               	clrf	(__pbssBANK0+5)& (0+127)
  1342  0028  01D5               	clrf	(__pbssBANK0+6)& (0+127)
  1343  0029  01D6               	clrf	(__pbssBANK0+7)& (0+127)
  1344  002A                     end_of_initialization:	
  1345                           ;End of C runtime variable initialization code
  1346                           
  1347  002A                     __end_of__initialization:	
  1348  002A  107E               	bcf	pic14e$flags,0	;clear compiler interrupt flag
  1349  002B  0020               	movlb	0
  1350  002C  3182  2AB3         	ljmp	_main	;jump to C main() function
  1351                           
  1352                           	psect	bssBANK0
  1353  004F                     __pbssBANK0:	
  1354  004F                     USARTWriteInt@F3219:	
  1355  004F                     	ds	5
  1356  0054                     _bufque:	
  1357  0054                     	ds	1
  1358  0055                     _i:	
  1359  0055                     	ds	1
  1360  0056                     _task:	
  1361  0056                     	ds	1
  1362                           
  1363                           	psect	clrtext
  1364  0E9B                     clear_ram0:	
  1365                           ;	Called with FSR0 containing the base address, and
  1366                           ;	btemp/btemp+1 has the size to clear
  1367                           
  1368  0E9B  0064               	clrwdt	;clear the watchdog before getting into this loop
  1369  0E9C                     clrloop0:	
  1370  0E9C  0180               	clrf	0	;clear RAM location pointed to by FSR
  1371  0E9D  3101               	addfsr 0,1
  1372  0E9E  3001               	movlw	1
  1373  0E9F  02FE               	subwf	126,f
  1374  0EA0  3000               	movlw	0
  1375  0EA1  3BFF               	subwfb	127,f
  1376  0EA2  087F               	movf	127,w
  1377  0EA3  047E               	iorwf	126,w
  1378  0EA4  1903               	btfsc	3,2
  1379  0EA5  3400               	retlw	0	;all done for this memory range, return
  1380  0EA6  2E9C               	goto	clrloop0	;have we reached the end yet?
  1381                           
  1382                           	psect	cstackCOMMON
  1383  0070                     __pcstackCOMMON:	
  1384  0070                     ?_SYSTEMInit:	
  1385  0070                     ?_GPIOPortInit:	
  1386                           ; 0 bytes @ 0x0
  1387                           
  1388  0070                     ?_GPIORedLedBlink:	
  1389                           ; 0 bytes @ 0x0
  1390                           
  1391  0070                     ?_USARTClearSIM800L:	
  1392                           ; 0 bytes @ 0x0
  1393                           
  1394  0070                     ?_GPIOBlueLedBlink:	
  1395                           ; 0 bytes @ 0x0
  1396                           
  1397  0070                     ?_USARTHandleRxInt:	
  1398                           ; 0 bytes @ 0x0
  1399                           
  1400  0070                     ??_USARTHandleRxInt:	
  1401                           ; 0 bytes @ 0x0
  1402                           
  1403  0070                     ?_USARTWriteChar:	
  1404                           ; 0 bytes @ 0x0
  1405                           
  1406  0070                     ?_main:	
  1407                           ; 0 bytes @ 0x0
  1408                           
  1409  0070                     ?_EepromStart:	
  1410                           ; 0 bytes @ 0x0
  1411                           
  1412  0070                     ?_EepromEnd:	
  1413                           ; 0 bytes @ 0x0
  1414                           
  1415  0070                     ?_EepromSend:	
  1416                           ; 0 bytes @ 0x0
  1417                           
  1418  0070                     ?_ISR:	
  1419                           ; 0 bytes @ 0x0
  1420                           
  1421  0070                     ?_SIM800init:	
  1422                           ; 0 bytes @ 0x0
  1423                           
  1424  0070                     ?_SIM800Command:	
  1425                           ; 1 bytes @ 0x0
  1426                           
  1427  0070                     ?_EepromReceive:	
  1428                           ; 1 bytes @ 0x0
  1429                           
  1430                           
  1431                           ; 1 bytes @ 0x0
  1432  0070                     	ds	11
  1433  007B                     ??_ISR:	
  1434                           
  1435                           ; 0 bytes @ 0xB
  1436  007B                     	ds	1
  1437                           
  1438                           	psect	cstackBANK0
  1439  0020                     __pcstackBANK0:	
  1440  0020                     USARTHandleRxInt@data:	
  1441                           
  1442                           ; 1 bytes @ 0x0
  1443  0020                     	ds	1
  1444  0021                     USARTHandleRxInt@ci:	
  1445                           
  1446                           ; 1 bytes @ 0x1
  1447  0021                     	ds	1
  1448  0022                     USARTHandleRxInt@ci_580:	
  1449                           
  1450                           ; 1 bytes @ 0x2
  1451  0022                     	ds	1
  1452  0023                     USARTHandleRxInt@ci_578:	
  1453                           
  1454                           ; 1 bytes @ 0x3
  1455  0023                     	ds	1
  1456  0024                     USARTHandleRxInt@ci_579:	
  1457                           
  1458                           ; 1 bytes @ 0x4
  1459  0024                     	ds	1
  1460  0025                     ??_SYSTEMInit:	
  1461  0025                     ?_USARTInit:	
  1462                           ; 0 bytes @ 0x5
  1463                           
  1464  0025                     ??_GPIOPortInit:	
  1465                           ; 0 bytes @ 0x5
  1466                           
  1467  0025                     ??_GPIORedLedBlink:	
  1468                           ; 0 bytes @ 0x5
  1469                           
  1470  0025                     ??_USARTClearSIM800L:	
  1471                           ; 0 bytes @ 0x5
  1472                           
  1473  0025                     ??_GPIOBlueLedBlink:	
  1474                           ; 0 bytes @ 0x5
  1475                           
  1476  0025                     ??_USARTWriteChar:	
  1477                           ; 0 bytes @ 0x5
  1478                           
  1479  0025                     ??_EepromStart:	
  1480                           ; 0 bytes @ 0x5
  1481                           
  1482  0025                     ??_EepromEnd:	
  1483                           ; 0 bytes @ 0x5
  1484                           
  1485  0025                     ??_EepromSend:	
  1486                           ; 0 bytes @ 0x5
  1487                           
  1488  0025                     ??_EepromReceive:	
  1489                           ; 0 bytes @ 0x5
  1490                           
  1491  0025                     ?_EepromOpCode:	
  1492                           ; 0 bytes @ 0x5
  1493                           
  1494  0025                     ?___wmul:	
  1495                           ; 0 bytes @ 0x5
  1496                           
  1497  0025                     ?___lwdiv:	
  1498                           ; 2 bytes @ 0x5
  1499                           
  1500  0025                     SYSTEMInit@freq:	
  1501                           ; 2 bytes @ 0x5
  1502                           
  1503  0025                     USARTWriteChar@ch:	
  1504                           ; 1 bytes @ 0x5
  1505                           
  1506  0025                     EepromOpCode@address:	
  1507                           ; 1 bytes @ 0x5
  1508                           
  1509  0025                     USARTInit@baud_rate:	
  1510                           ; 2 bytes @ 0x5
  1511                           
  1512  0025                     ___wmul@multiplier:	
  1513                           ; 2 bytes @ 0x5
  1514                           
  1515  0025                     ___lwdiv@divisor:	
  1516                           ; 2 bytes @ 0x5
  1517                           
  1518                           
  1519                           ; 2 bytes @ 0x5
  1520  0025                     	ds	1
  1521  0026                     ?_USARTWriteString:	
  1522  0026                     USARTWriteString@str:	
  1523                           ; 0 bytes @ 0x6
  1524                           
  1525                           
  1526                           ; 2 bytes @ 0x6
  1527  0026                     	ds	1
  1528  0027                     ??_USARTInit:	
  1529  0027                     ??_EepromOpCode:	
  1530                           ; 0 bytes @ 0x7
  1531                           
  1532  0027                     EepromSend@b:	
  1533                           ; 0 bytes @ 0x7
  1534                           
  1535  0027                     EepromReceive@b:	
  1536                           ; 1 bytes @ 0x7
  1537                           
  1538  0027                     ___wmul@multiplicand:	
  1539                           ; 1 bytes @ 0x7
  1540                           
  1541  0027                     ___lwdiv@dividend:	
  1542                           ; 2 bytes @ 0x7
  1543                           
  1544                           
  1545                           ; 2 bytes @ 0x7
  1546  0027                     	ds	1
  1547  0028                     ?_USARTWriteLine:	
  1548  0028                     ??_USARTWriteString:	
  1549                           ; 0 bytes @ 0x8
  1550                           
  1551  0028                     EepromSend@i:	
  1552                           ; 0 bytes @ 0x8
  1553                           
  1554  0028                     EepromReceive@i:	
  1555                           ; 1 bytes @ 0x8
  1556                           
  1557  0028                     GPIORedLedBlink@times:	
  1558                           ; 1 bytes @ 0x8
  1559                           
  1560  0028                     GPIOBlueLedBlink@times:	
  1561                           ; 1 bytes @ 0x8
  1562                           
  1563  0028                     USARTWriteLine@str:	
  1564                           ; 1 bytes @ 0x8
  1565                           
  1566                           
  1567                           ; 2 bytes @ 0x8
  1568  0028                     	ds	1
  1569  0029                     ??___wmul:	
  1570  0029                     ??___lwdiv:	
  1571                           ; 0 bytes @ 0x9
  1572                           
  1573  0029                     GPIORedLedBlink@i:	
  1574                           ; 0 bytes @ 0x9
  1575                           
  1576  0029                     GPIOBlueLedBlink@i:	
  1577                           ; 1 bytes @ 0x9
  1578                           
  1579  0029                     USARTClearSIM800L@i:	
  1580                           ; 1 bytes @ 0x9
  1581                           
  1582  0029                     ___wmul@product:	
  1583                           ; 1 bytes @ 0x9
  1584                           
  1585                           
  1586                           ; 2 bytes @ 0x9
  1587  0029                     	ds	1
  1588  002A                     ??_SIM800init:	
  1589  002A                     ??_USARTWriteLine:	
  1590                           ; 0 bytes @ 0xA
  1591                           
  1592  002A                     ?_SIM800ReadSms:	
  1593                           ; 0 bytes @ 0xA
  1594                           
  1595  002A                     ?_SIM800SendSms:	
  1596                           ; 1 bytes @ 0xA
  1597                           
  1598  002A                     EepromOpCode@opcode:	
  1599                           ; 1 bytes @ 0xA
  1600                           
  1601  002A                     SIM800SendSms@nmbr:	
  1602                           ; 1 bytes @ 0xA
  1603                           
  1604  002A                     SIM800ReadSms@mem:	
  1605                           ; 2 bytes @ 0xA
  1606                           
  1607  002A                     ___lwdiv@quotient:	
  1608                           ; 2 bytes @ 0xA
  1609                           
  1610                           
  1611                           ; 2 bytes @ 0xA
  1612  002A                     	ds	1
  1613  002B                     EepromOpCode@i:	
  1614                           
  1615                           ; 1 bytes @ 0xB
  1616  002B                     	ds	1
  1617  002C                     ??_SIM800ReadSms:	
  1618  002C                     ?_EepromWrite:	
  1619                           ; 0 bytes @ 0xC
  1620                           
  1621  002C                     ?_EepromRead:	
  1622                           ; 0 bytes @ 0xC
  1623                           
  1624  002C                     ___lwdiv@counter:	
  1625                           ; 1 bytes @ 0xC
  1626                           
  1627  002C                     EepromWrite@address:	
  1628                           ; 1 bytes @ 0xC
  1629                           
  1630  002C                     EepromRead@address:	
  1631                           ; 2 bytes @ 0xC
  1632                           
  1633  002C                     SIM800SendSms@msg:	
  1634                           ; 2 bytes @ 0xC
  1635                           
  1636                           
  1637                           ; 2 bytes @ 0xC
  1638  002C                     	ds	2
  1639  002E                     ??_SIM800SendSms:	
  1640  002E                     ??_EepromRead:	
  1641                           ; 0 bytes @ 0xE
  1642                           
  1643  002E                     EepromWrite@data:	
  1644                           ; 0 bytes @ 0xE
  1645                           
  1646                           
  1647                           ; 1 bytes @ 0xE
  1648  002E                     	ds	1
  1649  002F                     ??_EepromWrite:	
  1650  002F                     ?_EEPROMSaveNumber:	
  1651                           ; 0 bytes @ 0xF
  1652                           
  1653  002F                     EepromRead@data:	
  1654                           ; 1 bytes @ 0xF
  1655                           
  1656  002F                     EEPROMSaveNumber@nmbr:	
  1657                           ; 1 bytes @ 0xF
  1658                           
  1659                           
  1660                           ; 2 bytes @ 0xF
  1661  002F                     	ds	1
  1662  0030                     ?_EEPROMSearchNumber:	
  1663  0030                     EEPROMSearchNumber@nmbr:	
  1664                           ; 1 bytes @ 0x10
  1665                           
  1666                           
  1667                           ; 2 bytes @ 0x10
  1668  0030                     	ds	1
  1669  0031                     EEPROMSaveNumber@nmbrLenght:	
  1670                           
  1671                           ; 1 bytes @ 0x11
  1672  0031                     	ds	1
  1673  0032                     EEPROMSearchNumber@nmbrLenght:	
  1674  0032                     EEPROMSaveNumber@position:	
  1675                           ; 1 bytes @ 0x12
  1676                           
  1677                           
  1678                           ; 2 bytes @ 0x12
  1679  0032                     	ds	1
  1680  0033                     ??_EEPROMSearchNumber:	
  1681                           
  1682                           ; 0 bytes @ 0x13
  1683  0033                     	ds	1
  1684  0034                     ??_EEPROMSaveNumber:	
  1685                           
  1686                           ; 0 bytes @ 0x14
  1687  0034                     	ds	3
  1688  0037                     EEPROMSaveNumber@result:	
  1689                           
  1690                           ; 1 bytes @ 0x17
  1691  0037                     	ds	1
  1692  0038                     EEPROMSaveNumber@count:	
  1693                           
  1694                           ; 1 bytes @ 0x18
  1695  0038                     	ds	1
  1696  0039                     EEPROMSearchNumber@count:	
  1697  0039                     EEPROMSaveNumber@address:	
  1698                           ; 1 bytes @ 0x19
  1699                           
  1700                           
  1701                           ; 2 bytes @ 0x19
  1702  0039                     	ds	1
  1703  003A                     EEPROMSearchNumber@result:	
  1704                           
  1705                           ; 1 bytes @ 0x1A
  1706  003A                     	ds	1
  1707  003B                     ?_EEPROMAdd:	
  1708  003B                     EEPROMSearchNumber@aux:	
  1709                           ; 1 bytes @ 0x1B
  1710                           
  1711  003B                     EEPROMAdd@nmbr:	
  1712                           ; 2 bytes @ 0x1B
  1713                           
  1714                           
  1715                           ; 2 bytes @ 0x1B
  1716  003B                     	ds	2
  1717  003D                     EEPROMAdd@nmbrLenght:	
  1718                           
  1719                           ; 1 bytes @ 0x1D
  1720  003D                     	ds	1
  1721  003E                     ??_EEPROMAdd:	
  1722                           
  1723                           ; 0 bytes @ 0x1E
  1724  003E                     	ds	1
  1725  003F                     EEPROMAdd@empty:	
  1726                           
  1727                           ; 2 bytes @ 0x1F
  1728  003F                     	ds	2
  1729  0041                     ??_SIM800Command:	
  1730                           
  1731                           ; 0 bytes @ 0x21
  1732  0041                     	ds	11
  1733  004C                     ??_main:	
  1734                           
  1735                           ; 0 bytes @ 0x2C
  1736  004C                     	ds	3
  1737                           
  1738                           	psect	maintext
  1739  02B3                     __pmaintext:	
  1740 ;;
  1741 ;;Main: autosize = 0, tempsize = 3, incstack = 0, save=0
  1742 ;;
  1743 ;; *************** function _main *****************
  1744 ;; Defined at:
  1745 ;;		line 15 in file "main.c"
  1746 ;; Parameters:    Size  Location     Type
  1747 ;;		None
  1748 ;; Auto vars:     Size  Location     Type
  1749 ;;		None
  1750 ;; Return value:  Size  Location     Type
  1751 ;;		None               void
  1752 ;; Registers used:
  1753 ;;		wreg, fsr0l, fsr0h, fsr1l, fsr1h, status,2, status,0, pclath, cstack
  1754 ;; Tracked objects:
  1755 ;;		On entry : 17F/0
  1756 ;;		On exit  : 0/0
  1757 ;;		Unchanged: 0/0
  1758 ;; Data sizes:     COMMON   BANK0   BANK1   BANK2
  1759 ;;      Params:         0       0       0       0
  1760 ;;      Locals:         0       0       0       0
  1761 ;;      Temps:          0       3       0       0
  1762 ;;      Totals:         0       3       0       0
  1763 ;;Total ram usage:        3 bytes
  1764 ;; Hardware stack levels required when called:    7
  1765 ;; This function calls:
  1766 ;;		_EEPROMSearchNumber
  1767 ;;		_GPIOBlueLedBlink
  1768 ;;		_GPIOPortInit
  1769 ;;		_GPIORedLedBlink
  1770 ;;		_SIM800Command
  1771 ;;		_SIM800ReadSms
  1772 ;;		_SIM800SendSms
  1773 ;;		_SIM800init
  1774 ;;		_SYSTEMInit
  1775 ;;		_USARTClearSIM800L
  1776 ;;		_USARTInit
  1777 ;;		_USARTWriteLine
  1778 ;; This function is called by:
  1779 ;;		Startup code after reset
  1780 ;; This function uses a non-reentrant model
  1781 ;;
  1782                           
  1783                           
  1784                           ;psect for function _main
  1785  02B3                     _main:	
  1786                           
  1787                           ;main.c: 17: SYSTEMInit(8);
  1788                           
  1789                           ;incstack = 0
  1790                           ; Regs used in _main: [wreg-fsr1h+status,2+status,0+pclath+cstack]
  1791  02B3  3008               	movlw	8
  1792  02B4  318F  2710  3182   	fcall	_SYSTEMInit
  1793                           
  1794                           ;main.c: 18: USARTInit(115);
  1795  02B7  3073               	movlw	115
  1796  02B8  0020               	movlb	0	; select bank0
  1797  02B9  00A5               	movwf	USARTInit@baud_rate
  1798  02BA  3000               	movlw	0
  1799  02BB  00A6               	movwf	USARTInit@baud_rate+1
  1800  02BC  3187  2791  3182   	fcall	_USARTInit
  1801                           
  1802                           ;main.c: 19: GPIOPortInit();
  1803  02BF  318E  26A7  3182   	fcall	_GPIOPortInit
  1804                           
  1805                           ;main.c: 20: SIM800init();
  1806  02C2  3186  269F  3182   	fcall	_SIM800init
  1807                           
  1808                           ;main.c: 22: LATCbits.LATC0=0;
  1809  02C5  0022               	movlb	2	; select bank2
  1810  02C6  100E               	bcf	14,0	;volatile
  1811                           
  1812                           ;main.c: 23: LATCbits.LATC1=0;
  1813  02C7  108E               	bcf	14,1	;volatile
  1814                           
  1815                           ;main.c: 25: (GIE = 1);
  1816  02C8  178B               	bsf	11,7	;volatile
  1817                           
  1818                           ;main.c: 26: RCSTAbits.CREN=1;
  1819  02C9  0023               	movlb	3	; select bank3
  1820  02CA  161D               	bsf	29,4	;volatile
  1821                           
  1822                           ;main.c: 29: {
  1823                           ;main.c: 30: switch(task)
  1824                           
  1825                           ;main.c: 28: while(1)
  1826  02CB  2B3F               	goto	l2339
  1827  02CC                     l2303:	
  1828                           ;main.c: 31: {
  1829                           ;main.c: 32: case 0:
  1830                           
  1831                           
  1832                           ;main.c: 33: USARTWriteLine("AT+CSQ\r\n");
  1833  02CC  3049               	movlw	low (STR_1| (0+32768))
  1834  02CD  0020               	movlb	0	; select bank0
  1835  02CE  00A8               	movwf	USARTWriteLine@str
  1836  02CF  3085               	movlw	high (STR_1| (0+32768))
  1837  02D0  00A9               	movwf	USARTWriteLine@str+1
  1838  02D1  318E  26B7  3182   	fcall	_USARTWriteLine
  1839                           
  1840                           ;main.c: 34: _delay((unsigned long)((2000)*(8000000/4000.0)));
  1841  02D4  3015               	movlw	21
  1842  02D5  0020               	movlb	0	; select bank0
  1843  02D6  00CE               	movwf	??_main+2
  1844  02D7  304B               	movlw	75
  1845  02D8  00CD               	movwf	??_main+1
  1846  02D9  30D1               	movlw	209
  1847  02DA  00CC               	movwf	??_main
  1848  02DB                     u2307:	
  1849  02DB  0BCC               	decfsz	??_main,f
  1850  02DC  2ADB               	goto	u2307
  1851  02DD  0BCD               	decfsz	??_main+1,f
  1852  02DE  2ADB               	goto	u2307
  1853  02DF  0BCE               	decfsz	??_main+2,f
  1854  02E0  2ADB               	goto	u2307
  1855  02E1  0000               	nop
  1856                           
  1857                           ;main.c: 35: break;
  1858  02E2  2B3F               	goto	l2339
  1859  02E3                     l2307:	
  1860                           ;main.c: 36: case 1:
  1861                           
  1862                           
  1863                           ;main.c: 37: USARTWriteLine("ATH\r\n");
  1864  02E3  3059               	movlw	low (STR_2| (0+32768))
  1865  02E4  0020               	movlb	0	; select bank0
  1866  02E5  00A8               	movwf	USARTWriteLine@str
  1867  02E6  3085               	movlw	high (STR_2| (0+32768))
  1868  02E7  00A9               	movwf	USARTWriteLine@str+1
  1869  02E8  318E  26B7  3182   	fcall	_USARTWriteLine
  1870                           
  1871                           ;main.c: 38: if(EEPROMSearchNumber(SIM800L.cell,SIM800L.cell_lenght))
  1872  02EB  307C               	movlw	124
  1873  02EC  0020               	movlb	0	; select bank0
  1874  02ED  00B0               	movwf	EEPROMSearchNumber@nmbr
  1875  02EE  3020               	movlw	32
  1876  02EF  00B1               	movwf	EEPROMSearchNumber@nmbr+1
  1877  02F0  3078               	movlw	120
  1878  02F1  0086               	movwf	6
  1879  02F2  3020               	movlw	32
  1880  02F3  0087               	movwf	7
  1881  02F4  3153               	addfsr 1,19
  1882  02F5  0801               	movf	1,w
  1883  02F6  00CC               	movwf	??_main
  1884  02F7  084C               	movf	??_main,w
  1885  02F8  00B2               	movwf	EEPROMSearchNumber@nmbrLenght
  1886  02F9  3184  2451  3182   	fcall	_EEPROMSearchNumber
  1887  02FC  3A00               	xorlw	0
  1888  02FD  1903               	skipnz
  1889  02FE  2B12               	goto	l2317
  1890                           
  1891                           ;main.c: 39: {
  1892                           ;main.c: 40: LATAbits.LATA4=1;
  1893  02FF  0022               	movlb	2	; select bank2
  1894  0300  160C               	bsf	12,4	;volatile
  1895                           
  1896                           ;main.c: 41: _delay((unsigned long)((1000)*(8000000/4000.0)));
  1897  0301  300B               	movlw	11
  1898  0302  0020               	movlb	0	; select bank0
  1899  0303  00CE               	movwf	??_main+2
  1900  0304  3026               	movlw	38
  1901  0305  00CD               	movwf	??_main+1
  1902  0306  3066               	movlw	102
  1903  0307  00CC               	movwf	??_main
  1904  0308                     u2317:	
  1905  0308  0BCC               	decfsz	??_main,f
  1906  0309  2B08               	goto	u2317
  1907  030A  0BCD               	decfsz	??_main+1,f
  1908  030B  2B08               	goto	u2317
  1909  030C  0BCE               	decfsz	??_main+2,f
  1910  030D  2B08               	goto	u2317
  1911  030E  3200               	nop2
  1912                           
  1913                           ;main.c: 42: LATAbits.LATA4=0;
  1914  030F  0022               	movlb	2	; select bank2
  1915  0310  120C               	bcf	12,4	;volatile
  1916                           
  1917                           ;main.c: 43: }
  1918  0311  2B3A               	goto	L1
  1919  0312                     l2317:	
  1920                           
  1921                           ;main.c: 44: else
  1922                           ;main.c: 45: {
  1923                           ;main.c: 46: GPIORedLedBlink(5);
  1924  0312  3005               	movlw	5
  1925  0313  318F  27A4  3182   	fcall	_GPIORedLedBlink
  1926  0316  2B3A               	goto	L1
  1927  0317                     l2323:	
  1928                           ;main.c: 51: case 2:
  1929                           
  1930                           ;main.c: 50: break;
  1931                           
  1932                           ;main.c: 49: task=0;
  1933                           
  1934                           ;main.c: 47: }
  1935                           ;main.c: 48: USARTClearSIM800L();
  1936                           
  1937                           
  1938                           ;main.c: 52: GPIOBlueLedBlink(5);
  1939  0317  3005               	movlw	5
  1940  0318  318F  2776  3182   	fcall	_GPIOBlueLedBlink
  1941                           
  1942                           ;main.c: 53: SIM800ReadSms(SIM800L.smsmem);
  1943  031B  308D               	movlw	141
  1944  031C  0020               	movlb	0	; select bank0
  1945  031D  00AA               	movwf	SIM800ReadSms@mem
  1946  031E  3020               	movlw	32
  1947  031F  00AB               	movwf	SIM800ReadSms@mem+1
  1948  0320  3186  26F8  3182   	fcall	_SIM800ReadSms
  1949                           
  1950                           ;main.c: 55: task=3;
  1951  0323  3003               	movlw	3
  1952  0324  0020               	movlb	0	; select bank0
  1953  0325  00CC               	movwf	??_main
  1954  0326  084C               	movf	??_main,w
  1955  0327  00D6               	movwf	_task
  1956                           
  1957                           ;main.c: 56: break;
  1958  0328  2B3F               	goto	l2339
  1959  0329                     l53:	
  1960                           ;main.c: 57: case 3:
  1961                           
  1962                           
  1963                           ;main.c: 58: LATCbits.LATC0=1;
  1964  0329  0022               	movlb	2	; select bank2
  1965  032A  140E               	bsf	14,0	;volatile
  1966                           
  1967                           ;main.c: 59: SIM800Command();
  1968  032B  3183  234F  3182   	fcall	_SIM800Command
  1969                           
  1970                           ;main.c: 60: SIM800SendSms("+526141654818", "Command received");
  1971  032E  301F               	movlw	low (STR_3| (0+32768))
  1972  032F  0020               	movlb	0	; select bank0
  1973  0330  00AA               	movwf	SIM800SendSms@nmbr
  1974  0331  3085               	movlw	high (STR_3| (0+32768))
  1975  0332  00AB               	movwf	SIM800SendSms@nmbr+1
  1976  0333  3000               	movlw	low (STR_4| (0+32768))
  1977  0334  00AC               	movwf	SIM800SendSms@msg
  1978  0335  3085               	movlw	high (STR_4| (0+32768))
  1979  0336  00AD               	movwf	SIM800SendSms@msg+1
  1980  0337  3185  256D  3182   	fcall	_SIM800SendSms
  1981  033A                     L1:	
  1982                           
  1983                           ;main.c: 61: USARTClearSIM800L();
  1984  033A  3187  2745  3182   	fcall	_USARTClearSIM800L
  1985                           
  1986                           ;main.c: 62: task=0;
  1987  033D  0020               	movlb	0	; select bank0
  1988  033E  01D6               	clrf	_task
  1989  033F                     l2339:	
  1990                           ;main.c: 66: }
  1991                           
  1992                           ;main.c: 65: break;
  1993                           
  1994                           ;main.c: 64: default:
  1995                           
  1996                           ;main.c: 63: break;
  1997                           
  1998  033F  0020               	movlb	0	; select bank0
  1999  0340  0856               	movf	_task,w
  2000                           
  2001                           ; Switch size 1, requested type "space"
  2002                           ; Number of cases is 4, Range of values is 0 to 3
  2003                           ; switch strategies available:
  2004                           ; Name         Instructions Cycles
  2005                           ; simple_byte           13     7 (average)
  2006                           ; direct_byte           14     6 (fixed)
  2007                           ; jumptable            260     6 (fixed)
  2008                           ;	Chosen strategy is simple_byte
  2009  0341  3A00               	xorlw	0	; case 0
  2010  0342  1903               	skipnz
  2011  0343  2ACC               	goto	l2303
  2012  0344  3A01               	xorlw	1	; case 1
  2013  0345  1903               	skipnz
  2014  0346  2AE3               	goto	l2307
  2015  0347  3A03               	xorlw	3	; case 2
  2016  0348  1903               	skipnz
  2017  0349  2B17               	goto	l2323
  2018  034A  3A01               	xorlw	1	; case 3
  2019  034B  1903               	skipnz
  2020  034C  2B29               	goto	l53
  2021  034D  2B3F               	goto	l2339
  2022  034E  2B3F               	goto	l2339
  2023  034F                     __end_of_main:	
  2024                           
  2025                           	psect	text1
  2026  0791                     __ptext1:	
  2027 ;; *************** function _USARTInit *****************
  2028 ;; Defined at:
  2029 ;;		line 6 in file "usart.c"
  2030 ;; Parameters:    Size  Location     Type
  2031 ;;  baud_rate       2    5[BANK0 ] unsigned int 
  2032 ;; Auto vars:     Size  Location     Type
  2033 ;;		None
  2034 ;; Return value:  Size  Location     Type
  2035 ;;		None               void
  2036 ;; Registers used:
  2037 ;;		wreg, fsr0l, fsr0h, status,2, status,0
  2038 ;; Tracked objects:
  2039 ;;		On entry : 0/0
  2040 ;;		On exit  : 0/0
  2041 ;;		Unchanged: 0/0
  2042 ;; Data sizes:     COMMON   BANK0   BANK1   BANK2
  2043 ;;      Params:         0       2       0       0
  2044 ;;      Locals:         0       0       0       0
  2045 ;;      Temps:          0       0       0       0
  2046 ;;      Totals:         0       2       0       0
  2047 ;;Total ram usage:        2 bytes
  2048 ;; Hardware stack levels used:    1
  2049 ;; Hardware stack levels required when called:    2
  2050 ;; This function calls:
  2051 ;;		Nothing
  2052 ;; This function is called by:
  2053 ;;		_main
  2054 ;; This function uses a non-reentrant model
  2055 ;;
  2056                           
  2057                           
  2058                           ;psect for function _USARTInit
  2059  0791                     _USARTInit:	
  2060                           
  2061                           ;usart.c: 9: switch(baud_rate)
  2062                           
  2063                           ;incstack = 0
  2064                           ; Regs used in _USARTInit: [wreg-fsr0h+status,2+status,0]
  2065  0791  2F9E               	goto	l1973
  2066  0792                     l1961:	
  2067                           ;usart.c: 10: {
  2068                           ;usart.c: 11: case 9600:
  2069                           
  2070                           
  2071                           ;usart.c: 12: SPBRG=51;
  2072  0792  3033               	movlw	51
  2073  0793  2F9B               	goto	L5
  2074  0794                     l1963:	
  2075                           ;usart.c: 14: case 19200:
  2076                           
  2077                           ;usart.c: 13: break;
  2078                           
  2079                           
  2080                           ;usart.c: 15: SPBRG=64;
  2081  0794  3040               	movlw	64
  2082  0795  2F9B               	goto	L5
  2083  0796                     l1965:	
  2084                           ;usart.c: 17: case 28800:
  2085                           
  2086                           ;usart.c: 16: break;
  2087                           
  2088                           
  2089                           ;usart.c: 18: SPBRG=42;
  2090  0796  302A               	movlw	42
  2091  0797  2F9B               	goto	L5
  2092  0798                     l1967:	
  2093                           ;usart.c: 20: case 33600:
  2094                           
  2095                           ;usart.c: 19: break;
  2096                           
  2097                           
  2098                           ;usart.c: 21: SPBRG=36;
  2099  0798  3024               	movlw	36
  2100  0799  2F9B               	goto	L5
  2101  079A                     l1969:	
  2102                           ;usart.c: 23: case 115:
  2103                           
  2104                           ;usart.c: 22: break;
  2105                           
  2106                           
  2107                           ;usart.c: 24: SPBRG=16;
  2108  079A  3010               	movlw	16
  2109  079B                     L5:	
  2110  079B  0023               	movlb	3	; select bank3
  2111  079C  009B               	movwf	27	;volatile
  2112                           
  2113                           ;usart.c: 26: }
  2114                           
  2115                           ;usart.c: 25: break;
  2116  079D  2FC9               	goto	l305
  2117  079E                     l1973:	
  2118                           
  2119                           ; Switch on 2 bytes has been partitioned into a top level switch of size 1, and 5 sub-sw
      +                          itches
  2120                           ; Switch size 1, requested type "space"
  2121                           ; Number of cases is 5, Range of values is 0 to 131
  2122                           ; switch strategies available:
  2123                           ; Name         Instructions Cycles
  2124                           ; simple_byte           16     9 (average)
  2125                           ; jumptable            260     6 (fixed)
  2126                           ;	Chosen strategy is simple_byte
  2127  079E  0020               	movlb	0	; select bank0
  2128  079F  0826               	movf	USARTInit@baud_rate+1,w
  2129  07A0  3A00               	xorlw	0	; case 0
  2130  07A1  1903               	skipnz
  2131  07A2  2FB0               	goto	l2667
  2132  07A3  3A25               	xorlw	37	; case 37
  2133  07A4  1903               	skipnz
  2134  07A5  2FB5               	goto	l2669
  2135  07A6  3A6E               	xorlw	110	; case 75
  2136  07A7  1903               	skipnz
  2137  07A8  2FBA               	goto	l2671
  2138  07A9  3A3B               	xorlw	59	; case 112
  2139  07AA  1903               	skipnz
  2140  07AB  2FBF               	goto	l2673
  2141  07AC  3AF3               	xorlw	243	; case 131
  2142  07AD  1903               	skipnz
  2143  07AE  2FC4               	goto	l2675
  2144  07AF  2FC9               	goto	l305
  2145  07B0                     l2667:	
  2146                           
  2147                           ; Switch size 1, requested type "space"
  2148                           ; Number of cases is 1, Range of values is 115 to 115
  2149                           ; switch strategies available:
  2150                           ; Name         Instructions Cycles
  2151                           ; simple_byte            4     3 (average)
  2152                           ; direct_byte           11     9 (fixed)
  2153                           ; jumptable            263     9 (fixed)
  2154                           ;	Chosen strategy is simple_byte
  2155  07B0  0825               	movf	USARTInit@baud_rate,w
  2156  07B1  3A73               	xorlw	115	; case 115
  2157  07B2  1903               	skipnz
  2158  07B3  2F9A               	goto	l1969
  2159  07B4  2FC9               	goto	l305
  2160  07B5                     l2669:	
  2161                           
  2162                           ; Switch size 1, requested type "space"
  2163                           ; Number of cases is 1, Range of values is 128 to 128
  2164                           ; switch strategies available:
  2165                           ; Name         Instructions Cycles
  2166                           ; simple_byte            4     3 (average)
  2167                           ; direct_byte           11     9 (fixed)
  2168                           ; jumptable            263     9 (fixed)
  2169                           ;	Chosen strategy is simple_byte
  2170  07B5  0825               	movf	USARTInit@baud_rate,w
  2171  07B6  3A80               	xorlw	128	; case 128
  2172  07B7  1903               	skipnz
  2173  07B8  2F92               	goto	l1961
  2174  07B9  2FC9               	goto	l305
  2175  07BA                     l2671:	
  2176                           
  2177                           ; Switch size 1, requested type "space"
  2178                           ; Number of cases is 1, Range of values is 0 to 0
  2179                           ; switch strategies available:
  2180                           ; Name         Instructions Cycles
  2181                           ; simple_byte            4     3 (average)
  2182                           ; direct_byte            8     6 (fixed)
  2183                           ; jumptable            260     6 (fixed)
  2184                           ;	Chosen strategy is simple_byte
  2185  07BA  0825               	movf	USARTInit@baud_rate,w
  2186  07BB  3A00               	xorlw	0	; case 0
  2187  07BC  1903               	skipnz
  2188  07BD  2F94               	goto	l1963
  2189  07BE  2FC9               	goto	l305
  2190  07BF                     l2673:	
  2191                           
  2192                           ; Switch size 1, requested type "space"
  2193                           ; Number of cases is 1, Range of values is 128 to 128
  2194                           ; switch strategies available:
  2195                           ; Name         Instructions Cycles
  2196                           ; simple_byte            4     3 (average)
  2197                           ; direct_byte           11     9 (fixed)
  2198                           ; jumptable            263     9 (fixed)
  2199                           ;	Chosen strategy is simple_byte
  2200  07BF  0825               	movf	USARTInit@baud_rate,w
  2201  07C0  3A80               	xorlw	128	; case 128
  2202  07C1  1903               	skipnz
  2203  07C2  2F96               	goto	l1965
  2204  07C3  2FC9               	goto	l305
  2205  07C4                     l2675:	
  2206                           
  2207                           ; Switch size 1, requested type "space"
  2208                           ; Number of cases is 1, Range of values is 64 to 64
  2209                           ; switch strategies available:
  2210                           ; Name         Instructions Cycles
  2211                           ; simple_byte            4     3 (average)
  2212                           ; direct_byte           11     9 (fixed)
  2213                           ; jumptable            263     9 (fixed)
  2214                           ;	Chosen strategy is simple_byte
  2215  07C4  0825               	movf	USARTInit@baud_rate,w
  2216  07C5  3A40               	xorlw	64	; case 64
  2217  07C6  1903               	skipnz
  2218  07C7  2F98               	goto	l1967
  2219  07C8  2FC9               	goto	l305
  2220  07C9                     l305:	
  2221                           
  2222                           ;usart.c: 28: APFCON0bits.RXDTSEL=1;
  2223  07C9  0022               	movlb	2	; select bank2
  2224  07CA  179D               	bsf	29,7	;volatile
  2225                           
  2226                           ;usart.c: 29: APFCON0bits.TXCKSEL=1;
  2227  07CB  151D               	bsf	29,2	;volatile
  2228                           
  2229                           ;usart.c: 30: BAUDCONbits.BRG16=1;
  2230  07CC  0023               	movlb	3	; select bank3
  2231  07CD  159F               	bsf	31,3	;volatile
  2232                           
  2233                           ;usart.c: 32: TXSTAbits.TX9=0;
  2234  07CE  131E               	bcf	30,6	;volatile
  2235                           
  2236                           ;usart.c: 33: TXSTAbits.TXEN=1;
  2237  07CF  169E               	bsf	30,5	;volatile
  2238                           
  2239                           ;usart.c: 34: TXSTAbits.SYNC=0;
  2240  07D0  121E               	bcf	30,4	;volatile
  2241                           
  2242                           ;usart.c: 35: TXSTAbits.BRGH=1;
  2243  07D1  151E               	bsf	30,2	;volatile
  2244                           
  2245                           ;usart.c: 38: RCSTAbits.SPEN=1;
  2246  07D2  179D               	bsf	29,7	;volatile
  2247                           
  2248                           ;usart.c: 39: RCSTAbits.RX9=0;
  2249  07D3  131D               	bcf	29,6	;volatile
  2250                           
  2251                           ;usart.c: 40: RCSTAbits.CREN=1;
  2252  07D4  161D               	bsf	29,4	;volatile
  2253                           
  2254                           ;usart.c: 41: RCSTAbits.ADDEN=0;
  2255  07D5  119D               	bcf	29,3	;volatile
  2256                           
  2257                           ;usart.c: 44: RCIE=1;
  2258  07D6  0021               	movlb	1	; select bank1
  2259  07D7  1691               	bsf	17,5	;volatile
  2260                           
  2261                           ;usart.c: 45: PEIE=1;
  2262  07D8  170B               	bsf	11,6	;volatile
  2263                           
  2264                           ;usart.c: 47: (GIE = 1);
  2265  07D9  178B               	bsf	11,7	;volatile
  2266  07DA  0008               	return
  2267  07DB                     __end_of_USARTInit:	
  2268                           
  2269                           	psect	text2
  2270  0745                     __ptext2:	
  2271 ;; *************** function _USARTClearSIM800L *****************
  2272 ;; Defined at:
  2273 ;;		line 197 in file "usart.c"
  2274 ;; Parameters:    Size  Location     Type
  2275 ;;		None
  2276 ;; Auto vars:     Size  Location     Type
  2277 ;;  i               1    9[BANK0 ] unsigned char 
  2278 ;; Return value:  Size  Location     Type
  2279 ;;		None               void
  2280 ;; Registers used:
  2281 ;;		wreg, fsr1l, fsr1h, status,2, status,0
  2282 ;; Tracked objects:
  2283 ;;		On entry : 0/0
  2284 ;;		On exit  : 0/0
  2285 ;;		Unchanged: 0/0
  2286 ;; Data sizes:     COMMON   BANK0   BANK1   BANK2
  2287 ;;      Params:         0       0       0       0
  2288 ;;      Locals:         0       1       0       0
  2289 ;;      Temps:          0       4       0       0
  2290 ;;      Totals:         0       5       0       0
  2291 ;;Total ram usage:        5 bytes
  2292 ;; Hardware stack levels used:    1
  2293 ;; Hardware stack levels required when called:    2
  2294 ;; This function calls:
  2295 ;;		Nothing
  2296 ;; This function is called by:
  2297 ;;		_main
  2298 ;; This function uses a non-reentrant model
  2299 ;;
  2300                           
  2301                           
  2302                           ;psect for function _USARTClearSIM800L
  2303  0745                     _USARTClearSIM800L:	
  2304                           
  2305                           ;usart.c: 199: uint8_t i;
  2306                           ;usart.c: 200: SIM800L.busy=0;
  2307                           
  2308                           ;incstack = 0
  2309                           ; Regs used in _USARTClearSIM800L: [wreg+fsr1l+fsr1h+status,2+status,0]
  2310  0745  3078               	movlw	120
  2311  0746  0086               	movwf	6
  2312  0747  3020               	movlw	32
  2313  0748  0087               	movwf	7
  2314  0749  3000               	movlw	0
  2315  074A  3FC0               	movwi [0]fsr1
  2316                           
  2317                           ;usart.c: 201: SIM800L.uncomplete=0;
  2318  074B  3078               	movlw	120
  2319  074C  0086               	movwf	6
  2320  074D  3020               	movlw	32
  2321  074E  0087               	movwf	7
  2322  074F  3141               	addfsr 1,1
  2323  0750  0181               	clrf	1
  2324                           
  2325                           ;usart.c: 202: SIM800L.cell_lenght=0;
  2326  0751  3078               	movlw	120
  2327  0752  0086               	movwf	6
  2328  0753  3020               	movlw	32
  2329  0754  0087               	movwf	7
  2330  0755  3153               	addfsr 1,19
  2331  0756  0181               	clrf	1
  2332                           
  2333                           ;usart.c: 203: SIM800L.ok=0;
  2334  0757  3078               	movlw	120
  2335  0758  0086               	movwf	6
  2336  0759  3020               	movlw	32
  2337  075A  0087               	movwf	7
  2338  075B  3142               	addfsr 1,2
  2339  075C  0181               	clrf	1
  2340                           
  2341                           ;usart.c: 204: for(i=0;i<15;i++){SIM800L.cell[i]='\0';}
  2342  075D  0020               	movlb	0	; select bank0
  2343  075E  01A9               	clrf	USARTClearSIM800L@i
  2344  075F  300F               	movlw	15
  2345  0760  0229               	subwf	USARTClearSIM800L@i,w
  2346  0761  1803               	btfsc	3,0
  2347  0762  2F79               	goto	l2097
  2348  0763                     l2091:	
  2349  0763  0829               	movf	USARTClearSIM800L@i,w
  2350  0764  00A5               	movwf	??_USARTClearSIM800L
  2351  0765  01A6               	clrf	??_USARTClearSIM800L+1
  2352  0766  307C               	movlw	124
  2353  0767  00A7               	movwf	??_USARTClearSIM800L+2
  2354  0768  3020               	movlw	32
  2355  0769  00A8               	movwf	??_USARTClearSIM800L+3
  2356  076A  0825               	movf	??_USARTClearSIM800L,w
  2357  076B  0727               	addwf	??_USARTClearSIM800L+2,w
  2358  076C  0086               	movwf	6
  2359  076D  0826               	movf	??_USARTClearSIM800L+1,w
  2360  076E  3D28               	addwfc	??_USARTClearSIM800L+3,w
  2361  076F  0087               	movwf	7
  2362  0770  0181               	clrf	1
  2363  0771  3001               	movlw	1
  2364  0772  00A5               	movwf	??_USARTClearSIM800L
  2365  0773  0825               	movf	??_USARTClearSIM800L,w
  2366  0774  07A9               	addwf	USARTClearSIM800L@i,f
  2367  0775  300F               	movlw	15
  2368  0776  0229               	subwf	USARTClearSIM800L@i,w
  2369  0777  1C03               	skipc
  2370  0778  2F63               	goto	l2091
  2371  0779                     l2097:	
  2372                           
  2373                           ;usart.c: 205: for(i=0;i<64;i++) SIM800L.buffer[i]=0;
  2374  0779  01A9               	clrf	USARTClearSIM800L@i
  2375  077A                     L6:	
  2376  077A  3040               	movlw	64
  2377  077B  0229               	subwf	USARTClearSIM800L@i,w
  2378  077C  1803               	btfsc	3,0
  2379  077D  0008               	return
  2380  077E  0829               	movf	USARTClearSIM800L@i,w
  2381  077F  00A5               	movwf	??_USARTClearSIM800L
  2382  0780  01A6               	clrf	??_USARTClearSIM800L+1
  2383  0781  3092               	movlw	146
  2384  0782  00A7               	movwf	??_USARTClearSIM800L+2
  2385  0783  3020               	movlw	32
  2386  0784  00A8               	movwf	??_USARTClearSIM800L+3
  2387  0785  0825               	movf	??_USARTClearSIM800L,w
  2388  0786  0727               	addwf	??_USARTClearSIM800L+2,w
  2389  0787  0086               	movwf	6
  2390  0788  0826               	movf	??_USARTClearSIM800L+1,w
  2391  0789  3D28               	addwfc	??_USARTClearSIM800L+3,w
  2392  078A  0087               	movwf	7
  2393  078B  0181               	clrf	1
  2394  078C  3001               	movlw	1
  2395  078D  00A5               	movwf	??_USARTClearSIM800L
  2396  078E  0825               	movf	??_USARTClearSIM800L,w
  2397  078F  07A9               	addwf	USARTClearSIM800L@i,f
  2398  0790  2F7A               	goto	L6
  2399  0791                     __end_of_USARTClearSIM800L:	
  2400                           
  2401                           	psect	text3
  2402  0F10                     __ptext3:	
  2403 ;; *************** function _SYSTEMInit *****************
  2404 ;; Defined at:
  2405 ;;		line 5 in file "system.c"
  2406 ;; Parameters:    Size  Location     Type
  2407 ;;  freq            1    wreg     unsigned char 
  2408 ;; Auto vars:     Size  Location     Type
  2409 ;;  freq            1    5[BANK0 ] unsigned char 
  2410 ;; Return value:  Size  Location     Type
  2411 ;;		None               void
  2412 ;; Registers used:
  2413 ;;		wreg, fsr0l, fsr0h, status,2, status,0
  2414 ;; Tracked objects:
  2415 ;;		On entry : 0/0
  2416 ;;		On exit  : 0/0
  2417 ;;		Unchanged: 0/0
  2418 ;; Data sizes:     COMMON   BANK0   BANK1   BANK2
  2419 ;;      Params:         0       0       0       0
  2420 ;;      Locals:         0       1       0       0
  2421 ;;      Temps:          0       0       0       0
  2422 ;;      Totals:         0       1       0       0
  2423 ;;Total ram usage:        1 bytes
  2424 ;; Hardware stack levels used:    1
  2425 ;; Hardware stack levels required when called:    2
  2426 ;; This function calls:
  2427 ;;		Nothing
  2428 ;; This function is called by:
  2429 ;;		_main
  2430 ;; This function uses a non-reentrant model
  2431 ;;
  2432                           
  2433                           
  2434                           ;psect for function _SYSTEMInit
  2435  0F10                     _SYSTEMInit:	
  2436                           
  2437                           ;incstack = 0
  2438                           ; Regs used in _SYSTEMInit: [wreg-fsr0h+status,2+status,0]
  2439                           ;SYSTEMInit@freq stored from wreg
  2440  0F10  0020               	movlb	0	; select bank0
  2441  0F11  00A5               	movwf	SYSTEMInit@freq
  2442                           
  2443                           ;system.c: 7: switch(freq)
  2444  0F12  2F1F               	goto	l1957
  2445  0F13                     l1949:	
  2446                           ;system.c: 8: {
  2447                           ;system.c: 9: case 4:
  2448                           
  2449                           
  2450                           ;system.c: 10: OSCCON=0b01101010;
  2451  0F13  306A               	movlw	106
  2452  0F14  0021               	movlb	1	; select bank1
  2453  0F15  0099               	movwf	25	;volatile
  2454                           
  2455                           ;system.c: 11: break;
  2456  0F16  0008               	return
  2457  0F17                     l1951:	
  2458                           ;system.c: 12: case 8:
  2459                           
  2460                           
  2461                           ;system.c: 13: OSCCON=0b01110010;
  2462  0F17  3072               	movlw	114
  2463  0F18  0021               	movlb	1	; select bank1
  2464  0F19  0099               	movwf	25	;volatile
  2465                           
  2466                           ;system.c: 14: break;
  2467  0F1A  0008               	return
  2468  0F1B                     l1953:	
  2469                           ;system.c: 15: case 16:
  2470                           
  2471                           
  2472                           ;system.c: 16: OSCCON=0b01111010;
  2473  0F1B  307A               	movlw	122
  2474  0F1C  0021               	movlb	1	; select bank1
  2475  0F1D  0099               	movwf	25	;volatile
  2476                           
  2477                           ;system.c: 20: }
  2478                           
  2479                           ;system.c: 19: break;
  2480                           
  2481                           ;system.c: 18: default:
  2482                           
  2483                           ;system.c: 17: break;
  2484  0F1E  0008               	return
  2485  0F1F                     l1957:	
  2486  0F1F  0020               	movlb	0	; select bank0
  2487  0F20  0825               	movf	SYSTEMInit@freq,w
  2488                           
  2489                           ; Switch size 1, requested type "space"
  2490                           ; Number of cases is 3, Range of values is 4 to 16
  2491                           ; switch strategies available:
  2492                           ; Name         Instructions Cycles
  2493                           ; simple_byte           10     6 (average)
  2494                           ; direct_byte           35     9 (fixed)
  2495                           ; jumptable            263     9 (fixed)
  2496                           ;	Chosen strategy is simple_byte
  2497  0F21  3A04               	xorlw	4	; case 4
  2498  0F22  1903               	skipnz
  2499  0F23  2F13               	goto	l1949
  2500  0F24  3A0C               	xorlw	12	; case 8
  2501  0F25  1903               	skipnz
  2502  0F26  2F17               	goto	l1951
  2503  0F27  3A18               	xorlw	24	; case 16
  2504  0F28  1903               	skipnz
  2505  0F29  2F1B               	goto	l1953
  2506  0F2A  2F2B               	goto	l268
  2507  0F2B                     l268:	
  2508  0F2B  0008               	return
  2509  0F2C                     __end_of_SYSTEMInit:	
  2510                           
  2511                           	psect	text4
  2512  069F                     __ptext4:	
  2513 ;; *************** function _SIM800init *****************
  2514 ;; Defined at:
  2515 ;;		line 7 in file "sim800l.c"
  2516 ;; Parameters:    Size  Location     Type
  2517 ;;		None
  2518 ;; Auto vars:     Size  Location     Type
  2519 ;;		None
  2520 ;; Return value:  Size  Location     Type
  2521 ;;                  1    wreg      unsigned char 
  2522 ;; Registers used:
  2523 ;;		wreg, fsr0l, fsr0h, status,2, status,0, pclath, cstack
  2524 ;; Tracked objects:
  2525 ;;		On entry : 0/0
  2526 ;;		On exit  : 0/0
  2527 ;;		Unchanged: 0/0
  2528 ;; Data sizes:     COMMON   BANK0   BANK1   BANK2
  2529 ;;      Params:         0       0       0       0
  2530 ;;      Locals:         0       0       0       0
  2531 ;;      Temps:          0       3       0       0
  2532 ;;      Totals:         0       3       0       0
  2533 ;;Total ram usage:        3 bytes
  2534 ;; Hardware stack levels used:    1
  2535 ;; Hardware stack levels required when called:    5
  2536 ;; This function calls:
  2537 ;;		_USARTWriteLine
  2538 ;; This function is called by:
  2539 ;;		_main
  2540 ;; This function uses a non-reentrant model
  2541 ;;
  2542                           
  2543                           
  2544                           ;psect for function _SIM800init
  2545  069F                     _SIM800init:	
  2546                           
  2547                           ;sim800l.c: 9: LATCbits.LATC6=1;
  2548                           
  2549                           ;incstack = 0
  2550                           ; Regs used in _SIM800init: [wreg-fsr0h+status,2+status,0+pclath+cstack]
  2551  069F  0022               	movlb	2	; select bank2
  2552  06A0  170E               	bsf	14,6	;volatile
  2553                           
  2554                           ;sim800l.c: 10: _delay((unsigned long)((10)*(8000000/4000.0)));
  2555  06A1  301A               	movlw	26
  2556  06A2  0020               	movlb	0	; select bank0
  2557  06A3  00AB               	movwf	??_SIM800init+1
  2558  06A4  30F8               	movlw	248
  2559  06A5  00AA               	movwf	??_SIM800init
  2560  06A6                     u2327:	
  2561  06A6  0BAA               	decfsz	??_SIM800init,f
  2562  06A7  2EA6               	goto	u2327
  2563  06A8  0BAB               	decfsz	??_SIM800init+1,f
  2564  06A9  2EA6               	goto	u2327
  2565  06AA  0000               	nop
  2566                           
  2567                           ;sim800l.c: 11: LATCbits.LATC6=0;
  2568  06AB  0022               	movlb	2	; select bank2
  2569  06AC  130E               	bcf	14,6	;volatile
  2570                           
  2571                           ;sim800l.c: 12: _delay((unsigned long)((500)*(8000000/4000.0)));
  2572  06AD  3006               	movlw	6
  2573  06AE  0020               	movlb	0	; select bank0
  2574  06AF  00AC               	movwf	??_SIM800init+2
  2575  06B0  3013               	movlw	19
  2576  06B1  00AB               	movwf	??_SIM800init+1
  2577  06B2  30B1               	movlw	177
  2578  06B3  00AA               	movwf	??_SIM800init
  2579  06B4                     u2337:	
  2580  06B4  0BAA               	decfsz	??_SIM800init,f
  2581  06B5  2EB4               	goto	u2337
  2582  06B6  0BAB               	decfsz	??_SIM800init+1,f
  2583  06B7  2EB4               	goto	u2337
  2584  06B8  0BAC               	decfsz	??_SIM800init+2,f
  2585  06B9  2EB4               	goto	u2337
  2586  06BA  3200               	nop2
  2587                           
  2588                           ;sim800l.c: 13: LATCbits.LATC6=1;
  2589  06BB  0022               	movlb	2	; select bank2
  2590  06BC  170E               	bsf	14,6	;volatile
  2591                           
  2592                           ;sim800l.c: 14: _delay((unsigned long)((10000)*(8000000/4000.0)));
  2593  06BD  3066               	movlw	102
  2594  06BE  0020               	movlb	0	; select bank0
  2595  06BF  00AC               	movwf	??_SIM800init+2
  2596  06C0  3077               	movlw	119
  2597  06C1  00AB               	movwf	??_SIM800init+1
  2598  06C2  3024               	movlw	36
  2599  06C3  00AA               	movwf	??_SIM800init
  2600  06C4                     u2347:	
  2601  06C4  0BAA               	decfsz	??_SIM800init,f
  2602  06C5  2EC4               	goto	u2347
  2603  06C6  0BAB               	decfsz	??_SIM800init+1,f
  2604  06C7  2EC4               	goto	u2347
  2605  06C8  0BAC               	decfsz	??_SIM800init+2,f
  2606  06C9  2EC4               	goto	u2347
  2607  06CA  0000               	nop
  2608                           
  2609                           ;sim800l.c: 15: USARTWriteLine("AT\r\n");
  2610  06CB  305F               	movlw	low (STR_5| (0+32768))
  2611  06CC  0020               	movlb	0	; select bank0
  2612  06CD  00A8               	movwf	USARTWriteLine@str
  2613  06CE  3085               	movlw	high (STR_5| (0+32768))
  2614  06CF  00A9               	movwf	USARTWriteLine@str+1
  2615  06D0  318E  26B7  3186   	fcall	_USARTWriteLine
  2616                           
  2617                           ;sim800l.c: 16: _delay((unsigned long)((2000)*(8000000/4000.0)));
  2618  06D3  3015               	movlw	21
  2619  06D4  0020               	movlb	0	; select bank0
  2620  06D5  00AC               	movwf	??_SIM800init+2
  2621  06D6  304B               	movlw	75
  2622  06D7  00AB               	movwf	??_SIM800init+1
  2623  06D8  30D1               	movlw	209
  2624  06D9  00AA               	movwf	??_SIM800init
  2625  06DA                     u2357:	
  2626  06DA  0BAA               	decfsz	??_SIM800init,f
  2627  06DB  2EDA               	goto	u2357
  2628  06DC  0BAB               	decfsz	??_SIM800init+1,f
  2629  06DD  2EDA               	goto	u2357
  2630  06DE  0BAC               	decfsz	??_SIM800init+2,f
  2631  06DF  2EDA               	goto	u2357
  2632  06E0  0000               	nop
  2633                           
  2634                           ;sim800l.c: 17: USARTWriteLine("ATE0\r\n");
  2635  06E1  3052               	movlw	low (STR_6| (0+32768))
  2636  06E2  0020               	movlb	0	; select bank0
  2637  06E3  00A8               	movwf	USARTWriteLine@str
  2638  06E4  3085               	movlw	high (STR_6| (0+32768))
  2639  06E5  00A9               	movwf	USARTWriteLine@str+1
  2640  06E6  318E  26B7  3186   	fcall	_USARTWriteLine
  2641                           
  2642                           ;sim800l.c: 18: _delay((unsigned long)((2000)*(8000000/4000.0)));
  2643  06E9  3015               	movlw	21
  2644  06EA  0020               	movlb	0	; select bank0
  2645  06EB  00AC               	movwf	??_SIM800init+2
  2646  06EC  304B               	movlw	75
  2647  06ED  00AB               	movwf	??_SIM800init+1
  2648  06EE  30D1               	movlw	209
  2649  06EF  00AA               	movwf	??_SIM800init
  2650  06F0                     u2367:	
  2651  06F0  0BAA               	decfsz	??_SIM800init,f
  2652  06F1  2EF0               	goto	u2367
  2653  06F2  0BAB               	decfsz	??_SIM800init+1,f
  2654  06F3  2EF0               	goto	u2367
  2655  06F4  0BAC               	decfsz	??_SIM800init+2,f
  2656  06F5  2EF0               	goto	u2367
  2657  06F6  0000               	nop
  2658  06F7  0008               	return
  2659  06F8                     __end_of_SIM800init:	
  2660                           ;sim800l.c: 25: return 0;
  2661                           ;	Return value of _SIM800init is never used
  2662                           
  2663                           
  2664                           	psect	text5
  2665  056D                     __ptext5:	
  2666 ;; *************** function _SIM800SendSms *****************
  2667 ;; Defined at:
  2668 ;;		line 34 in file "sim800l.c"
  2669 ;; Parameters:    Size  Location     Type
  2670 ;;  nmbr            2   10[BANK0 ] PTR const unsigned char 
  2671 ;;		 -> STR_3(14), 
  2672 ;;  msg             2   12[BANK0 ] PTR const unsigned char 
  2673 ;;		 -> STR_4(17), 
  2674 ;; Auto vars:     Size  Location     Type
  2675 ;;		None
  2676 ;; Return value:  Size  Location     Type
  2677 ;;                  1    wreg      unsigned char 
  2678 ;; Registers used:
  2679 ;;		wreg, fsr0l, fsr0h, status,2, status,0, pclath, cstack
  2680 ;; Tracked objects:
  2681 ;;		On entry : 0/0
  2682 ;;		On exit  : 0/0
  2683 ;;		Unchanged: 0/0
  2684 ;; Data sizes:     COMMON   BANK0   BANK1   BANK2
  2685 ;;      Params:         0       4       0       0
  2686 ;;      Locals:         0       0       0       0
  2687 ;;      Temps:          0       3       0       0
  2688 ;;      Totals:         0       7       0       0
  2689 ;;Total ram usage:        7 bytes
  2690 ;; Hardware stack levels used:    1
  2691 ;; Hardware stack levels required when called:    5
  2692 ;; This function calls:
  2693 ;;		_USARTWriteChar
  2694 ;;		_USARTWriteLine
  2695 ;;		_USARTWriteString
  2696 ;; This function is called by:
  2697 ;;		_main
  2698 ;; This function uses a non-reentrant model
  2699 ;;
  2700                           
  2701                           
  2702                           ;psect for function _SIM800SendSms
  2703  056D                     _SIM800SendSms:	
  2704                           
  2705                           ;sim800l.c: 36: _delay((unsigned long)((2000)*(8000000/4000.0)));
  2706                           
  2707                           ;incstack = 0
  2708                           ; Regs used in _SIM800SendSms: [wreg-fsr0h+status,2+status,0+pclath+cstack]
  2709  056D  3015               	movlw	21
  2710  056E  0020               	movlb	0	; select bank0
  2711  056F  00B0               	movwf	??_SIM800SendSms+2
  2712  0570  304B               	movlw	75
  2713  0571  00AF               	movwf	??_SIM800SendSms+1
  2714  0572  30D1               	movlw	209
  2715  0573  00AE               	movwf	??_SIM800SendSms
  2716  0574                     u2377:	
  2717  0574  0BAE               	decfsz	??_SIM800SendSms,f
  2718  0575  2D74               	goto	u2377
  2719  0576  0BAF               	decfsz	??_SIM800SendSms+1,f
  2720  0577  2D74               	goto	u2377
  2721  0578  0BB0               	decfsz	??_SIM800SendSms+2,f
  2722  0579  2D74               	goto	u2377
  2723  057A  0000               	nop
  2724                           
  2725                           ;sim800l.c: 37: USARTWriteLine("AT+CMGF = 1\r\n");
  2726  057B  3011               	movlw	low (STR_8| (0+32768))
  2727  057C  0020               	movlb	0	; select bank0
  2728  057D  00A8               	movwf	USARTWriteLine@str
  2729  057E  3085               	movlw	high (STR_8| (0+32768))
  2730  057F  00A9               	movwf	USARTWriteLine@str+1
  2731  0580  318E  26B7  3185   	fcall	_USARTWriteLine
  2732                           
  2733                           ;sim800l.c: 38: _delay((unsigned long)((2000)*(8000000/4000.0)));
  2734  0583  3015               	movlw	21
  2735  0584  0020               	movlb	0	; select bank0
  2736  0585  00B0               	movwf	??_SIM800SendSms+2
  2737  0586  304B               	movlw	75
  2738  0587  00AF               	movwf	??_SIM800SendSms+1
  2739  0588  30D1               	movlw	209
  2740  0589  00AE               	movwf	??_SIM800SendSms
  2741  058A                     u2387:	
  2742  058A  0BAE               	decfsz	??_SIM800SendSms,f
  2743  058B  2D8A               	goto	u2387
  2744  058C  0BAF               	decfsz	??_SIM800SendSms+1,f
  2745  058D  2D8A               	goto	u2387
  2746  058E  0BB0               	decfsz	??_SIM800SendSms+2,f
  2747  058F  2D8A               	goto	u2387
  2748  0590  0000               	nop
  2749                           
  2750                           ;sim800l.c: 39: USARTWriteLine("AT+CMGS=\"");
  2751  0591  302D               	movlw	low (STR_9| (0+32768))
  2752  0592  0020               	movlb	0	; select bank0
  2753  0593  00A8               	movwf	USARTWriteLine@str
  2754  0594  3085               	movlw	high (STR_9| (0+32768))
  2755  0595  00A9               	movwf	USARTWriteLine@str+1
  2756  0596  318E  26B7  3185   	fcall	_USARTWriteLine
  2757                           
  2758                           ;sim800l.c: 40: USARTWriteString(nmbr);
  2759  0599  0020               	movlb	0	; select bank0
  2760  059A  082B               	movf	SIM800SendSms@nmbr+1,w
  2761  059B  01A7               	clrf	USARTWriteString@str+1
  2762  059C  07A7               	addwf	USARTWriteString@str+1,f
  2763  059D  082A               	movf	SIM800SendSms@nmbr,w
  2764  059E  01A6               	clrf	USARTWriteString@str
  2765  059F  07A6               	addwf	USARTWriteString@str,f
  2766  05A0  318E  26DC  3185   	fcall	_USARTWriteString
  2767                           
  2768                           ;sim800l.c: 41: USARTWriteString("\"\r\n");
  2769  05A3  3069               	movlw	low (STR_10| (0+32768))
  2770  05A4  0020               	movlb	0	; select bank0
  2771  05A5  00A6               	movwf	USARTWriteString@str
  2772  05A6  3085               	movlw	high (STR_10| (0+32768))
  2773  05A7  00A7               	movwf	USARTWriteString@str+1
  2774  05A8  318E  26DC  3185   	fcall	_USARTWriteString
  2775                           
  2776                           ;sim800l.c: 43: _delay((unsigned long)((2000)*(8000000/4000.0)));
  2777  05AB  3015               	movlw	21
  2778  05AC  0020               	movlb	0	; select bank0
  2779  05AD  00B0               	movwf	??_SIM800SendSms+2
  2780  05AE  304B               	movlw	75
  2781  05AF  00AF               	movwf	??_SIM800SendSms+1
  2782  05B0  30D1               	movlw	209
  2783  05B1  00AE               	movwf	??_SIM800SendSms
  2784  05B2                     u2397:	
  2785  05B2  0BAE               	decfsz	??_SIM800SendSms,f
  2786  05B3  2DB2               	goto	u2397
  2787  05B4  0BAF               	decfsz	??_SIM800SendSms+1,f
  2788  05B5  2DB2               	goto	u2397
  2789  05B6  0BB0               	decfsz	??_SIM800SendSms+2,f
  2790  05B7  2DB2               	goto	u2397
  2791  05B8  0000               	nop
  2792                           
  2793                           ;sim800l.c: 44: USARTWriteString(msg);
  2794  05B9  0020               	movlb	0	; select bank0
  2795  05BA  082D               	movf	SIM800SendSms@msg+1,w
  2796  05BB  01A7               	clrf	USARTWriteString@str+1
  2797  05BC  07A7               	addwf	USARTWriteString@str+1,f
  2798  05BD  082C               	movf	SIM800SendSms@msg,w
  2799  05BE  01A6               	clrf	USARTWriteString@str
  2800  05BF  07A6               	addwf	USARTWriteString@str,f
  2801  05C0  318E  26DC  3185   	fcall	_USARTWriteString
  2802                           
  2803                           ;sim800l.c: 45: USARTWriteChar(0x1A);
  2804  05C3  301A               	movlw	26
  2805  05C4  318E  268A  3185   	fcall	_USARTWriteChar
  2806                           
  2807                           ;sim800l.c: 46: _delay((unsigned long)((2000)*(8000000/4000.0)));
  2808  05C7  3015               	movlw	21
  2809  05C8  0020               	movlb	0	; select bank0
  2810  05C9  00B0               	movwf	??_SIM800SendSms+2
  2811  05CA  304B               	movlw	75
  2812  05CB  00AF               	movwf	??_SIM800SendSms+1
  2813  05CC  30D1               	movlw	209
  2814  05CD  00AE               	movwf	??_SIM800SendSms
  2815  05CE                     u2407:	
  2816  05CE  0BAE               	decfsz	??_SIM800SendSms,f
  2817  05CF  2DCE               	goto	u2407
  2818  05D0  0BAF               	decfsz	??_SIM800SendSms+1,f
  2819  05D1  2DCE               	goto	u2407
  2820  05D2  0BB0               	decfsz	??_SIM800SendSms+2,f
  2821  05D3  2DCE               	goto	u2407
  2822  05D4  0000               	nop
  2823  05D5  0008               	return
  2824  05D6                     __end_of_SIM800SendSms:	
  2825                           ;sim800l.c: 48: return 1;
  2826                           ;	Return value of _SIM800SendSms is never used
  2827                           
  2828                           
  2829                           	psect	text6
  2830  06F8                     __ptext6:	
  2831 ;; *************** function _SIM800ReadSms *****************
  2832 ;; Defined at:
  2833 ;;		line 50 in file "sim800l.c"
  2834 ;; Parameters:    Size  Location     Type
  2835 ;;  mem             2   10[BANK0 ] PTR const unsigned char 
  2836 ;;		 -> SIM800L.smsmem(5), SIM800L(120), 
  2837 ;; Auto vars:     Size  Location     Type
  2838 ;;		None
  2839 ;; Return value:  Size  Location     Type
  2840 ;;                  1    wreg      unsigned char 
  2841 ;; Registers used:
  2842 ;;		wreg, fsr0l, fsr0h, status,2, status,0, pclath, cstack
  2843 ;; Tracked objects:
  2844 ;;		On entry : 0/0
  2845 ;;		On exit  : 0/0
  2846 ;;		Unchanged: 0/0
  2847 ;; Data sizes:     COMMON   BANK0   BANK1   BANK2
  2848 ;;      Params:         0       2       0       0
  2849 ;;      Locals:         0       0       0       0
  2850 ;;      Temps:          0       3       0       0
  2851 ;;      Totals:         0       5       0       0
  2852 ;;Total ram usage:        5 bytes
  2853 ;; Hardware stack levels used:    1
  2854 ;; Hardware stack levels required when called:    5
  2855 ;; This function calls:
  2856 ;;		_USARTWriteLine
  2857 ;;		_USARTWriteString
  2858 ;; This function is called by:
  2859 ;;		_main
  2860 ;; This function uses a non-reentrant model
  2861 ;;
  2862                           
  2863                           
  2864                           ;psect for function _SIM800ReadSms
  2865  06F8                     _SIM800ReadSms:	
  2866                           
  2867                           ;sim800l.c: 52: _delay((unsigned long)((2000)*(8000000/4000.0)));
  2868                           
  2869                           ;incstack = 0
  2870                           ; Regs used in _SIM800ReadSms: [wreg-fsr0h+status,2+status,0+pclath+cstack]
  2871  06F8  3015               	movlw	21
  2872  06F9  0020               	movlb	0	; select bank0
  2873  06FA  00AE               	movwf	??_SIM800ReadSms+2
  2874  06FB  304B               	movlw	75
  2875  06FC  00AD               	movwf	??_SIM800ReadSms+1
  2876  06FD  30D1               	movlw	209
  2877  06FE  00AC               	movwf	??_SIM800ReadSms
  2878  06FF                     u2417:	
  2879  06FF  0BAC               	decfsz	??_SIM800ReadSms,f
  2880  0700  2EFF               	goto	u2417
  2881  0701  0BAD               	decfsz	??_SIM800ReadSms+1,f
  2882  0702  2EFF               	goto	u2417
  2883  0703  0BAE               	decfsz	??_SIM800ReadSms+2,f
  2884  0704  2EFF               	goto	u2417
  2885  0705  0000               	nop
  2886                           
  2887                           ;sim800l.c: 53: USARTWriteLine("AT+CMGF = 1\r\n");
  2888  0706  3011               	movlw	low (STR_8| (0+32768))
  2889  0707  0020               	movlb	0	; select bank0
  2890  0708  00A8               	movwf	USARTWriteLine@str
  2891  0709  3085               	movlw	high (STR_8| (0+32768))
  2892  070A  00A9               	movwf	USARTWriteLine@str+1
  2893  070B  318E  26B7  3186   	fcall	_USARTWriteLine
  2894                           
  2895                           ;sim800l.c: 54: _delay((unsigned long)((2000)*(8000000/4000.0)));
  2896  070E  3015               	movlw	21
  2897  070F  0020               	movlb	0	; select bank0
  2898  0710  00AE               	movwf	??_SIM800ReadSms+2
  2899  0711  304B               	movlw	75
  2900  0712  00AD               	movwf	??_SIM800ReadSms+1
  2901  0713  30D1               	movlw	209
  2902  0714  00AC               	movwf	??_SIM800ReadSms
  2903  0715                     u2427:	
  2904  0715  0BAC               	decfsz	??_SIM800ReadSms,f
  2905  0716  2F15               	goto	u2427
  2906  0717  0BAD               	decfsz	??_SIM800ReadSms+1,f
  2907  0718  2F15               	goto	u2427
  2908  0719  0BAE               	decfsz	??_SIM800ReadSms+2,f
  2909  071A  2F15               	goto	u2427
  2910  071B  0000               	nop
  2911                           
  2912                           ;sim800l.c: 55: USARTWriteLine("AT+CMGR=");
  2913  071C  3040               	movlw	low (STR_12| (0+32768))
  2914  071D  0020               	movlb	0	; select bank0
  2915  071E  00A8               	movwf	USARTWriteLine@str
  2916  071F  3085               	movlw	high (STR_12| (0+32768))
  2917  0720  00A9               	movwf	USARTWriteLine@str+1
  2918  0721  318E  26B7  3186   	fcall	_USARTWriteLine
  2919                           
  2920                           ;sim800l.c: 56: USARTWriteString(mem);
  2921  0724  0020               	movlb	0	; select bank0
  2922  0725  082B               	movf	SIM800ReadSms@mem+1,w
  2923  0726  01A7               	clrf	USARTWriteString@str+1
  2924  0727  07A7               	addwf	USARTWriteString@str+1,f
  2925  0728  082A               	movf	SIM800ReadSms@mem,w
  2926  0729  01A6               	clrf	USARTWriteString@str
  2927  072A  07A6               	addwf	USARTWriteString@str,f
  2928  072B  318E  26DC  3186   	fcall	_USARTWriteString
  2929                           
  2930                           ;sim800l.c: 57: USARTWriteString("\r\n");
  2931  072E  306A               	movlw	low ((STR_10+1)| (0+32768))
  2932  072F  0020               	movlb	0	; select bank0
  2933  0730  00A6               	movwf	USARTWriteString@str
  2934  0731  3085               	movlw	high ((STR_10+1)| (0+32768))
  2935  0732  00A7               	movwf	USARTWriteString@str+1
  2936  0733  318E  26DC  3186   	fcall	_USARTWriteString
  2937                           
  2938                           ;sim800l.c: 58: _delay((unsigned long)((2000)*(8000000/4000.0)));
  2939  0736  3015               	movlw	21
  2940  0737  0020               	movlb	0	; select bank0
  2941  0738  00AE               	movwf	??_SIM800ReadSms+2
  2942  0739  304B               	movlw	75
  2943  073A  00AD               	movwf	??_SIM800ReadSms+1
  2944  073B  30D1               	movlw	209
  2945  073C  00AC               	movwf	??_SIM800ReadSms
  2946  073D                     u2437:	
  2947  073D  0BAC               	decfsz	??_SIM800ReadSms,f
  2948  073E  2F3D               	goto	u2437
  2949  073F  0BAD               	decfsz	??_SIM800ReadSms+1,f
  2950  0740  2F3D               	goto	u2437
  2951  0741  0BAE               	decfsz	??_SIM800ReadSms+2,f
  2952  0742  2F3D               	goto	u2437
  2953  0743  0000               	nop
  2954  0744  0008               	return
  2955  0745                     __end_of_SIM800ReadSms:	
  2956                           ;sim800l.c: 59: return 1;
  2957                           ;	Return value of _SIM800ReadSms is never used
  2958                           
  2959                           
  2960                           	psect	text7
  2961  0EB7                     __ptext7:	
  2962 ;; *************** function _USARTWriteLine *****************
  2963 ;; Defined at:
  2964 ;;		line 66 in file "usart.c"
  2965 ;; Parameters:    Size  Location     Type
  2966 ;;  str             2    8[BANK0 ] PTR const unsigned char 
  2967 ;;		 -> STR_15(9), STR_14(14), STR_12(9), STR_11(14), 
  2968 ;;		 -> STR_9(10), STR_8(14), STR_7(5), STR_6(7), 
  2969 ;;		 -> STR_5(5), STR_2(6), STR_1(9), 
  2970 ;; Auto vars:     Size  Location     Type
  2971 ;;		None
  2972 ;; Return value:  Size  Location     Type
  2973 ;;		None               void
  2974 ;; Registers used:
  2975 ;;		wreg, fsr0l, fsr0h, status,2, status,0, pclath, cstack
  2976 ;; Tracked objects:
  2977 ;;		On entry : 0/0
  2978 ;;		On exit  : 0/0
  2979 ;;		Unchanged: 0/0
  2980 ;; Data sizes:     COMMON   BANK0   BANK1   BANK2
  2981 ;;      Params:         0       2       0       0
  2982 ;;      Locals:         0       0       0       0
  2983 ;;      Temps:          0       0       0       0
  2984 ;;      Totals:         0       2       0       0
  2985 ;;Total ram usage:        2 bytes
  2986 ;; Hardware stack levels used:    1
  2987 ;; Hardware stack levels required when called:    4
  2988 ;; This function calls:
  2989 ;;		_USARTWriteChar
  2990 ;;		_USARTWriteString
  2991 ;; This function is called by:
  2992 ;;		_main
  2993 ;;		_SIM800init
  2994 ;;		_SIM800SendSms
  2995 ;;		_SIM800ReadSms
  2996 ;;		_SIM800sendCommand
  2997 ;;		_SIM800DeleteSms
  2998 ;; This function uses a non-reentrant model
  2999 ;;
  3000                           
  3001                           
  3002                           ;psect for function _USARTWriteLine
  3003  0EB7                     _USARTWriteLine:	
  3004                           
  3005                           ;usart.c: 68: USARTWriteChar('\r');
  3006                           
  3007                           ;incstack = 0
  3008                           ; Regs used in _USARTWriteLine: [wreg-fsr0h+status,2+status,0+pclath+cstack]
  3009  0EB7  300D               	movlw	13
  3010  0EB8  318E  268A  318E   	fcall	_USARTWriteChar
  3011                           
  3012                           ;usart.c: 69: USARTWriteChar('\n');
  3013  0EBB  300A               	movlw	10
  3014  0EBC  318E  268A  318E   	fcall	_USARTWriteChar
  3015                           
  3016                           ;usart.c: 70: USARTWriteString(str);
  3017  0EBF  0020               	movlb	0	; select bank0
  3018  0EC0  0829               	movf	USARTWriteLine@str+1,w
  3019  0EC1  01A7               	clrf	USARTWriteString@str+1
  3020  0EC2  07A7               	addwf	USARTWriteString@str+1,f
  3021  0EC3  0828               	movf	USARTWriteLine@str,w
  3022  0EC4  01A6               	clrf	USARTWriteString@str
  3023  0EC5  07A6               	addwf	USARTWriteString@str,f
  3024  0EC6  318E  26DC         	fcall	_USARTWriteString
  3025  0EC8  0008               	return
  3026  0EC9                     __end_of_USARTWriteLine:	
  3027                           
  3028                           	psect	text8
  3029  0EDC                     __ptext8:	
  3030 ;; *************** function _USARTWriteString *****************
  3031 ;; Defined at:
  3032 ;;		line 57 in file "usart.c"
  3033 ;; Parameters:    Size  Location     Type
  3034 ;;  str             2    6[BANK0 ] PTR const unsigned char 
  3035 ;;		 -> STR_16(3), STR_15(9), STR_14(14), STR_13(3), 
  3036 ;;		 -> STR_12(9), STR_11(14), STR_10(4), STR_9(10), 
  3037 ;;		 -> STR_8(14), STR_7(5), STR_6(7), STR_5(5), 
  3038 ;;		 -> STR_4(17), STR_3(14), SIM800L.smsmem(5), SIM800L(120), 
  3039 ;;		 -> STR_2(6), STR_1(9), 
  3040 ;; Auto vars:     Size  Location     Type
  3041 ;;		None
  3042 ;; Return value:  Size  Location     Type
  3043 ;;		None               void
  3044 ;; Registers used:
  3045 ;;		wreg, fsr0l, fsr0h, status,2, status,0, pclath, cstack
  3046 ;; Tracked objects:
  3047 ;;		On entry : 0/0
  3048 ;;		On exit  : 0/0
  3049 ;;		Unchanged: 0/0
  3050 ;; Data sizes:     COMMON   BANK0   BANK1   BANK2
  3051 ;;      Params:         0       2       0       0
  3052 ;;      Locals:         0       0       0       0
  3053 ;;      Temps:          0       0       0       0
  3054 ;;      Totals:         0       2       0       0
  3055 ;;Total ram usage:        2 bytes
  3056 ;; Hardware stack levels used:    1
  3057 ;; Hardware stack levels required when called:    3
  3058 ;; This function calls:
  3059 ;;		_USARTWriteChar
  3060 ;; This function is called by:
  3061 ;;		_SIM800SendSms
  3062 ;;		_SIM800ReadSms
  3063 ;;		_USARTWriteLine
  3064 ;;		_SIM800DeleteSms
  3065 ;; This function uses a non-reentrant model
  3066 ;;
  3067                           
  3068                           
  3069                           ;psect for function _USARTWriteString
  3070  0EDC                     _USARTWriteString:	
  3071  0EDC                     l1899:	
  3072                           ;usart.c: 59: while(*str!='\0')
  3073                           
  3074                           ;incstack = 0
  3075                           ; Regs used in _USARTWriteString: [wreg-fsr0h+status,2+status,0+pclath+cstack]
  3076                           
  3077  0EDC  0020               	movlb	0	; select bank0
  3078  0EDD  0826               	movf	USARTWriteString@str,w
  3079  0EDE  0084               	movwf	4
  3080  0EDF  0827               	movf	USARTWriteString@str+1,w
  3081  0EE0  0085               	movwf	5
  3082  0EE1  0800               	movf	0,w	;code access
  3083  0EE2  3800               	iorlw	0
  3084  0EE3  1903               	btfsc	3,2
  3085  0EE4  0008               	return
  3086                           
  3087                           ;usart.c: 60: {
  3088                           ;usart.c: 61: USARTWriteChar(*str);
  3089  0EE5  0020               	movlb	0	; select bank0
  3090  0EE6  0826               	movf	USARTWriteString@str,w
  3091  0EE7  0084               	movwf	4
  3092  0EE8  0827               	movf	USARTWriteString@str+1,w
  3093  0EE9  0085               	movwf	5
  3094  0EEA  0800               	movf	0,w	;code access
  3095  0EEB  318E  268A  318E   	fcall	_USARTWriteChar
  3096                           
  3097                           ;usart.c: 62: str++;
  3098  0EEE  3001               	movlw	1
  3099  0EEF  0020               	movlb	0	; select bank0
  3100  0EF0  07A6               	addwf	USARTWriteString@str,f
  3101  0EF1  3000               	movlw	0
  3102  0EF2  3DA7               	addwfc	USARTWriteString@str+1,f
  3103  0EF3  2EDC               	goto	l1899
  3104  0EF4                     __end_of_USARTWriteString:	
  3105                           
  3106                           	psect	text9
  3107  0E8A                     __ptext9:	
  3108 ;; *************** function _USARTWriteChar *****************
  3109 ;; Defined at:
  3110 ;;		line 51 in file "usart.c"
  3111 ;; Parameters:    Size  Location     Type
  3112 ;;  ch              1    wreg     unsigned char 
  3113 ;; Auto vars:     Size  Location     Type
  3114 ;;  ch              1    5[BANK0 ] unsigned char 
  3115 ;; Return value:  Size  Location     Type
  3116 ;;		None               void
  3117 ;; Registers used:
  3118 ;;		wreg
  3119 ;; Tracked objects:
  3120 ;;		On entry : 0/0
  3121 ;;		On exit  : 0/0
  3122 ;;		Unchanged: 0/0
  3123 ;; Data sizes:     COMMON   BANK0   BANK1   BANK2
  3124 ;;      Params:         0       0       0       0
  3125 ;;      Locals:         0       1       0       0
  3126 ;;      Temps:          0       0       0       0
  3127 ;;      Totals:         0       1       0       0
  3128 ;;Total ram usage:        1 bytes
  3129 ;; Hardware stack levels used:    1
  3130 ;; Hardware stack levels required when called:    2
  3131 ;; This function calls:
  3132 ;;		Nothing
  3133 ;; This function is called by:
  3134 ;;		_SIM800SendSms
  3135 ;;		_USARTWriteString
  3136 ;;		_USARTWriteLine
  3137 ;;		_SIM800DeleteSms
  3138 ;;		_USARTWriteInt
  3139 ;;		_USARTGotoNewLine
  3140 ;; This function uses a non-reentrant model
  3141 ;;
  3142                           
  3143                           
  3144                           ;psect for function _USARTWriteChar
  3145  0E8A                     _USARTWriteChar:	
  3146                           
  3147                           ;incstack = 0
  3148                           ; Regs used in _USARTWriteChar: [wreg]
  3149                           ;USARTWriteChar@ch stored from wreg
  3150  0E8A  0020               	movlb	0	; select bank0
  3151  0E8B  00A5               	movwf	USARTWriteChar@ch
  3152  0E8C                     l313:	
  3153                           ;usart.c: 53: while(!PIR1bits.TXIF);
  3154                           
  3155  0E8C  1E11               	btfss	17,4	;volatile
  3156  0E8D  2E8C               	goto	l313
  3157                           
  3158                           ;usart.c: 54: TXREG=ch;
  3159  0E8E  0825               	movf	USARTWriteChar@ch,w
  3160  0E8F  0023               	movlb	3	; select bank3
  3161  0E90  009A               	movwf	26	;volatile
  3162  0E91  0008               	return
  3163  0E92                     __end_of_USARTWriteChar:	
  3164                           
  3165                           	psect	text10
  3166  034F                     __ptext10:	
  3167 ;; *************** function _SIM800Command *****************
  3168 ;; Defined at:
  3169 ;;		line 107 in file "sim800l.c"
  3170 ;; Parameters:    Size  Location     Type
  3171 ;;		None
  3172 ;; Auto vars:     Size  Location     Type
  3173 ;;		None
  3174 ;; Return value:  Size  Location     Type
  3175 ;;                  1    wreg      unsigned char 
  3176 ;; Registers used:
  3177 ;;		wreg, fsr1l, fsr1h, status,2, status,0, pclath, cstack
  3178 ;; Tracked objects:
  3179 ;;		On entry : 0/0
  3180 ;;		On exit  : 0/0
  3181 ;;		Unchanged: 0/0
  3182 ;; Data sizes:     COMMON   BANK0   BANK1   BANK2
  3183 ;;      Params:         0       0       0       0
  3184 ;;      Locals:         0       0       0       0
  3185 ;;      Temps:          0      11       0       0
  3186 ;;      Totals:         0      11       0       0
  3187 ;;Total ram usage:       11 bytes
  3188 ;; Hardware stack levels used:    1
  3189 ;; Hardware stack levels required when called:    6
  3190 ;; This function calls:
  3191 ;;		_EEPROMAdd
  3192 ;; This function is called by:
  3193 ;;		_main
  3194 ;; This function uses a non-reentrant model
  3195 ;;
  3196                           
  3197                           
  3198                           ;psect for function _SIM800Command
  3199  034F                     _SIM800Command:	
  3200                           
  3201                           ;sim800l.c: 109: if(SIM800L.command[0]==':')
  3202                           
  3203                           ;incstack = 0
  3204                           ; Regs used in _SIM800Command: [wreg+fsr1l+fsr1h+status,2+status,0+pclath+cstack]
  3205  034F  30D2               	movlw	210
  3206  0350  0086               	movwf	6
  3207  0351  3020               	movlw	32
  3208  0352  0087               	movwf	7
  3209  0353  0801               	movf	1,w
  3210  0354  3A3A               	xorlw	58
  3211  0355  1D03               	skipz
  3212  0356  0008               	return
  3213                           
  3214                           ;sim800l.c: 110: {
  3215                           ;sim800l.c: 111: if(SIM800L.command[1]=='A' && SIM800L.command[2]=='D' && SIM800L.comman
      +                          d[3]=='D' )
  3216  0357  30D3               	movlw	211
  3217  0358  0086               	movwf	6
  3218  0359  3020               	movlw	32
  3219  035A  0087               	movwf	7
  3220  035B  0801               	movf	1,w
  3221  035C  3A41               	xorlw	65
  3222  035D  1D03               	skipz
  3223  035E  0008               	return
  3224  035F  30D4               	movlw	212
  3225  0360  0086               	movwf	6
  3226  0361  3020               	movlw	32
  3227  0362  0087               	movwf	7
  3228  0363  0801               	movf	1,w
  3229  0364  3A44               	xorlw	68
  3230  0365  1D03               	skipz
  3231  0366  0008               	return
  3232  0367  30D5               	movlw	213
  3233  0368  0086               	movwf	6
  3234  0369  3020               	movlw	32
  3235  036A  0087               	movwf	7
  3236  036B  0801               	movf	1,w
  3237  036C  3A44               	xorlw	68
  3238  036D  1D03               	skipz
  3239  036E  0008               	return
  3240                           
  3241                           ;sim800l.c: 112: {
  3242                           ;sim800l.c: 113: i=5;
  3243  036F  3005               	movlw	5
  3244  0370  0020               	movlb	0	; select bank0
  3245  0371  00C1               	movwf	??_SIM800Command
  3246  0372  0841               	movf	??_SIM800Command,w
  3247  0373  00D5               	movwf	_i
  3248                           
  3249                           ;sim800l.c: 114: while(SIM800L.command[i]>='0' && SIM800L.command[i]<='9' )
  3250  0374  2BA8               	goto	l2145
  3251  0375                     l2139:	
  3252                           
  3253                           ;sim800l.c: 115: {
  3254                           ;sim800l.c: 116: SIM800L.cell[i-5]=SIM800L.buffer[i];
  3255  0375  0855               	movf	_i,w
  3256  0376  00C1               	movwf	??_SIM800Command
  3257  0377  01C2               	clrf	??_SIM800Command+1
  3258  0378  3092               	movlw	146
  3259  0379  00C3               	movwf	??_SIM800Command+2
  3260  037A  3020               	movlw	32
  3261  037B  00C4               	movwf	??_SIM800Command+3
  3262  037C  0841               	movf	??_SIM800Command,w
  3263  037D  0743               	addwf	??_SIM800Command+2,w
  3264  037E  0086               	movwf	6
  3265  037F  0842               	movf	??_SIM800Command+1,w
  3266  0380  3D44               	addwfc	??_SIM800Command+3,w
  3267  0381  0087               	movwf	7
  3268  0382  0801               	movf	1,w
  3269  0383  00C5               	movwf	??_SIM800Command+4
  3270  0384  0855               	movf	_i,w
  3271  0385  3EFB               	addlw	251
  3272  0386  00C6               	movwf	??_SIM800Command+5
  3273  0387  30FF               	movlw	255
  3274  0388  1803               	skipnc
  3275  0389  3000               	movlw	0
  3276  038A  00C7               	movwf	??_SIM800Command+6
  3277  038B  307C               	movlw	124
  3278  038C  00C8               	movwf	??_SIM800Command+7
  3279  038D  3020               	movlw	32
  3280  038E  00C9               	movwf	??_SIM800Command+8
  3281  038F  0846               	movf	??_SIM800Command+5,w
  3282  0390  0748               	addwf	??_SIM800Command+7,w
  3283  0391  00CA               	movwf	??_SIM800Command+9
  3284  0392  0847               	movf	??_SIM800Command+6,w
  3285  0393  3D49               	addwfc	??_SIM800Command+8,w
  3286  0394  00CB               	movwf	??_SIM800Command+10
  3287  0395  084A               	movf	??_SIM800Command+9,w
  3288  0396  0086               	movwf	6
  3289  0397  084B               	movf	??_SIM800Command+10,w
  3290  0398  0087               	movwf	7
  3291  0399  0845               	movf	??_SIM800Command+4,w
  3292  039A  0081               	movwf	1
  3293                           
  3294                           ;sim800l.c: 117: i++;
  3295  039B  3001               	movlw	1
  3296  039C  00C1               	movwf	??_SIM800Command
  3297  039D  0841               	movf	??_SIM800Command,w
  3298  039E  07D5               	addwf	_i,f
  3299                           
  3300                           ;sim800l.c: 118: SIM800L.cell_lenght++;
  3301  039F  3001               	movlw	1
  3302  03A0  00C1               	movwf	??_SIM800Command
  3303  03A1  3078               	movlw	120
  3304  03A2  0086               	movwf	6
  3305  03A3  3020               	movlw	32
  3306  03A4  0087               	movwf	7
  3307  03A5  3153               	addfsr 1,19
  3308  03A6  0841               	movf	??_SIM800Command,w
  3309  03A7  0781               	addwf	1,f
  3310  03A8                     l2145:	
  3311  03A8  0855               	movf	_i,w
  3312  03A9  00C1               	movwf	??_SIM800Command
  3313  03AA  01C2               	clrf	??_SIM800Command+1
  3314  03AB  30D2               	movlw	210
  3315  03AC  00C3               	movwf	??_SIM800Command+2
  3316  03AD  3020               	movlw	32
  3317  03AE  00C4               	movwf	??_SIM800Command+3
  3318  03AF  0841               	movf	??_SIM800Command,w
  3319  03B0  0743               	addwf	??_SIM800Command+2,w
  3320  03B1  0086               	movwf	6
  3321  03B2  0842               	movf	??_SIM800Command+1,w
  3322  03B3  3D44               	addwfc	??_SIM800Command+3,w
  3323  03B4  0087               	movwf	7
  3324  03B5  3030               	movlw	48
  3325  03B6  0201               	subwf	1,w
  3326  03B7  1C03               	skipc
  3327  03B8  2BCA               	goto	l2149
  3328  03B9  0855               	movf	_i,w
  3329  03BA  00C1               	movwf	??_SIM800Command
  3330  03BB  01C2               	clrf	??_SIM800Command+1
  3331  03BC  30D2               	movlw	210
  3332  03BD  00C3               	movwf	??_SIM800Command+2
  3333  03BE  3020               	movlw	32
  3334  03BF  00C4               	movwf	??_SIM800Command+3
  3335  03C0  0841               	movf	??_SIM800Command,w
  3336  03C1  0743               	addwf	??_SIM800Command+2,w
  3337  03C2  0086               	movwf	6
  3338  03C3  0842               	movf	??_SIM800Command+1,w
  3339  03C4  3D44               	addwfc	??_SIM800Command+3,w
  3340  03C5  0087               	movwf	7
  3341  03C6  303A               	movlw	58
  3342  03C7  0201               	subwf	1,w
  3343  03C8  1C03               	skipc
  3344  03C9  2B75               	goto	l2139
  3345  03CA                     l2149:	
  3346                           
  3347                           ;sim800l.c: 119: }
  3348                           ;sim800l.c: 120: EEPROMAdd(SIM800L.cell, SIM800L.cell_lenght);
  3349  03CA  307C               	movlw	124
  3350  03CB  00BB               	movwf	EEPROMAdd@nmbr
  3351  03CC  3020               	movlw	32
  3352  03CD  00BC               	movwf	EEPROMAdd@nmbr+1
  3353  03CE  3078               	movlw	120
  3354  03CF  0086               	movwf	6
  3355  03D0  3020               	movlw	32
  3356  03D1  0087               	movwf	7
  3357  03D2  3153               	addfsr 1,19
  3358  03D3  0801               	movf	1,w
  3359  03D4  00C1               	movwf	??_SIM800Command
  3360  03D5  0841               	movf	??_SIM800Command,w
  3361  03D6  00BD               	movwf	EEPROMAdd@nmbrLenght
  3362  03D7  3186  263C         	fcall	_EEPROMAdd
  3363  03D9  0008               	return
  3364  03DA                     __end_of_SIM800Command:	
  3365                           ;sim800l.c: 121: }
  3366                           ;sim800l.c: 122: }
  3367                           ;sim800l.c: 123: return 1;
  3368                           ;	Return value of _SIM800Command is never used
  3369                           
  3370                           
  3371                           	psect	text11
  3372  063C                     __ptext11:	
  3373 ;; *************** function _EEPROMAdd *****************
  3374 ;; Defined at:
  3375 ;;		line 174 in file "eeprom.c"
  3376 ;; Parameters:    Size  Location     Type
  3377 ;;  nmbr            2   27[BANK0 ] PTR const unsigned char 
  3378 ;;		 -> SIM800L.cell(15), SIM800L(120), 
  3379 ;;  nmbrLenght      1   29[BANK0 ] unsigned char 
  3380 ;; Auto vars:     Size  Location     Type
  3381 ;;  empty           2   31[BANK0 ] unsigned int 
  3382 ;; Return value:  Size  Location     Type
  3383 ;;                  1    wreg      unsigned char 
  3384 ;; Registers used:
  3385 ;;		wreg, fsr1l, fsr1h, status,2, status,0, pclath, cstack
  3386 ;; Tracked objects:
  3387 ;;		On entry : 0/0
  3388 ;;		On exit  : 0/0
  3389 ;;		Unchanged: 0/0
  3390 ;; Data sizes:     COMMON   BANK0   BANK1   BANK2
  3391 ;;      Params:         0       3       0       0
  3392 ;;      Locals:         0       2       0       0
  3393 ;;      Temps:          0       1       0       0
  3394 ;;      Totals:         0       6       0       0
  3395 ;;Total ram usage:        6 bytes
  3396 ;; Hardware stack levels used:    1
  3397 ;; Hardware stack levels required when called:    5
  3398 ;; This function calls:
  3399 ;;		_EEPROMSaveNumber
  3400 ;;		_EepromRead
  3401 ;;		___wmul
  3402 ;; This function is called by:
  3403 ;;		_SIM800Command
  3404 ;; This function uses a non-reentrant model
  3405 ;;
  3406                           
  3407                           
  3408                           ;psect for function _EEPROMAdd
  3409  063C                     _EEPROMAdd:	
  3410                           
  3411                           ;eeprom.c: 176: uint16_t empty=0;
  3412                           
  3413                           ;incstack = 0
  3414                           ; Regs used in _EEPROMAdd: [wreg+fsr1l+fsr1h+status,2+status,0+pclath+cstack]
  3415  063C  0020               	movlb	0	; select bank0
  3416  063D  01BF               	clrf	EEPROMAdd@empty
  3417  063E  01C0               	clrf	EEPROMAdd@empty+1
  3418  063F                     l1907:	
  3419                           ;eeprom.c: 177: do
  3420                           
  3421                           
  3422                           ;eeprom.c: 178: {
  3423                           ;eeprom.c: 179: if(EepromRead((empty*10))<'0' || EepromRead((empty*10))>'9')
  3424  063F  0840               	movf	EEPROMAdd@empty+1,w
  3425  0640  01A6               	clrf	___wmul@multiplier+1
  3426  0641  07A6               	addwf	___wmul@multiplier+1,f
  3427  0642  083F               	movf	EEPROMAdd@empty,w
  3428  0643  01A5               	clrf	___wmul@multiplier
  3429  0644  07A5               	addwf	___wmul@multiplier,f
  3430  0645  300A               	movlw	10
  3431  0646  00A7               	movwf	___wmul@multiplicand
  3432  0647  3000               	movlw	0
  3433  0648  00A8               	movwf	___wmul@multiplicand+1
  3434  0649  318F  272C  3186   	fcall	___wmul
  3435  064C  0020               	movlb	0	; select bank0
  3436  064D  0826               	movf	?___wmul+1,w
  3437  064E  01AD               	clrf	EepromRead@address+1
  3438  064F  07AD               	addwf	EepromRead@address+1,f
  3439  0650  0825               	movf	?___wmul,w
  3440  0651  01AC               	clrf	EepromRead@address
  3441  0652  07AC               	addwf	EepromRead@address,f
  3442  0653  318E  26F4  3186   	fcall	_EepromRead
  3443  0656  0020               	movlb	0	; select bank0
  3444  0657  00BE               	movwf	??_EEPROMAdd
  3445  0658  3030               	movlw	48
  3446  0659  023E               	subwf	??_EEPROMAdd,w
  3447  065A  1C03               	skipc
  3448  065B  2E79               	goto	l1911
  3449  065C  0840               	movf	EEPROMAdd@empty+1,w
  3450  065D  01A6               	clrf	___wmul@multiplier+1
  3451  065E  07A6               	addwf	___wmul@multiplier+1,f
  3452  065F  083F               	movf	EEPROMAdd@empty,w
  3453  0660  01A5               	clrf	___wmul@multiplier
  3454  0661  07A5               	addwf	___wmul@multiplier,f
  3455  0662  300A               	movlw	10
  3456  0663  00A7               	movwf	___wmul@multiplicand
  3457  0664  3000               	movlw	0
  3458  0665  00A8               	movwf	___wmul@multiplicand+1
  3459  0666  318F  272C  3186   	fcall	___wmul
  3460  0669  0020               	movlb	0	; select bank0
  3461  066A  0826               	movf	?___wmul+1,w
  3462  066B  01AD               	clrf	EepromRead@address+1
  3463  066C  07AD               	addwf	EepromRead@address+1,f
  3464  066D  0825               	movf	?___wmul,w
  3465  066E  01AC               	clrf	EepromRead@address
  3466  066F  07AC               	addwf	EepromRead@address,f
  3467  0670  318E  26F4  3186   	fcall	_EepromRead
  3468  0673  0020               	movlb	0	; select bank0
  3469  0674  00BE               	movwf	??_EEPROMAdd
  3470  0675  303A               	movlw	58
  3471  0676  023E               	subwf	??_EEPROMAdd,w
  3472  0677  1C03               	skipc
  3473  0678  2E7D               	goto	l128
  3474  0679                     l1911:	
  3475                           
  3476                           ;eeprom.c: 180: {
  3477                           ;eeprom.c: 181: empty=1;
  3478  0679  3001               	movlw	1
  3479  067A  00BF               	movwf	EEPROMAdd@empty
  3480  067B  3000               	movlw	0
  3481  067C  00C0               	movwf	EEPROMAdd@empty+1
  3482  067D                     l128:	
  3483                           
  3484                           ;eeprom.c: 182: }
  3485                           ;eeprom.c: 183: empty++;
  3486  067D  3001               	movlw	1
  3487  067E  07BF               	addwf	EEPROMAdd@empty,f
  3488  067F  3000               	movlw	0
  3489  0680  3DC0               	addwfc	EEPROMAdd@empty+1,f
  3490                           
  3491                           ;eeprom.c: 184: }while(!empty && empty<300);
  3492  0681  0840               	movf	EEPROMAdd@empty+1,w
  3493  0682  043F               	iorwf	EEPROMAdd@empty,w
  3494  0683  1D03               	skipz
  3495  0684  2E8C               	goto	l1917
  3496  0685  3001               	movlw	1
  3497  0686  0240               	subwf	EEPROMAdd@empty+1,w
  3498  0687  302C               	movlw	44
  3499  0688  1903               	skipnz
  3500  0689  023F               	subwf	EEPROMAdd@empty,w
  3501  068A  1C03               	skipc
  3502  068B  2E3F               	goto	l1907
  3503  068C                     l1917:	
  3504                           
  3505                           ;eeprom.c: 185: EEPROMSaveNumber(nmbr,nmbrLenght,empty);
  3506  068C  083C               	movf	EEPROMAdd@nmbr+1,w
  3507  068D  01B0               	clrf	EEPROMSaveNumber@nmbr+1
  3508  068E  07B0               	addwf	EEPROMSaveNumber@nmbr+1,f
  3509  068F  083B               	movf	EEPROMAdd@nmbr,w
  3510  0690  01AF               	clrf	EEPROMSaveNumber@nmbr
  3511  0691  07AF               	addwf	EEPROMSaveNumber@nmbr,f
  3512  0692  083D               	movf	EEPROMAdd@nmbrLenght,w
  3513  0693  00BE               	movwf	??_EEPROMAdd
  3514  0694  083E               	movf	??_EEPROMAdd,w
  3515  0695  00B1               	movwf	EEPROMSaveNumber@nmbrLenght
  3516  0696  0840               	movf	EEPROMAdd@empty+1,w
  3517  0697  01B3               	clrf	EEPROMSaveNumber@position+1
  3518  0698  07B3               	addwf	EEPROMSaveNumber@position+1,f
  3519  0699  083F               	movf	EEPROMAdd@empty,w
  3520  069A  01B2               	clrf	EEPROMSaveNumber@position
  3521  069B  07B2               	addwf	EEPROMSaveNumber@position,f
  3522  069C  3183  23DA         	fcall	_EEPROMSaveNumber
  3523  069E  0008               	return
  3524  069F                     __end_of_EEPROMAdd:	
  3525                           ;eeprom.c: 187: return 1;
  3526                           ;	Return value of _EEPROMAdd is never used
  3527                           
  3528                           
  3529                           	psect	text12
  3530  03DA                     __ptext12:	
  3531 ;; *************** function _EEPROMSaveNumber *****************
  3532 ;; Defined at:
  3533 ;;		line 105 in file "eeprom.c"
  3534 ;; Parameters:    Size  Location     Type
  3535 ;;  nmbr            2   15[BANK0 ] PTR const unsigned char 
  3536 ;;		 -> SIM800L.cell(15), SIM800L(120), 
  3537 ;;  nmbrLenght      1   17[BANK0 ] unsigned char 
  3538 ;;  position        2   18[BANK0 ] unsigned int 
  3539 ;; Auto vars:     Size  Location     Type
  3540 ;;  address         2   25[BANK0 ] unsigned int 
  3541 ;;  count           1   24[BANK0 ] unsigned char 
  3542 ;;  result          1   23[BANK0 ] unsigned char 
  3543 ;; Return value:  Size  Location     Type
  3544 ;;                  1    wreg      unsigned char 
  3545 ;; Registers used:
  3546 ;;		wreg, fsr1l, fsr1h, status,2, status,0, pclath, cstack
  3547 ;; Tracked objects:
  3548 ;;		On entry : 0/0
  3549 ;;		On exit  : 0/0
  3550 ;;		Unchanged: 0/0
  3551 ;; Data sizes:     COMMON   BANK0   BANK1   BANK2
  3552 ;;      Params:         0       5       0       0
  3553 ;;      Locals:         0       4       0       0
  3554 ;;      Temps:          0       3       0       0
  3555 ;;      Totals:         0      12       0       0
  3556 ;;Total ram usage:       12 bytes
  3557 ;; Hardware stack levels used:    1
  3558 ;; Hardware stack levels required when called:    4
  3559 ;; This function calls:
  3560 ;;		_EepromWrite
  3561 ;;		___wmul
  3562 ;; This function is called by:
  3563 ;;		_EEPROMAdd
  3564 ;; This function uses a non-reentrant model
  3565 ;;
  3566                           
  3567                           
  3568                           ;psect for function _EEPROMSaveNumber
  3569  03DA                     _EEPROMSaveNumber:	
  3570                           
  3571                           ;eeprom.c: 107: uint8_t count=0,result=1;
  3572                           
  3573                           ;incstack = 0
  3574                           ; Regs used in _EEPROMSaveNumber: [wreg+fsr1l+fsr1h+status,2+status,0+pclath+cstack]
  3575  03DA  0020               	movlb	0	; select bank0
  3576  03DB  01B8               	clrf	EEPROMSaveNumber@count
  3577  03DC  01B7               	clrf	EEPROMSaveNumber@result
  3578  03DD  0AB7               	incf	EEPROMSaveNumber@result,f
  3579                           
  3580                           ;eeprom.c: 108: uint16_t address=0;
  3581  03DE  01B9               	clrf	EEPROMSaveNumber@address
  3582  03DF  01BA               	clrf	EEPROMSaveNumber@address+1
  3583                           
  3584                           ;eeprom.c: 109: address=position*10;
  3585  03E0  0833               	movf	EEPROMSaveNumber@position+1,w
  3586  03E1  01A6               	clrf	___wmul@multiplier+1
  3587  03E2  07A6               	addwf	___wmul@multiplier+1,f
  3588  03E3  0832               	movf	EEPROMSaveNumber@position,w
  3589  03E4  01A5               	clrf	___wmul@multiplier
  3590  03E5  07A5               	addwf	___wmul@multiplier,f
  3591  03E6  300A               	movlw	10
  3592  03E7  00A7               	movwf	___wmul@multiplicand
  3593  03E8  3000               	movlw	0
  3594  03E9  00A8               	movwf	___wmul@multiplicand+1
  3595  03EA  318F  272C  3183   	fcall	___wmul
  3596  03ED  0020               	movlb	0	; select bank0
  3597  03EE  0826               	movf	?___wmul+1,w
  3598  03EF  01BA               	clrf	EEPROMSaveNumber@address+1
  3599  03F0  07BA               	addwf	EEPROMSaveNumber@address+1,f
  3600  03F1  0825               	movf	?___wmul,w
  3601  03F2  01B9               	clrf	EEPROMSaveNumber@address
  3602  03F3  07B9               	addwf	EEPROMSaveNumber@address,f
  3603                           
  3604                           ;eeprom.c: 110: address=address+(10-1);
  3605  03F4  0839               	movf	EEPROMSaveNumber@address,w
  3606  03F5  3E09               	addlw	9
  3607  03F6  00B9               	movwf	EEPROMSaveNumber@address
  3608  03F7  3000               	movlw	0
  3609  03F8  3D3A               	addwfc	EEPROMSaveNumber@address+1,w
  3610  03F9  00BA               	movwf	EEPROMSaveNumber@address+1
  3611                           
  3612                           ;eeprom.c: 112: for(count=10;count>0;count--)
  3613  03FA  300A               	movlw	10
  3614  03FB  00B4               	movwf	??_EEPROMSaveNumber
  3615  03FC  0834               	movf	??_EEPROMSaveNumber,w
  3616  03FD  00B8               	movwf	EEPROMSaveNumber@count
  3617  03FE                     L8:	
  3618  03FE  08B8               	movf	EEPROMSaveNumber@count,f
  3619  03FF  1903               	btfsc	3,2
  3620  0400  0008               	return
  3621                           
  3622                           ;eeprom.c: 113: {
  3623                           ;eeprom.c: 114: if(nmbrLenght)
  3624  0401  0831               	movf	EEPROMSaveNumber@nmbrLenght,w
  3625  0402  1903               	btfsc	3,2
  3626  0403  2C34               	goto	l1883
  3627                           
  3628                           ;eeprom.c: 115: {
  3629                           ;eeprom.c: 116: nmbrLenght--;
  3630  0404  3001               	movlw	1
  3631  0405  02B1               	subwf	EEPROMSaveNumber@nmbrLenght,f
  3632                           
  3633                           ;eeprom.c: 117: if(*(nmbr+nmbrLenght)>='0' && *(nmbr+nmbrLenght)<='9')
  3634  0406  0831               	movf	EEPROMSaveNumber@nmbrLenght,w
  3635  0407  00B4               	movwf	??_EEPROMSaveNumber
  3636  0408  01B5               	clrf	??_EEPROMSaveNumber+1
  3637  0409  0834               	movf	??_EEPROMSaveNumber,w
  3638  040A  072F               	addwf	EEPROMSaveNumber@nmbr,w
  3639  040B  0086               	movwf	6
  3640  040C  0835               	movf	??_EEPROMSaveNumber+1,w
  3641  040D  3D30               	addwfc	EEPROMSaveNumber@nmbr+1,w
  3642  040E  0087               	movwf	7
  3643  040F  3030               	movlw	48
  3644  0410  0201               	subwf	1,w
  3645  0411  1C03               	skipc
  3646  0412  2C3F               	goto	l1885
  3647  0413  0831               	movf	EEPROMSaveNumber@nmbrLenght,w
  3648  0414  00B4               	movwf	??_EEPROMSaveNumber
  3649  0415  01B5               	clrf	??_EEPROMSaveNumber+1
  3650  0416  0834               	movf	??_EEPROMSaveNumber,w
  3651  0417  072F               	addwf	EEPROMSaveNumber@nmbr,w
  3652  0418  0086               	movwf	6
  3653  0419  0835               	movf	??_EEPROMSaveNumber+1,w
  3654  041A  3D30               	addwfc	EEPROMSaveNumber@nmbr+1,w
  3655  041B  0087               	movwf	7
  3656  041C  303A               	movlw	58
  3657  041D  0201               	subwf	1,w
  3658  041E  1803               	skipnc
  3659  041F  2C3F               	goto	l1885
  3660                           
  3661                           ;eeprom.c: 118: {
  3662                           ;eeprom.c: 119: EepromWrite(address,*(nmbr+nmbrLenght));
  3663  0420  083A               	movf	EEPROMSaveNumber@address+1,w
  3664  0421  01AD               	clrf	EepromWrite@address+1
  3665  0422  07AD               	addwf	EepromWrite@address+1,f
  3666  0423  0839               	movf	EEPROMSaveNumber@address,w
  3667  0424  01AC               	clrf	EepromWrite@address
  3668  0425  07AC               	addwf	EepromWrite@address,f
  3669  0426  0831               	movf	EEPROMSaveNumber@nmbrLenght,w
  3670  0427  00B4               	movwf	??_EEPROMSaveNumber
  3671  0428  01B5               	clrf	??_EEPROMSaveNumber+1
  3672  0429  0834               	movf	??_EEPROMSaveNumber,w
  3673  042A  072F               	addwf	EEPROMSaveNumber@nmbr,w
  3674  042B  0086               	movwf	6
  3675  042C  0835               	movf	??_EEPROMSaveNumber+1,w
  3676  042D  3D30               	addwfc	EEPROMSaveNumber@nmbr+1,w
  3677  042E  0087               	movwf	7
  3678  042F  0801               	movf	1,w
  3679  0430  00B6               	movwf	??_EEPROMSaveNumber+2
  3680  0431  0836               	movf	??_EEPROMSaveNumber+2,w
  3681  0432  00AE               	movwf	EepromWrite@data
  3682  0433  2C3C               	goto	L7
  3683  0434                     l1883:	
  3684                           ;eeprom.c: 120: }
  3685                           ;eeprom.c: 121: }
  3686                           
  3687                           
  3688                           ;eeprom.c: 122: else
  3689                           ;eeprom.c: 123: {
  3690                           ;eeprom.c: 124: EepromWrite(address,'\0');
  3691  0434  0020               	movlb	0	; select bank0
  3692  0435  083A               	movf	EEPROMSaveNumber@address+1,w
  3693  0436  01AD               	clrf	EepromWrite@address+1
  3694  0437  07AD               	addwf	EepromWrite@address+1,f
  3695  0438  0839               	movf	EEPROMSaveNumber@address,w
  3696  0439  01AC               	clrf	EepromWrite@address
  3697  043A  07AC               	addwf	EepromWrite@address,f
  3698  043B  01AE               	clrf	EepromWrite@data
  3699  043C                     L7:	
  3700  043C  3187  27DB  3183   	fcall	_EepromWrite
  3701  043F                     l1885:	
  3702                           
  3703                           ;eeprom.c: 125: }
  3704                           ;eeprom.c: 126: address--;
  3705  043F  3001               	movlw	1
  3706  0440  0020               	movlb	0	; select bank0
  3707  0441  02B9               	subwf	EEPROMSaveNumber@address,f
  3708  0442  3000               	movlw	0
  3709  0443  3BBA               	subwfb	EEPROMSaveNumber@address+1,f
  3710                           
  3711                           ;eeprom.c: 127: _delay((unsigned long)((5)*(8000000/4000.0)));
  3712  0444  300D               	movlw	13
  3713  0445  00B5               	movwf	??_EEPROMSaveNumber+1
  3714  0446  30FB               	movlw	251
  3715  0447  00B4               	movwf	??_EEPROMSaveNumber
  3716  0448                     u2447:	
  3717  0448  0BB4               	decfsz	??_EEPROMSaveNumber,f
  3718  0449  2C48               	goto	u2447
  3719  044A  0BB5               	decfsz	??_EEPROMSaveNumber+1,f
  3720  044B  2C48               	goto	u2447
  3721  044C  3200               	nop2
  3722  044D  3001               	movlw	1
  3723  044E  0020               	movlb	0	; select bank0
  3724  044F  02B8               	subwf	EEPROMSaveNumber@count,f
  3725  0450  2BFE               	goto	L8
  3726  0451                     __end_of_EEPROMSaveNumber:	
  3727                           ;eeprom.c: 128: }
  3728                           ;eeprom.c: 129: return result;
  3729                           ;	Return value of _EEPROMSaveNumber is never used
  3730                           
  3731                           
  3732                           	psect	text13
  3733  0F2C                     __ptext13:	
  3734 ;; *************** function ___wmul *****************
  3735 ;; Defined at:
  3736 ;;		line 15 in file "C:\Program Files (x86)\Microchip\xc8\v1.33\sources\common\Umul16.c"
  3737 ;; Parameters:    Size  Location     Type
  3738 ;;  multiplier      2    5[BANK0 ] unsigned int 
  3739 ;;  multiplicand    2    7[BANK0 ] unsigned int 
  3740 ;; Auto vars:     Size  Location     Type
  3741 ;;  product         2    9[BANK0 ] unsigned int 
  3742 ;; Return value:  Size  Location     Type
  3743 ;;                  2    5[BANK0 ] unsigned int 
  3744 ;; Registers used:
  3745 ;;		wreg, status,2, status,0
  3746 ;; Tracked objects:
  3747 ;;		On entry : 0/0
  3748 ;;		On exit  : 0/0
  3749 ;;		Unchanged: 0/0
  3750 ;; Data sizes:     COMMON   BANK0   BANK1   BANK2
  3751 ;;      Params:         0       4       0       0
  3752 ;;      Locals:         0       2       0       0
  3753 ;;      Temps:          0       0       0       0
  3754 ;;      Totals:         0       6       0       0
  3755 ;;Total ram usage:        6 bytes
  3756 ;; Hardware stack levels used:    1
  3757 ;; Hardware stack levels required when called:    2
  3758 ;; This function calls:
  3759 ;;		Nothing
  3760 ;; This function is called by:
  3761 ;;		_EEPROMSaveNumber
  3762 ;;		_EEPROMAdd
  3763 ;; This function uses a non-reentrant model
  3764 ;;
  3765                           
  3766                           
  3767                           ;psect for function ___wmul
  3768  0F2C                     ___wmul:	
  3769                           
  3770                           ;incstack = 0
  3771                           ; Regs used in ___wmul: [wreg+status,2+status,0]
  3772  0F2C  0020               	movlb	0	; select bank0
  3773  0F2D  01A9               	clrf	___wmul@product
  3774  0F2E  01AA               	clrf	___wmul@product+1
  3775  0F2F                     l1835:	
  3776  0F2F  1C25               	btfss	___wmul@multiplier,0
  3777  0F30  2F35               	goto	l476
  3778  0F31  0827               	movf	___wmul@multiplicand,w
  3779  0F32  07A9               	addwf	___wmul@product,f
  3780  0F33  0828               	movf	___wmul@multiplicand+1,w
  3781  0F34  3DAA               	addwfc	___wmul@product+1,f
  3782  0F35                     l476:	
  3783  0F35  3001               	movlw	1
  3784  0F36                     u1175:	
  3785  0F36  35A7               	lslf	___wmul@multiplicand,f
  3786  0F37  0DA8               	rlf	___wmul@multiplicand+1,f
  3787  0F38  0B89               	decfsz	9,f
  3788  0F39  2F36               	goto	u1175
  3789  0F3A  3001               	movlw	1
  3790  0F3B                     u1185:	
  3791  0F3B  36A6               	lsrf	___wmul@multiplier+1,f
  3792  0F3C  0CA5               	rrf	___wmul@multiplier,f
  3793  0F3D  0B89               	decfsz	9,f
  3794  0F3E  2F3B               	goto	u1185
  3795  0F3F  0826               	movf	___wmul@multiplier+1,w
  3796  0F40  0425               	iorwf	___wmul@multiplier,w
  3797  0F41  1D03               	skipz
  3798  0F42  2F2F               	goto	l1835
  3799  0F43  082A               	movf	___wmul@product+1,w
  3800  0F44  01A6               	clrf	?___wmul+1
  3801  0F45  07A6               	addwf	?___wmul+1,f
  3802  0F46  0829               	movf	___wmul@product,w
  3803  0F47  01A5               	clrf	?___wmul
  3804  0F48  07A5               	addwf	?___wmul,f
  3805  0F49  0008               	return
  3806  0F4A                     __end_of___wmul:	
  3807                           
  3808                           	psect	text14
  3809  07DB                     __ptext14:	
  3810 ;; *************** function _EepromWrite *****************
  3811 ;; Defined at:
  3812 ;;		line 82 in file "eeprom.c"
  3813 ;; Parameters:    Size  Location     Type
  3814 ;;  address         2   12[BANK0 ] unsigned int 
  3815 ;;  data            1   14[BANK0 ] unsigned char 
  3816 ;; Auto vars:     Size  Location     Type
  3817 ;;		None
  3818 ;; Return value:  Size  Location     Type
  3819 ;;		None               void
  3820 ;; Registers used:
  3821 ;;		wreg, status,2, status,0, pclath, cstack
  3822 ;; Tracked objects:
  3823 ;;		On entry : 0/0
  3824 ;;		On exit  : 0/0
  3825 ;;		Unchanged: 0/0
  3826 ;; Data sizes:     COMMON   BANK0   BANK1   BANK2
  3827 ;;      Params:         0       3       0       0
  3828 ;;      Locals:         0       0       0       0
  3829 ;;      Temps:          0       0       0       0
  3830 ;;      Totals:         0       3       0       0
  3831 ;;Total ram usage:        3 bytes
  3832 ;; Hardware stack levels used:    1
  3833 ;; Hardware stack levels required when called:    3
  3834 ;; This function calls:
  3835 ;;		_EepromEnd
  3836 ;;		_EepromOpCode
  3837 ;;		_EepromSend
  3838 ;;		_EepromStart
  3839 ;; This function is called by:
  3840 ;;		_EEPROMSaveNumber
  3841 ;; This function uses a non-reentrant model
  3842 ;;
  3843                           
  3844                           
  3845                           ;psect for function _EepromWrite
  3846  07DB                     _EepromWrite:	
  3847                           
  3848                           ;eeprom.c: 84: EepromStart();
  3849                           
  3850                           ;incstack = 0
  3851                           ; Regs used in _EepromWrite: [wreg+status,2+status,0+pclath+cstack]
  3852  07DB  318E  26C9  3187   	fcall	_EepromStart
  3853                           
  3854                           ;eeprom.c: 85: EepromOpCode(0b00000100, 0x600);
  3855  07DE  3000               	movlw	0
  3856  07DF  0020               	movlb	0	; select bank0
  3857  07E0  00A5               	movwf	EepromOpCode@address
  3858  07E1  3006               	movlw	6
  3859  07E2  00A6               	movwf	EepromOpCode@address+1
  3860  07E3  3004               	movlw	4
  3861  07E4  3185  25D6  3187   	fcall	_EepromOpCode
  3862                           
  3863                           ;eeprom.c: 86: EepromEnd();
  3864  07E7  318E  2692  3187   	fcall	_EepromEnd
  3865                           
  3866                           ;eeprom.c: 88: EepromStart();
  3867  07EA  318E  26C9  3187   	fcall	_EepromStart
  3868                           
  3869                           ;eeprom.c: 89: EepromOpCode(0b00000101, address);
  3870  07ED  0020               	movlb	0	; select bank0
  3871  07EE  082D               	movf	EepromWrite@address+1,w
  3872  07EF  01A6               	clrf	EepromOpCode@address+1
  3873  07F0  07A6               	addwf	EepromOpCode@address+1,f
  3874  07F1  082C               	movf	EepromWrite@address,w
  3875  07F2  01A5               	clrf	EepromOpCode@address
  3876  07F3  07A5               	addwf	EepromOpCode@address,f
  3877  07F4  3005               	movlw	5
  3878  07F5  3185  25D6  3187   	fcall	_EepromOpCode
  3879                           
  3880                           ;eeprom.c: 90: EepromSend(data);
  3881  07F8  0020               	movlb	0	; select bank0
  3882  07F9  082E               	movf	EepromWrite@data,w
  3883  07FA  318F  27D2  3187   	fcall	_EepromSend
  3884                           
  3885                           ;eeprom.c: 91: EepromEnd();
  3886  07FD  318E  2692         	fcall	_EepromEnd
  3887  07FF  0008               	return
  3888  0800                     __end_of_EepromWrite:	
  3889                           
  3890                           	psect	text15
  3891  0FD2                     __ptext15:	
  3892 ;; *************** function _EepromSend *****************
  3893 ;; Defined at:
  3894 ;;		line 26 in file "eeprom.c"
  3895 ;; Parameters:    Size  Location     Type
  3896 ;;  b               1    wreg     unsigned char 
  3897 ;; Auto vars:     Size  Location     Type
  3898 ;;  b               1    7[BANK0 ] unsigned char 
  3899 ;;  i               1    8[BANK0 ] char 
  3900 ;; Return value:  Size  Location     Type
  3901 ;;		None               void
  3902 ;; Registers used:
  3903 ;;		wreg, status,2, status,0
  3904 ;; Tracked objects:
  3905 ;;		On entry : 0/0
  3906 ;;		On exit  : 0/0
  3907 ;;		Unchanged: 0/0
  3908 ;; Data sizes:     COMMON   BANK0   BANK1   BANK2
  3909 ;;      Params:         0       0       0       0
  3910 ;;      Locals:         0       2       0       0
  3911 ;;      Temps:          0       2       0       0
  3912 ;;      Totals:         0       4       0       0
  3913 ;;Total ram usage:        4 bytes
  3914 ;; Hardware stack levels used:    1
  3915 ;; Hardware stack levels required when called:    2
  3916 ;; This function calls:
  3917 ;;		Nothing
  3918 ;; This function is called by:
  3919 ;;		_EepromWrite
  3920 ;; This function uses a non-reentrant model
  3921 ;;
  3922                           
  3923                           
  3924                           ;psect for function _EepromSend
  3925  0FD2                     _EepromSend:	
  3926                           
  3927                           ;incstack = 0
  3928                           ; Regs used in _EepromSend: [wreg+status,2+status,0]
  3929                           ;EepromSend@b stored from wreg
  3930  0FD2  0020               	movlb	0	; select bank0
  3931  0FD3  00A7               	movwf	EepromSend@b
  3932                           
  3933                           ;eeprom.c: 28: int8_t i=0;
  3934  0FD4  01A8               	clrf	EepromSend@i
  3935                           
  3936                           ;eeprom.c: 29: for(i=7;i>=0;i--)
  3937  0FD5  3007               	movlw	7
  3938  0FD6  00A5               	movwf	??_EepromSend
  3939  0FD7  0825               	movf	??_EepromSend,w
  3940  0FD8  00A8               	movwf	EepromSend@i
  3941  0FD9                     L9:	
  3942  0FD9  1BA8               	btfsc	EepromSend@i,7
  3943  0FDA  0008               	return
  3944                           
  3945                           ;eeprom.c: 30: {
  3946                           ;eeprom.c: 31: LATCbits.LATC7=b>>i;
  3947  0FDB  0827               	movf	EepromSend@b,w
  3948  0FDC  00A5               	movwf	??_EepromSend
  3949  0FDD  0A28               	incf	EepromSend@i,w
  3950  0FDE  2FE0               	goto	u1074
  3951  0FDF                     u1075:	
  3952  0FDF  36A5               	lsrf	??_EepromSend,f
  3953  0FE0                     u1074:	
  3954  0FE0  0B89               	decfsz	9,f
  3955  0FE1  2FDF               	goto	u1075
  3956  0FE2  0825               	movf	??_EepromSend,w
  3957  0FE3  00A6               	movwf	??_EepromSend+1
  3958  0FE4  0CA6               	rrf	??_EepromSend+1,f
  3959  0FE5  0CA6               	rrf	??_EepromSend+1,f
  3960  0FE6  0022               	movlb	2	; select bank2
  3961  0FE7  080E               	movf	14,w	;volatile
  3962  0FE8  0020               	movlb	0	; select bank0
  3963  0FE9  0626               	xorwf	??_EepromSend+1,w
  3964  0FEA  397F               	andlw	-129
  3965  0FEB  0626               	xorwf	??_EepromSend+1,w
  3966  0FEC  0022               	movlb	2	; select bank2
  3967  0FED  008E               	movwf	14	;volatile
  3968                           
  3969                           ;eeprom.c: 32: _delay((unsigned long)((4/2)*(8000000/4000000.0)));
  3970  0FEE  3200               	nop2	;2 cycle nop
  3971  0FEF  3200               	nop2	;2 cycle nop
  3972                           
  3973                           ;eeprom.c: 33: LATBbits.LATB6=1;
  3974  0FF0  0022               	movlb	2	; select bank2
  3975  0FF1  170D               	bsf	13,6	;volatile
  3976                           
  3977                           ;eeprom.c: 34: _delay((unsigned long)((4)*(8000000/4000000.0)));
  3978  0FF2  3200               	nop2	;2 cycle nop
  3979  0FF3  3200               	nop2	;2 cycle nop
  3980  0FF4  3200               	nop2	;2 cycle nop
  3981  0FF5  3200               	nop2	;2 cycle nop
  3982                           
  3983                           ;eeprom.c: 35: LATBbits.LATB6=0;
  3984  0FF6  0022               	movlb	2	; select bank2
  3985  0FF7  130D               	bcf	13,6	;volatile
  3986                           
  3987                           ;eeprom.c: 36: _delay((unsigned long)((4/2)*(8000000/4000000.0)));
  3988  0FF8  3200               	nop2	;2 cycle nop
  3989  0FF9  3200               	nop2	;2 cycle nop
  3990  0FFA  30FF               	movlw	-1
  3991  0FFB  0020               	movlb	0	; select bank0
  3992  0FFC  00A5               	movwf	??_EepromSend
  3993  0FFD  0825               	movf	??_EepromSend,w
  3994  0FFE  07A8               	addwf	EepromSend@i,f
  3995  0FFF  2FD9               	goto	L9
  3996  1000                     __end_of_EepromSend:	
  3997                           
  3998                           	psect	text16
  3999  0FA4                     __ptext16:	
  4000 ;; *************** function _GPIORedLedBlink *****************
  4001 ;; Defined at:
  4002 ;;		line 26 in file "gpio.c"
  4003 ;; Parameters:    Size  Location     Type
  4004 ;;  times           1    wreg     unsigned char 
  4005 ;; Auto vars:     Size  Location     Type
  4006 ;;  times           1    8[BANK0 ] unsigned char 
  4007 ;;  i               1    9[BANK0 ] unsigned char 
  4008 ;; Return value:  Size  Location     Type
  4009 ;;		None               void
  4010 ;; Registers used:
  4011 ;;		wreg, status,2, status,0
  4012 ;; Tracked objects:
  4013 ;;		On entry : 0/0
  4014 ;;		On exit  : 0/0
  4015 ;;		Unchanged: 0/0
  4016 ;; Data sizes:     COMMON   BANK0   BANK1   BANK2
  4017 ;;      Params:         0       0       0       0
  4018 ;;      Locals:         0       2       0       0
  4019 ;;      Temps:          0       3       0       0
  4020 ;;      Totals:         0       5       0       0
  4021 ;;Total ram usage:        5 bytes
  4022 ;; Hardware stack levels used:    1
  4023 ;; Hardware stack levels required when called:    2
  4024 ;; This function calls:
  4025 ;;		Nothing
  4026 ;; This function is called by:
  4027 ;;		_main
  4028 ;; This function uses a non-reentrant model
  4029 ;;
  4030                           
  4031                           
  4032                           ;psect for function _GPIORedLedBlink
  4033  0FA4                     _GPIORedLedBlink:	
  4034                           
  4035                           ;incstack = 0
  4036                           ; Regs used in _GPIORedLedBlink: [wreg+status,2+status,0]
  4037                           ;GPIORedLedBlink@times stored from wreg
  4038  0FA4  0020               	movlb	0	; select bank0
  4039  0FA5  00A8               	movwf	GPIORedLedBlink@times
  4040                           
  4041                           ;gpio.c: 28: uint8_t i=0;
  4042  0FA6  01A9               	clrf	GPIORedLedBlink@i
  4043                           
  4044                           ;gpio.c: 29: for(i=0;i<times;i++)
  4045  0FA7  01A9               	clrf	GPIORedLedBlink@i
  4046  0FA8                     l2077:	
  4047  0FA8  0828               	movf	GPIORedLedBlink@times,w
  4048  0FA9  0229               	subwf	GPIORedLedBlink@i,w
  4049  0FAA  1803               	btfsc	3,0
  4050  0FAB  0008               	return
  4051                           
  4052                           ;gpio.c: 30: {
  4053                           ;gpio.c: 31: LATCbits.LATC0=1;
  4054  0FAC  0022               	movlb	2	; select bank2
  4055  0FAD  140E               	bsf	14,0	;volatile
  4056                           
  4057                           ;gpio.c: 32: _delay((unsigned long)((100)*(8000000/4000.0)));
  4058  0FAE  3002               	movlw	2
  4059  0FAF  0020               	movlb	0	; select bank0
  4060  0FB0  00A7               	movwf	??_GPIORedLedBlink+2
  4061  0FB1  3004               	movlw	4
  4062  0FB2  00A6               	movwf	??_GPIORedLedBlink+1
  4063  0FB3  30BA               	movlw	186
  4064  0FB4  00A5               	movwf	??_GPIORedLedBlink
  4065  0FB5                     u2457:	
  4066  0FB5  0BA5               	decfsz	??_GPIORedLedBlink,f
  4067  0FB6  2FB5               	goto	u2457
  4068  0FB7  0BA6               	decfsz	??_GPIORedLedBlink+1,f
  4069  0FB8  2FB5               	goto	u2457
  4070  0FB9  0BA7               	decfsz	??_GPIORedLedBlink+2,f
  4071  0FBA  2FB5               	goto	u2457
  4072  0FBB  0000               	nop
  4073                           
  4074                           ;gpio.c: 33: LATCbits.LATC0=0;
  4075  0FBC  0022               	movlb	2	; select bank2
  4076  0FBD  100E               	bcf	14,0	;volatile
  4077                           
  4078                           ;gpio.c: 34: _delay((unsigned long)((100)*(8000000/4000.0)));
  4079  0FBE  3002               	movlw	2
  4080  0FBF  0020               	movlb	0	; select bank0
  4081  0FC0  00A7               	movwf	??_GPIORedLedBlink+2
  4082  0FC1  3004               	movlw	4
  4083  0FC2  00A6               	movwf	??_GPIORedLedBlink+1
  4084  0FC3  30BA               	movlw	186
  4085  0FC4  00A5               	movwf	??_GPIORedLedBlink
  4086  0FC5                     u2467:	
  4087  0FC5  0BA5               	decfsz	??_GPIORedLedBlink,f
  4088  0FC6  2FC5               	goto	u2467
  4089  0FC7  0BA6               	decfsz	??_GPIORedLedBlink+1,f
  4090  0FC8  2FC5               	goto	u2467
  4091  0FC9  0BA7               	decfsz	??_GPIORedLedBlink+2,f
  4092  0FCA  2FC5               	goto	u2467
  4093  0FCB  0000               	nop
  4094  0FCC  3001               	movlw	1
  4095  0FCD  0020               	movlb	0	; select bank0
  4096  0FCE  00A5               	movwf	??_GPIORedLedBlink
  4097  0FCF  0825               	movf	??_GPIORedLedBlink,w
  4098  0FD0  07A9               	addwf	GPIORedLedBlink@i,f
  4099  0FD1  2FA8               	goto	l2077
  4100  0FD2                     __end_of_GPIORedLedBlink:	
  4101                           
  4102                           	psect	text17
  4103  0EA7                     __ptext17:	
  4104 ;; *************** function _GPIOPortInit *****************
  4105 ;; Defined at:
  4106 ;;		line 5 in file "gpio.c"
  4107 ;; Parameters:    Size  Location     Type
  4108 ;;		None
  4109 ;; Auto vars:     Size  Location     Type
  4110 ;;		None
  4111 ;; Return value:  Size  Location     Type
  4112 ;;		None               void
  4113 ;; Registers used:
  4114 ;;		status,2
  4115 ;; Tracked objects:
  4116 ;;		On entry : 0/0
  4117 ;;		On exit  : 0/0
  4118 ;;		Unchanged: 0/0
  4119 ;; Data sizes:     COMMON   BANK0   BANK1   BANK2
  4120 ;;      Params:         0       0       0       0
  4121 ;;      Locals:         0       0       0       0
  4122 ;;      Temps:          0       0       0       0
  4123 ;;      Totals:         0       0       0       0
  4124 ;;Total ram usage:        0 bytes
  4125 ;; Hardware stack levels used:    1
  4126 ;; Hardware stack levels required when called:    2
  4127 ;; This function calls:
  4128 ;;		Nothing
  4129 ;; This function is called by:
  4130 ;;		_main
  4131 ;; This function uses a non-reentrant model
  4132 ;;
  4133                           
  4134                           
  4135                           ;psect for function _GPIOPortInit
  4136  0EA7                     _GPIOPortInit:	
  4137                           
  4138                           ;gpio.c: 8: TRISB7=0;
  4139                           
  4140                           ;incstack = 0
  4141                           ; Regs used in _GPIOPortInit: [status,2]
  4142  0EA7  0021               	movlb	1	; select bank1
  4143  0EA8  138D               	bcf	13,7	;volatile
  4144                           
  4145                           ;gpio.c: 9: TRISB6=0;
  4146  0EA9  130D               	bcf	13,6	;volatile
  4147                           
  4148                           ;gpio.c: 10: TRISC7=0;
  4149  0EAA  138E               	bcf	14,7	;volatile
  4150                           
  4151                           ;gpio.c: 11: TRISB4=1;
  4152  0EAB  160D               	bsf	13,4	;volatile
  4153                           
  4154                           ;gpio.c: 12: ANSELB=0x00;
  4155  0EAC  0023               	movlb	3	; select bank3
  4156  0EAD  018D               	clrf	13	;volatile
  4157                           
  4158                           ;gpio.c: 14: TRISC0=0;
  4159  0EAE  0021               	movlb	1	; select bank1
  4160  0EAF  100E               	bcf	14,0	;volatile
  4161                           
  4162                           ;gpio.c: 15: TRISC1=0;
  4163  0EB0  108E               	bcf	14,1	;volatile
  4164                           
  4165                           ;gpio.c: 16: TRISC2=0;
  4166  0EB1  110E               	bcf	14,2	;volatile
  4167                           
  4168                           ;gpio.c: 18: TRISC4=0;
  4169  0EB2  120E               	bcf	14,4	;volatile
  4170                           
  4171                           ;gpio.c: 19: TRISC5=1;
  4172  0EB3  168E               	bsf	14,5	;volatile
  4173                           
  4174                           ;gpio.c: 21: TRISC6=0;
  4175  0EB4  130E               	bcf	14,6	;volatile
  4176                           
  4177                           ;gpio.c: 23: TRISA4=0;
  4178  0EB5  120C               	bcf	12,4	;volatile
  4179  0EB6  0008               	return
  4180  0EB7                     __end_of_GPIOPortInit:	
  4181                           
  4182                           	psect	text18
  4183  0F76                     __ptext18:	
  4184 ;; *************** function _GPIOBlueLedBlink *****************
  4185 ;; Defined at:
  4186 ;;		line 38 in file "gpio.c"
  4187 ;; Parameters:    Size  Location     Type
  4188 ;;  times           1    wreg     unsigned char 
  4189 ;; Auto vars:     Size  Location     Type
  4190 ;;  times           1    8[BANK0 ] unsigned char 
  4191 ;;  i               1    9[BANK0 ] unsigned char 
  4192 ;; Return value:  Size  Location     Type
  4193 ;;		None               void
  4194 ;; Registers used:
  4195 ;;		wreg, status,2, status,0
  4196 ;; Tracked objects:
  4197 ;;		On entry : 0/0
  4198 ;;		On exit  : 0/0
  4199 ;;		Unchanged: 0/0
  4200 ;; Data sizes:     COMMON   BANK0   BANK1   BANK2
  4201 ;;      Params:         0       0       0       0
  4202 ;;      Locals:         0       2       0       0
  4203 ;;      Temps:          0       3       0       0
  4204 ;;      Totals:         0       5       0       0
  4205 ;;Total ram usage:        5 bytes
  4206 ;; Hardware stack levels used:    1
  4207 ;; Hardware stack levels required when called:    2
  4208 ;; This function calls:
  4209 ;;		Nothing
  4210 ;; This function is called by:
  4211 ;;		_main
  4212 ;; This function uses a non-reentrant model
  4213 ;;
  4214                           
  4215                           
  4216                           ;psect for function _GPIOBlueLedBlink
  4217  0F76                     _GPIOBlueLedBlink:	
  4218                           
  4219                           ;incstack = 0
  4220                           ; Regs used in _GPIOBlueLedBlink: [wreg+status,2+status,0]
  4221                           ;GPIOBlueLedBlink@times stored from wreg
  4222  0F76  0020               	movlb	0	; select bank0
  4223  0F77  00A8               	movwf	GPIOBlueLedBlink@times
  4224                           
  4225                           ;gpio.c: 40: uint8_t i=0;
  4226  0F78  01A9               	clrf	GPIOBlueLedBlink@i
  4227                           
  4228                           ;gpio.c: 41: for(i=0;i<times;i++)
  4229  0F79  01A9               	clrf	GPIOBlueLedBlink@i
  4230  0F7A                     l2117:	
  4231  0F7A  0828               	movf	GPIOBlueLedBlink@times,w
  4232  0F7B  0229               	subwf	GPIOBlueLedBlink@i,w
  4233  0F7C  1803               	btfsc	3,0
  4234  0F7D  0008               	return
  4235                           
  4236                           ;gpio.c: 42: {
  4237                           ;gpio.c: 43: LATCbits.LATC1=1;
  4238  0F7E  0022               	movlb	2	; select bank2
  4239  0F7F  148E               	bsf	14,1	;volatile
  4240                           
  4241                           ;gpio.c: 44: _delay((unsigned long)((100)*(8000000/4000.0)));
  4242  0F80  3002               	movlw	2
  4243  0F81  0020               	movlb	0	; select bank0
  4244  0F82  00A7               	movwf	??_GPIOBlueLedBlink+2
  4245  0F83  3004               	movlw	4
  4246  0F84  00A6               	movwf	??_GPIOBlueLedBlink+1
  4247  0F85  30BA               	movlw	186
  4248  0F86  00A5               	movwf	??_GPIOBlueLedBlink
  4249  0F87                     u2477:	
  4250  0F87  0BA5               	decfsz	??_GPIOBlueLedBlink,f
  4251  0F88  2F87               	goto	u2477
  4252  0F89  0BA6               	decfsz	??_GPIOBlueLedBlink+1,f
  4253  0F8A  2F87               	goto	u2477
  4254  0F8B  0BA7               	decfsz	??_GPIOBlueLedBlink+2,f
  4255  0F8C  2F87               	goto	u2477
  4256  0F8D  0000               	nop
  4257                           
  4258                           ;gpio.c: 45: LATCbits.LATC1=0;
  4259  0F8E  0022               	movlb	2	; select bank2
  4260  0F8F  108E               	bcf	14,1	;volatile
  4261                           
  4262                           ;gpio.c: 46: _delay((unsigned long)((100)*(8000000/4000.0)));
  4263  0F90  3002               	movlw	2
  4264  0F91  0020               	movlb	0	; select bank0
  4265  0F92  00A7               	movwf	??_GPIOBlueLedBlink+2
  4266  0F93  3004               	movlw	4
  4267  0F94  00A6               	movwf	??_GPIOBlueLedBlink+1
  4268  0F95  30BA               	movlw	186
  4269  0F96  00A5               	movwf	??_GPIOBlueLedBlink
  4270  0F97                     u2487:	
  4271  0F97  0BA5               	decfsz	??_GPIOBlueLedBlink,f
  4272  0F98  2F97               	goto	u2487
  4273  0F99  0BA6               	decfsz	??_GPIOBlueLedBlink+1,f
  4274  0F9A  2F97               	goto	u2487
  4275  0F9B  0BA7               	decfsz	??_GPIOBlueLedBlink+2,f
  4276  0F9C  2F97               	goto	u2487
  4277  0F9D  0000               	nop
  4278  0F9E  3001               	movlw	1
  4279  0F9F  0020               	movlb	0	; select bank0
  4280  0FA0  00A5               	movwf	??_GPIOBlueLedBlink
  4281  0FA1  0825               	movf	??_GPIOBlueLedBlink,w
  4282  0FA2  07A9               	addwf	GPIOBlueLedBlink@i,f
  4283  0FA3  2F7A               	goto	l2117
  4284  0FA4                     __end_of_GPIOBlueLedBlink:	
  4285                           
  4286                           	psect	text19
  4287  0451                     __ptext19:	
  4288 ;; *************** function _EEPROMSearchNumber *****************
  4289 ;; Defined at:
  4290 ;;		line 132 in file "eeprom.c"
  4291 ;; Parameters:    Size  Location     Type
  4292 ;;  nmbr            2   16[BANK0 ] PTR const unsigned char 
  4293 ;;		 -> SIM800L.cell(15), SIM800L(120), 
  4294 ;;  nmbrLenght      1   18[BANK0 ] unsigned char 
  4295 ;; Auto vars:     Size  Location     Type
  4296 ;;  aux             2   27[BANK0 ] unsigned int 
  4297 ;;  result          1   26[BANK0 ] unsigned char 
  4298 ;;  count           1   25[BANK0 ] unsigned char 
  4299 ;; Return value:  Size  Location     Type
  4300 ;;                  1    wreg      char 
  4301 ;; Registers used:
  4302 ;;		wreg, fsr1l, fsr1h, status,2, status,0, pclath, cstack
  4303 ;; Tracked objects:
  4304 ;;		On entry : 0/0
  4305 ;;		On exit  : 0/0
  4306 ;;		Unchanged: 0/0
  4307 ;; Data sizes:     COMMON   BANK0   BANK1   BANK2
  4308 ;;      Params:         0       3       0       0
  4309 ;;      Locals:         0       4       0       0
  4310 ;;      Temps:          0       6       0       0
  4311 ;;      Totals:         0      13       0       0
  4312 ;;Total ram usage:       13 bytes
  4313 ;; Hardware stack levels used:    1
  4314 ;; Hardware stack levels required when called:    4
  4315 ;; This function calls:
  4316 ;;		_EepromRead
  4317 ;;		___lwdiv
  4318 ;; This function is called by:
  4319 ;;		_main
  4320 ;; This function uses a non-reentrant model
  4321 ;;
  4322                           
  4323                           
  4324                           ;psect for function _EEPROMSearchNumber
  4325  0451                     _EEPROMSearchNumber:	
  4326                           
  4327                           ;eeprom.c: 134: uint16_t aux=0;
  4328                           
  4329                           ;incstack = 0
  4330                           ; Regs used in _EEPROMSearchNumber: [wreg+fsr1l+fsr1h+status,2+status,0+pclath+cstack]
  4331  0451  0020               	movlb	0	; select bank0
  4332  0452  01BB               	clrf	EEPROMSearchNumber@aux
  4333  0453  01BC               	clrf	EEPROMSearchNumber@aux+1
  4334                           
  4335                           ;eeprom.c: 135: uint8_t count=0, result=0;
  4336  0454  01B9               	clrf	EEPROMSearchNumber@count
  4337  0455  01BA               	clrf	EEPROMSearchNumber@result
  4338                           
  4339                           ;eeprom.c: 137: aux=10-1;
  4340  0456  3009               	movlw	9
  4341  0457  00BB               	movwf	EEPROMSearchNumber@aux
  4342  0458  3000               	movlw	0
  4343  0459  00BC               	movwf	EEPROMSearchNumber@aux+1
  4344                           
  4345                           ;eeprom.c: 138: if(nmbrLenght>10) nmbrLenght=10;
  4346  045A  300B               	movlw	11
  4347  045B  0232               	subwf	EEPROMSearchNumber@nmbrLenght,w
  4348  045C  1C03               	skipc
  4349  045D  2CA6               	goto	l2053
  4350  045E  300A               	movlw	10
  4351  045F  00B3               	movwf	??_EEPROMSearchNumber
  4352  0460  0833               	movf	??_EEPROMSearchNumber,w
  4353  0461  00B2               	movwf	EEPROMSearchNumber@nmbrLenght
  4354                           
  4355                           ;eeprom.c: 140: while(!result && aux<(300-10))
  4356  0462  2CA6               	goto	l2053
  4357  0463                     l2037:	
  4358                           
  4359                           ;eeprom.c: 141: {
  4360                           ;eeprom.c: 142: count=0;
  4361  0463  01B9               	clrf	EEPROMSearchNumber@count
  4362  0464                     l2039:	
  4363                           ;eeprom.c: 143: do{
  4364                           
  4365                           
  4366                           ;eeprom.c: 144: if(EepromRead(aux-count)==*(nmbr+10-(count+1)))
  4367  0464  0839               	movf	EEPROMSearchNumber@count,w
  4368  0465  3E01               	addlw	1
  4369  0466  00B3               	movwf	??_EEPROMSearchNumber
  4370  0467  3000               	movlw	0
  4371  0468  1803               	skipnc
  4372  0469  3001               	movlw	1
  4373  046A  00B4               	movwf	??_EEPROMSearchNumber+1
  4374  046B  09B3               	comf	??_EEPROMSearchNumber,f
  4375  046C  09B4               	comf	??_EEPROMSearchNumber+1,f
  4376  046D  0AB3               	incf	??_EEPROMSearchNumber,f
  4377  046E  1903               	skipnz
  4378  046F  0AB4               	incf	??_EEPROMSearchNumber+1,f
  4379  0470  0833               	movf	??_EEPROMSearchNumber,w
  4380  0471  0730               	addwf	EEPROMSearchNumber@nmbr,w
  4381  0472  00B5               	movwf	??_EEPROMSearchNumber+2
  4382  0473  0834               	movf	??_EEPROMSearchNumber+1,w
  4383  0474  3D31               	addwfc	EEPROMSearchNumber@nmbr+1,w
  4384  0475  00B6               	movwf	??_EEPROMSearchNumber+3
  4385  0476  0835               	movf	??_EEPROMSearchNumber+2,w
  4386  0477  0086               	movwf	6
  4387  0478  0836               	movf	??_EEPROMSearchNumber+3,w
  4388  0479  0087               	movwf	7
  4389  047A  314A               	addfsr 1,10
  4390  047B  0839               	movf	EEPROMSearchNumber@count,w
  4391  047C  00B7               	movwf	??_EEPROMSearchNumber+4
  4392  047D  01B8               	clrf	??_EEPROMSearchNumber+5
  4393  047E  09B7               	comf	??_EEPROMSearchNumber+4,f
  4394  047F  09B8               	comf	??_EEPROMSearchNumber+5,f
  4395  0480  0AB7               	incf	??_EEPROMSearchNumber+4,f
  4396  0481  1903               	skipnz
  4397  0482  0AB8               	incf	??_EEPROMSearchNumber+5,f
  4398  0483  083B               	movf	EEPROMSearchNumber@aux,w
  4399  0484  0737               	addwf	??_EEPROMSearchNumber+4,w
  4400  0485  00AC               	movwf	EepromRead@address
  4401  0486  083C               	movf	EEPROMSearchNumber@aux+1,w
  4402  0487  3D38               	addwfc	??_EEPROMSearchNumber+5,w
  4403  0488  00AD               	movwf	EepromRead@address+1
  4404  0489  318E  26F4  3184   	fcall	_EepromRead
  4405  048C  0601               	xorwf	1,w
  4406  048D  1D03               	skipz
  4407  048E  2C93               	goto	l2043
  4408                           
  4409                           ;eeprom.c: 145: {result=1;}
  4410  048F  0020               	movlb	0	; select bank0
  4411  0490  01BA               	clrf	EEPROMSearchNumber@result
  4412  0491  0ABA               	incf	EEPROMSearchNumber@result,f
  4413  0492  2C95               	goto	l2045
  4414  0493                     l2043:	
  4415                           
  4416                           ;eeprom.c: 146: else
  4417                           ;eeprom.c: 147: {result=0;}
  4418  0493  0020               	movlb	0	; select bank0
  4419  0494  01BA               	clrf	EEPROMSearchNumber@result
  4420  0495                     l2045:	
  4421                           
  4422                           ;eeprom.c: 148: count++;
  4423  0495  3001               	movlw	1
  4424  0496  00B3               	movwf	??_EEPROMSearchNumber
  4425  0497  0833               	movf	??_EEPROMSearchNumber,w
  4426  0498  07B9               	addwf	EEPROMSearchNumber@count,f
  4427                           
  4428                           ;eeprom.c: 149: }while(result && count<nmbrLenght);
  4429  0499  083A               	movf	EEPROMSearchNumber@result,w
  4430  049A  1903               	btfsc	3,2
  4431  049B  2CA0               	goto	l2051
  4432  049C  0832               	movf	EEPROMSearchNumber@nmbrLenght,w
  4433  049D  0239               	subwf	EEPROMSearchNumber@count,w
  4434  049E  1C03               	skipc
  4435  049F  2C64               	goto	l2039
  4436  04A0                     l2051:	
  4437                           
  4438                           ;eeprom.c: 150: aux=aux+10;
  4439  04A0  083B               	movf	EEPROMSearchNumber@aux,w
  4440  04A1  3E0A               	addlw	10
  4441  04A2  00BB               	movwf	EEPROMSearchNumber@aux
  4442  04A3  3000               	movlw	0
  4443  04A4  3D3C               	addwfc	EEPROMSearchNumber@aux+1,w
  4444  04A5  00BC               	movwf	EEPROMSearchNumber@aux+1
  4445  04A6                     l2053:	
  4446  04A6  08BA               	movf	EEPROMSearchNumber@result,f
  4447  04A7  1D03               	skipz
  4448  04A8  2CB0               	goto	l2057
  4449  04A9  3001               	movlw	1
  4450  04AA  023C               	subwf	EEPROMSearchNumber@aux+1,w
  4451  04AB  3022               	movlw	34
  4452  04AC  1903               	skipnz
  4453  04AD  023B               	subwf	EEPROMSearchNumber@aux,w
  4454  04AE  1C03               	skipc
  4455  04AF  2C63               	goto	l2037
  4456  04B0                     l2057:	
  4457                           
  4458                           ;eeprom.c: 151: }
  4459                           ;eeprom.c: 152: if(result==1)
  4460  04B0  083A               	movf	EEPROMSearchNumber@result,w
  4461  04B1  3A01               	xorlw	1
  4462  04B2  1D03               	skipz
  4463  04B3  2CC4               	goto	l2065
  4464                           
  4465                           ;eeprom.c: 153: {
  4466                           ;eeprom.c: 154: return (aux/10)+1;
  4467  04B4  300A               	movlw	10
  4468  04B5  00A5               	movwf	___lwdiv@divisor
  4469  04B6  3000               	movlw	0
  4470  04B7  00A6               	movwf	___lwdiv@divisor+1
  4471  04B8  083C               	movf	EEPROMSearchNumber@aux+1,w
  4472  04B9  01A8               	clrf	___lwdiv@dividend+1
  4473  04BA  07A8               	addwf	___lwdiv@dividend+1,f
  4474  04BB  083B               	movf	EEPROMSearchNumber@aux,w
  4475  04BC  01A7               	clrf	___lwdiv@dividend
  4476  04BD  07A7               	addwf	___lwdiv@dividend,f
  4477  04BE  3184  24C6         	fcall	___lwdiv
  4478  04C0  0020               	movlb	0	; select bank0
  4479  04C1  0825               	movf	?___lwdiv,w
  4480  04C2  3E01               	addlw	1
  4481                           
  4482                           ;eeprom.c: 155: }
  4483  04C3  0008               	return
  4484  04C4                     l2065:	
  4485                           
  4486                           ;eeprom.c: 156: else return 0;
  4487  04C4  3000               	movlw	0
  4488  04C5  0008               	return
  4489  04C6                     __end_of_EEPROMSearchNumber:	
  4490                           
  4491                           	psect	text20
  4492  04C6                     __ptext20:	
  4493 ;; *************** function ___lwdiv *****************
  4494 ;; Defined at:
  4495 ;;		line 6 in file "C:\Program Files (x86)\Microchip\xc8\v1.33\sources\common\lwdiv.c"
  4496 ;; Parameters:    Size  Location     Type
  4497 ;;  divisor         2    5[BANK0 ] unsigned int 
  4498 ;;  dividend        2    7[BANK0 ] unsigned int 
  4499 ;; Auto vars:     Size  Location     Type
  4500 ;;  quotient        2   10[BANK0 ] unsigned int 
  4501 ;;  counter         1   12[BANK0 ] unsigned char 
  4502 ;; Return value:  Size  Location     Type
  4503 ;;                  2    5[BANK0 ] unsigned int 
  4504 ;; Registers used:
  4505 ;;		wreg, status,2, status,0
  4506 ;; Tracked objects:
  4507 ;;		On entry : 0/0
  4508 ;;		On exit  : 0/0
  4509 ;;		Unchanged: 0/0
  4510 ;; Data sizes:     COMMON   BANK0   BANK1   BANK2
  4511 ;;      Params:         0       4       0       0
  4512 ;;      Locals:         0       3       0       0
  4513 ;;      Temps:          0       1       0       0
  4514 ;;      Totals:         0       8       0       0
  4515 ;;Total ram usage:        8 bytes
  4516 ;; Hardware stack levels used:    1
  4517 ;; Hardware stack levels required when called:    2
  4518 ;; This function calls:
  4519 ;;		Nothing
  4520 ;; This function is called by:
  4521 ;;		_EEPROMSearchNumber
  4522 ;; This function uses a non-reentrant model
  4523 ;;
  4524                           
  4525                           
  4526                           ;psect for function ___lwdiv
  4527  04C6                     ___lwdiv:	
  4528                           
  4529                           ;incstack = 0
  4530                           ; Regs used in ___lwdiv: [wreg+status,2+status,0]
  4531  04C6  0020               	movlb	0	; select bank0
  4532  04C7  01AA               	clrf	___lwdiv@quotient
  4533  04C8  01AB               	clrf	___lwdiv@quotient+1
  4534  04C9  0826               	movf	___lwdiv@divisor+1,w
  4535  04CA  0425               	iorwf	___lwdiv@divisor,w
  4536  04CB  1903               	skipnz
  4537  04CC  2CF6               	goto	l1943
  4538  04CD  01AC               	clrf	___lwdiv@counter
  4539  04CE  0AAC               	incf	___lwdiv@counter,f
  4540  04CF                     l1931:	
  4541  04CF  1BA6               	btfsc	___lwdiv@divisor+1,7
  4542  04D0  2CDB               	goto	l1933
  4543  04D1  3001               	movlw	1
  4544  04D2                     u1315:	
  4545  04D2  35A5               	lslf	___lwdiv@divisor,f
  4546  04D3  0DA6               	rlf	___lwdiv@divisor+1,f
  4547  04D4  0B89               	decfsz	9,f
  4548  04D5  2CD2               	goto	u1315
  4549  04D6  3001               	movlw	1
  4550  04D7  00A9               	movwf	??___lwdiv
  4551  04D8  0829               	movf	??___lwdiv,w
  4552  04D9  07AC               	addwf	___lwdiv@counter,f
  4553  04DA  2CCF               	goto	l1931
  4554  04DB                     l1933:	
  4555  04DB  3001               	movlw	1
  4556  04DC                     u1335:	
  4557  04DC  35AA               	lslf	___lwdiv@quotient,f
  4558  04DD  0DAB               	rlf	___lwdiv@quotient+1,f
  4559  04DE  0B89               	decfsz	9,f
  4560  04DF  2CDC               	goto	u1335
  4561  04E0  0826               	movf	___lwdiv@divisor+1,w
  4562  04E1  0228               	subwf	___lwdiv@dividend+1,w
  4563  04E2  1D03               	skipz
  4564  04E3  2CE6               	goto	u1345
  4565  04E4  0825               	movf	___lwdiv@divisor,w
  4566  04E5  0227               	subwf	___lwdiv@dividend,w
  4567  04E6                     u1345:	
  4568  04E6  1C03               	skipc
  4569  04E7  2CED               	goto	l1939
  4570  04E8  0825               	movf	___lwdiv@divisor,w
  4571  04E9  02A7               	subwf	___lwdiv@dividend,f
  4572  04EA  0826               	movf	___lwdiv@divisor+1,w
  4573  04EB  3BA8               	subwfb	___lwdiv@dividend+1,f
  4574  04EC  142A               	bsf	___lwdiv@quotient,0
  4575  04ED                     l1939:	
  4576  04ED  3001               	movlw	1
  4577  04EE                     u1355:	
  4578  04EE  36A6               	lsrf	___lwdiv@divisor+1,f
  4579  04EF  0CA5               	rrf	___lwdiv@divisor,f
  4580  04F0  0B89               	decfsz	9,f
  4581  04F1  2CEE               	goto	u1355
  4582  04F2  3001               	movlw	1
  4583  04F3  02AC               	subwf	___lwdiv@counter,f
  4584  04F4  1D03               	btfss	3,2
  4585  04F5  2CDB               	goto	l1933
  4586  04F6                     l1943:	
  4587  04F6  082B               	movf	___lwdiv@quotient+1,w
  4588  04F7  01A6               	clrf	?___lwdiv+1
  4589  04F8  07A6               	addwf	?___lwdiv+1,f
  4590  04F9  082A               	movf	___lwdiv@quotient,w
  4591  04FA  01A5               	clrf	?___lwdiv
  4592  04FB  07A5               	addwf	?___lwdiv,f
  4593  04FC  0008               	return
  4594  04FD                     __end_of___lwdiv:	
  4595                           
  4596                           	psect	text21
  4597  0EF4                     __ptext21:	
  4598 ;; *************** function _EepromRead *****************
  4599 ;; Defined at:
  4600 ;;		line 94 in file "eeprom.c"
  4601 ;; Parameters:    Size  Location     Type
  4602 ;;  address         2   12[BANK0 ] unsigned int 
  4603 ;; Auto vars:     Size  Location     Type
  4604 ;;  data            1   15[BANK0 ] unsigned char 
  4605 ;; Return value:  Size  Location     Type
  4606 ;;                  1    wreg      unsigned char 
  4607 ;; Registers used:
  4608 ;;		wreg, status,2, status,0, pclath, cstack
  4609 ;; Tracked objects:
  4610 ;;		On entry : 0/0
  4611 ;;		On exit  : 0/0
  4612 ;;		Unchanged: 0/0
  4613 ;; Data sizes:     COMMON   BANK0   BANK1   BANK2
  4614 ;;      Params:         0       2       0       0
  4615 ;;      Locals:         0       1       0       0
  4616 ;;      Temps:          0       1       0       0
  4617 ;;      Totals:         0       4       0       0
  4618 ;;Total ram usage:        4 bytes
  4619 ;; Hardware stack levels used:    1
  4620 ;; Hardware stack levels required when called:    3
  4621 ;; This function calls:
  4622 ;;		_EepromEnd
  4623 ;;		_EepromOpCode
  4624 ;;		_EepromReceive
  4625 ;;		_EepromStart
  4626 ;; This function is called by:
  4627 ;;		_EEPROMSearchNumber
  4628 ;;		_EEPROMAdd
  4629 ;; This function uses a non-reentrant model
  4630 ;;
  4631                           
  4632                           
  4633                           ;psect for function _EepromRead
  4634  0EF4                     _EepromRead:	
  4635                           
  4636                           ;eeprom.c: 96: uint8_t data=0;
  4637                           
  4638                           ;incstack = 0
  4639                           ; Regs used in _EepromRead: [wreg+status,2+status,0+pclath+cstack]
  4640  0EF4  0020               	movlb	0	; select bank0
  4641  0EF5  01AF               	clrf	EepromRead@data
  4642                           
  4643                           ;eeprom.c: 98: EepromStart();
  4644  0EF6  318E  26C9  318E   	fcall	_EepromStart
  4645                           
  4646                           ;eeprom.c: 99: EepromOpCode(0b00000110, address);
  4647  0EF9  0020               	movlb	0	; select bank0
  4648  0EFA  082D               	movf	EepromRead@address+1,w
  4649  0EFB  01A6               	clrf	EepromOpCode@address+1
  4650  0EFC  07A6               	addwf	EepromOpCode@address+1,f
  4651  0EFD  082C               	movf	EepromRead@address,w
  4652  0EFE  01A5               	clrf	EepromOpCode@address
  4653  0EFF  07A5               	addwf	EepromOpCode@address,f
  4654  0F00  3006               	movlw	6
  4655  0F01  3185  25D6  318E   	fcall	_EepromOpCode
  4656                           
  4657                           ;eeprom.c: 100: data=EepromReceive();
  4658  0F04  318F  274A  318E   	fcall	_EepromReceive
  4659  0F07  0020               	movlb	0	; select bank0
  4660  0F08  00AE               	movwf	??_EepromRead
  4661  0F09  082E               	movf	??_EepromRead,w
  4662  0F0A  00AF               	movwf	EepromRead@data
  4663                           
  4664                           ;eeprom.c: 101: EepromEnd();
  4665  0F0B  318E  2692         	fcall	_EepromEnd
  4666                           
  4667                           ;eeprom.c: 102: return data;
  4668  0F0D  0020               	movlb	0	; select bank0
  4669  0F0E  082F               	movf	EepromRead@data,w
  4670  0F0F  0008               	return
  4671  0F10                     __end_of_EepromRead:	
  4672                           
  4673                           	psect	text22
  4674  0EC9                     __ptext22:	
  4675 ;; *************** function _EepromStart *****************
  4676 ;; Defined at:
  4677 ;;		line 5 in file "eeprom.c"
  4678 ;; Parameters:    Size  Location     Type
  4679 ;;		None
  4680 ;; Auto vars:     Size  Location     Type
  4681 ;;		None
  4682 ;; Return value:  Size  Location     Type
  4683 ;;		None               void
  4684 ;; Registers used:
  4685 ;;		wreg
  4686 ;; Tracked objects:
  4687 ;;		On entry : 0/0
  4688 ;;		On exit  : 0/0
  4689 ;;		Unchanged: 0/0
  4690 ;; Data sizes:     COMMON   BANK0   BANK1   BANK2
  4691 ;;      Params:         0       0       0       0
  4692 ;;      Locals:         0       0       0       0
  4693 ;;      Temps:          0       1       0       0
  4694 ;;      Totals:         0       1       0       0
  4695 ;;Total ram usage:        1 bytes
  4696 ;; Hardware stack levels used:    1
  4697 ;; Hardware stack levels required when called:    2
  4698 ;; This function calls:
  4699 ;;		Nothing
  4700 ;; This function is called by:
  4701 ;;		_EepromWrite
  4702 ;;		_EepromRead
  4703 ;;		_EEPROMEraseAll
  4704 ;; This function uses a non-reentrant model
  4705 ;;
  4706                           
  4707                           
  4708                           ;psect for function _EepromStart
  4709  0EC9                     _EepromStart:	
  4710                           
  4711                           ;eeprom.c: 10: LATBbits.LATB6=0;
  4712                           
  4713                           ;incstack = 0
  4714                           ; Regs used in _EepromStart: [wreg]
  4715  0EC9  0022               	movlb	2	; select bank2
  4716  0ECA  130D               	bcf	13,6	;volatile
  4717                           
  4718                           ;eeprom.c: 11: LATBbits.LATB7=1;
  4719  0ECB  178D               	bsf	13,7	;volatile
  4720                           
  4721                           ;eeprom.c: 12: LATCbits.LATC7=1;
  4722  0ECC  178E               	bsf	14,7	;volatile
  4723                           
  4724                           ;eeprom.c: 13: _delay((unsigned long)((4)*(8000000/4000000.0)));
  4725  0ECD  3200               	nop2	;2 cycle nop
  4726  0ECE  3200               	nop2	;2 cycle nop
  4727  0ECF  3200               	nop2	;2 cycle nop
  4728  0ED0  3200               	nop2	;2 cycle nop
  4729                           
  4730                           ;eeprom.c: 14: LATBbits.LATB6=1;
  4731  0ED1  0022               	movlb	2	; select bank2
  4732  0ED2  170D               	bsf	13,6	;volatile
  4733                           
  4734                           ;eeprom.c: 15: _delay((unsigned long)((4)*(8000000/4000000.0)));
  4735  0ED3  3200               	nop2	;2 cycle nop
  4736  0ED4  3200               	nop2	;2 cycle nop
  4737  0ED5  3200               	nop2	;2 cycle nop
  4738  0ED6  3200               	nop2	;2 cycle nop
  4739                           
  4740                           ;eeprom.c: 16: LATBbits.LATB6=0;
  4741  0ED7  0022               	movlb	2	; select bank2
  4742  0ED8  130D               	bcf	13,6	;volatile
  4743                           
  4744                           ;eeprom.c: 17: _delay((unsigned long)((4/2)*(8000000/4000000.0)));
  4745  0ED9  3200               	nop2	;2 cycle nop
  4746  0EDA  3200               	nop2	;2 cycle nop
  4747  0EDB  0008               	return
  4748  0EDC                     __end_of_EepromStart:	
  4749                           
  4750                           	psect	text23
  4751  0F4A                     __ptext23:	
  4752 ;; *************** function _EepromReceive *****************
  4753 ;; Defined at:
  4754 ;;		line 39 in file "eeprom.c"
  4755 ;; Parameters:    Size  Location     Type
  4756 ;;		None
  4757 ;; Auto vars:     Size  Location     Type
  4758 ;;  i               1    8[BANK0 ] char 
  4759 ;;  b               1    7[BANK0 ] unsigned char 
  4760 ;; Return value:  Size  Location     Type
  4761 ;;                  1    wreg      unsigned char 
  4762 ;; Registers used:
  4763 ;;		wreg, status,2, status,0
  4764 ;; Tracked objects:
  4765 ;;		On entry : 0/0
  4766 ;;		On exit  : 0/0
  4767 ;;		Unchanged: 0/0
  4768 ;; Data sizes:     COMMON   BANK0   BANK1   BANK2
  4769 ;;      Params:         0       0       0       0
  4770 ;;      Locals:         0       2       0       0
  4771 ;;      Temps:          0       2       0       0
  4772 ;;      Totals:         0       4       0       0
  4773 ;;Total ram usage:        4 bytes
  4774 ;; Hardware stack levels used:    1
  4775 ;; Hardware stack levels required when called:    2
  4776 ;; This function calls:
  4777 ;;		Nothing
  4778 ;; This function is called by:
  4779 ;;		_EepromRead
  4780 ;; This function uses a non-reentrant model
  4781 ;;
  4782                           
  4783                           
  4784                           ;psect for function _EepromReceive
  4785  0F4A                     _EepromReceive:	
  4786                           
  4787                           ;eeprom.c: 41: uint8_t b=0;
  4788                           
  4789                           ;incstack = 0
  4790                           ; Regs used in _EepromReceive: [wreg+status,2+status,0]
  4791  0F4A  0020               	movlb	0	; select bank0
  4792  0F4B  01A7               	clrf	EepromReceive@b
  4793                           
  4794                           ;eeprom.c: 42: int8_t i=0;
  4795  0F4C  01A8               	clrf	EepromReceive@i
  4796                           
  4797                           ;eeprom.c: 43: for(i=7;i>=0;i--)
  4798  0F4D  3007               	movlw	7
  4799  0F4E  00A5               	movwf	??_EepromReceive
  4800  0F4F  0825               	movf	??_EepromReceive,w
  4801  0F50  00A8               	movwf	EepromReceive@i
  4802  0F51  1BA8               	btfsc	EepromReceive@i,7
  4803  0F52  2F74               	goto	l1823
  4804  0F53                     l83:	
  4805                           
  4806                           ;eeprom.c: 44: {
  4807                           ;eeprom.c: 45: _delay((unsigned long)((4/2)*(8000000/4000000.0)));
  4808  0F53  3200               	nop2	;2 cycle nop
  4809  0F54  3200               	nop2	;2 cycle nop
  4810                           
  4811                           ;eeprom.c: 46: LATBbits.LATB6=1;
  4812  0F55  0022               	movlb	2	; select bank2
  4813  0F56  170D               	bsf	13,6	;volatile
  4814                           
  4815                           ;eeprom.c: 47: _delay((unsigned long)((4/2)*(8000000/4000000.0)));
  4816  0F57  3200               	nop2	;2 cycle nop
  4817  0F58  3200               	nop2	;2 cycle nop
  4818                           
  4819                           ;eeprom.c: 48: b=b+(PORTBbits.RB4<<i);
  4820  0F59  0020               	movlb	0	; select bank0
  4821  0F5A  0E0D               	swapf	13,w	;volatile
  4822  0F5B  3901               	andlw	1
  4823  0F5C  00A5               	movwf	??_EepromReceive
  4824  0F5D  0A28               	incf	EepromReceive@i,w
  4825  0F5E  2F60               	goto	u1134
  4826  0F5F                     u1135:	
  4827  0F5F  35A5               	lslf	??_EepromReceive,f
  4828  0F60                     u1134:	
  4829  0F60  0B89               	decfsz	9,f
  4830  0F61  2F5F               	goto	u1135
  4831  0F62  0825               	movf	??_EepromReceive,w
  4832  0F63  0727               	addwf	EepromReceive@b,w
  4833  0F64  00A6               	movwf	??_EepromReceive+1
  4834  0F65  0826               	movf	??_EepromReceive+1,w
  4835  0F66  00A7               	movwf	EepromReceive@b
  4836                           
  4837                           ;eeprom.c: 49: _delay((unsigned long)((4/2)*(8000000/4000000.0)));
  4838  0F67  3200               	nop2	;2 cycle nop
  4839  0F68  3200               	nop2	;2 cycle nop
  4840                           
  4841                           ;eeprom.c: 50: LATBbits.LATB6=0;
  4842  0F69  0022               	movlb	2	; select bank2
  4843  0F6A  130D               	bcf	13,6	;volatile
  4844                           
  4845                           ;eeprom.c: 51: _delay((unsigned long)((4/2)*(8000000/4000000.0)));
  4846  0F6B  3200               	nop2	;2 cycle nop
  4847  0F6C  3200               	nop2	;2 cycle nop
  4848  0F6D  30FF               	movlw	-1
  4849  0F6E  0020               	movlb	0	; select bank0
  4850  0F6F  00A5               	movwf	??_EepromReceive
  4851  0F70  0825               	movf	??_EepromReceive,w
  4852  0F71  07A8               	addwf	EepromReceive@i,f
  4853  0F72  1FA8               	btfss	EepromReceive@i,7
  4854  0F73  2F53               	goto	l83
  4855  0F74                     l1823:	
  4856                           
  4857                           ;eeprom.c: 52: }
  4858                           ;eeprom.c: 53: return b;
  4859  0F74  0827               	movf	EepromReceive@b,w
  4860  0F75  0008               	return
  4861  0F76                     __end_of_EepromReceive:	
  4862                           
  4863                           	psect	text24
  4864  05D6                     __ptext24:	
  4865 ;; *************** function _EepromOpCode *****************
  4866 ;; Defined at:
  4867 ;;		line 55 in file "eeprom.c"
  4868 ;; Parameters:    Size  Location     Type
  4869 ;;  opcode          1    wreg     unsigned char 
  4870 ;;  address         2    5[BANK0 ] unsigned int 
  4871 ;; Auto vars:     Size  Location     Type
  4872 ;;  opcode          1   10[BANK0 ] unsigned char 
  4873 ;;  i               1   11[BANK0 ] char 
  4874 ;; Return value:  Size  Location     Type
  4875 ;;		None               void
  4876 ;; Registers used:
  4877 ;;		wreg, status,2, status,0
  4878 ;; Tracked objects:
  4879 ;;		On entry : 0/0
  4880 ;;		On exit  : 0/0
  4881 ;;		Unchanged: 0/0
  4882 ;; Data sizes:     COMMON   BANK0   BANK1   BANK2
  4883 ;;      Params:         0       2       0       0
  4884 ;;      Locals:         0       2       0       0
  4885 ;;      Temps:          0       3       0       0
  4886 ;;      Totals:         0       7       0       0
  4887 ;;Total ram usage:        7 bytes
  4888 ;; Hardware stack levels used:    1
  4889 ;; Hardware stack levels required when called:    2
  4890 ;; This function calls:
  4891 ;;		Nothing
  4892 ;; This function is called by:
  4893 ;;		_EepromWrite
  4894 ;;		_EepromRead
  4895 ;;		_EEPROMEraseAll
  4896 ;; This function uses a non-reentrant model
  4897 ;;
  4898                           
  4899                           
  4900                           ;psect for function _EepromOpCode
  4901  05D6                     _EepromOpCode:	
  4902                           
  4903                           ;incstack = 0
  4904                           ; Regs used in _EepromOpCode: [wreg+status,2+status,0]
  4905                           ;EepromOpCode@opcode stored from wreg
  4906  05D6  0020               	movlb	0	; select bank0
  4907  05D7  00AA               	movwf	EepromOpCode@opcode
  4908                           
  4909                           ;eeprom.c: 57: int8_t i=0;
  4910  05D8  01AB               	clrf	EepromOpCode@i
  4911                           
  4912                           ;eeprom.c: 58: LATCbits.LATC7=opcode>>1&0b00000001;
  4913  05D9  362A               	lsrf	EepromOpCode@opcode,w
  4914  05DA  3901               	andlw	1
  4915  05DB  00A7               	movwf	??_EepromOpCode
  4916  05DC  0CA7               	rrf	??_EepromOpCode,f
  4917  05DD  0CA7               	rrf	??_EepromOpCode,f
  4918  05DE  0022               	movlb	2	; select bank2
  4919  05DF  080E               	movf	14,w	;volatile
  4920  05E0  0020               	movlb	0	; select bank0
  4921  05E1  0627               	xorwf	??_EepromOpCode,w
  4922  05E2  397F               	andlw	-129
  4923  05E3  0627               	xorwf	??_EepromOpCode,w
  4924  05E4  0022               	movlb	2	; select bank2
  4925  05E5  008E               	movwf	14	;volatile
  4926                           
  4927                           ;eeprom.c: 59: _delay((unsigned long)((4/2)*(8000000/4000000.0)));
  4928  05E6  3200               	nop2	;2 cycle nop
  4929  05E7  3200               	nop2	;2 cycle nop
  4930                           
  4931                           ;eeprom.c: 60: LATBbits.LATB6=1;
  4932  05E8  0022               	movlb	2	; select bank2
  4933  05E9  170D               	bsf	13,6	;volatile
  4934                           
  4935                           ;eeprom.c: 61: _delay((unsigned long)((4)*(8000000/4000000.0)));
  4936  05EA  3200               	nop2	;2 cycle nop
  4937  05EB  3200               	nop2	;2 cycle nop
  4938  05EC  3200               	nop2	;2 cycle nop
  4939  05ED  3200               	nop2	;2 cycle nop
  4940                           
  4941                           ;eeprom.c: 62: LATBbits.LATB6=0;
  4942  05EE  0022               	movlb	2	; select bank2
  4943  05EF  130D               	bcf	13,6	;volatile
  4944                           
  4945                           ;eeprom.c: 63: _delay((unsigned long)((4/2)*(8000000/4000000.0)));
  4946  05F0  3200               	nop2	;2 cycle nop
  4947  05F1  3200               	nop2	;2 cycle nop
  4948                           
  4949                           ;eeprom.c: 65: LATCbits.LATC7=opcode&0b00000001;
  4950  05F2  0020               	movlb	0	; select bank0
  4951  05F3  082A               	movf	EepromOpCode@opcode,w
  4952  05F4  3901               	andlw	1
  4953  05F5  00A7               	movwf	??_EepromOpCode
  4954  05F6  0CA7               	rrf	??_EepromOpCode,f
  4955  05F7  0CA7               	rrf	??_EepromOpCode,f
  4956  05F8  0022               	movlb	2	; select bank2
  4957  05F9  080E               	movf	14,w	;volatile
  4958  05FA  0020               	movlb	0	; select bank0
  4959  05FB  0627               	xorwf	??_EepromOpCode,w
  4960  05FC  397F               	andlw	-129
  4961  05FD  0627               	xorwf	??_EepromOpCode,w
  4962  05FE  0022               	movlb	2	; select bank2
  4963  05FF  008E               	movwf	14	;volatile
  4964                           
  4965                           ;eeprom.c: 66: _delay((unsigned long)((4/2)*(8000000/4000000.0)));
  4966  0600  3200               	nop2	;2 cycle nop
  4967  0601  3200               	nop2	;2 cycle nop
  4968                           
  4969                           ;eeprom.c: 67: LATBbits.LATB6=1;
  4970  0602  0022               	movlb	2	; select bank2
  4971  0603  170D               	bsf	13,6	;volatile
  4972                           
  4973                           ;eeprom.c: 68: _delay((unsigned long)((4)*(8000000/4000000.0)));
  4974  0604  3200               	nop2	;2 cycle nop
  4975  0605  3200               	nop2	;2 cycle nop
  4976  0606  3200               	nop2	;2 cycle nop
  4977  0607  3200               	nop2	;2 cycle nop
  4978                           
  4979                           ;eeprom.c: 69: LATBbits.LATB6=0;
  4980  0608  0022               	movlb	2	; select bank2
  4981  0609  130D               	bcf	13,6	;volatile
  4982                           
  4983                           ;eeprom.c: 70: _delay((unsigned long)((4/2)*(8000000/4000000.0)));
  4984  060A  3200               	nop2	;2 cycle nop
  4985  060B  3200               	nop2	;2 cycle nop
  4986                           
  4987                           ;eeprom.c: 72: for(i=10;i>=0;i--)
  4988  060C  300A               	movlw	10
  4989  060D  0020               	movlb	0	; select bank0
  4990  060E  00A7               	movwf	??_EepromOpCode
  4991  060F  0827               	movf	??_EepromOpCode,w
  4992  0610  00AB               	movwf	EepromOpCode@i
  4993  0611                     L10:	
  4994  0611  1BAB               	btfsc	EepromOpCode@i,7
  4995  0612  0008               	return
  4996                           
  4997                           ;eeprom.c: 73: {
  4998                           ;eeprom.c: 74: LATCbits.LATC7=address>>i&0b00000001;
  4999  0613  0826               	movf	EepromOpCode@address+1,w
  5000  0614  00A8               	movwf	??_EepromOpCode+1
  5001  0615  0825               	movf	EepromOpCode@address,w
  5002  0616  00A7               	movwf	??_EepromOpCode
  5003  0617  0A2B               	incf	EepromOpCode@i,w
  5004  0618  2E1B               	goto	u1104
  5005  0619                     u1105:	
  5006  0619  36A8               	lsrf	??_EepromOpCode+1,f
  5007  061A  0CA7               	rrf	??_EepromOpCode,f
  5008  061B                     u1104:	
  5009  061B  0B89               	decfsz	9,f
  5010  061C  2E19               	goto	u1105
  5011  061D  0827               	movf	??_EepromOpCode,w
  5012  061E  3901               	andlw	1
  5013  061F  00A9               	movwf	??_EepromOpCode+2
  5014  0620  0CA9               	rrf	??_EepromOpCode+2,f
  5015  0621  0CA9               	rrf	??_EepromOpCode+2,f
  5016  0622  0022               	movlb	2	; select bank2
  5017  0623  080E               	movf	14,w	;volatile
  5018  0624  0020               	movlb	0	; select bank0
  5019  0625  0629               	xorwf	??_EepromOpCode+2,w
  5020  0626  397F               	andlw	-129
  5021  0627  0629               	xorwf	??_EepromOpCode+2,w
  5022  0628  0022               	movlb	2	; select bank2
  5023  0629  008E               	movwf	14	;volatile
  5024                           
  5025                           ;eeprom.c: 75: _delay((unsigned long)((4/2)*(8000000/4000000.0)));
  5026  062A  3200               	nop2	;2 cycle nop
  5027  062B  3200               	nop2	;2 cycle nop
  5028                           
  5029                           ;eeprom.c: 76: LATBbits.LATB6=1;
  5030  062C  0022               	movlb	2	; select bank2
  5031  062D  170D               	bsf	13,6	;volatile
  5032                           
  5033                           ;eeprom.c: 77: _delay((unsigned long)((4)*(8000000/4000000.0)));
  5034  062E  3200               	nop2	;2 cycle nop
  5035  062F  3200               	nop2	;2 cycle nop
  5036  0630  3200               	nop2	;2 cycle nop
  5037  0631  3200               	nop2	;2 cycle nop
  5038                           
  5039                           ;eeprom.c: 78: LATBbits.LATB6=0;
  5040  0632  0022               	movlb	2	; select bank2
  5041  0633  130D               	bcf	13,6	;volatile
  5042                           
  5043                           ;eeprom.c: 79: _delay((unsigned long)((4/2)*(8000000/4000000.0)));
  5044  0634  3200               	nop2	;2 cycle nop
  5045  0635  3200               	nop2	;2 cycle nop
  5046  0636  30FF               	movlw	-1
  5047  0637  0020               	movlb	0	; select bank0
  5048  0638  00A7               	movwf	??_EepromOpCode
  5049  0639  0827               	movf	??_EepromOpCode,w
  5050  063A  07AB               	addwf	EepromOpCode@i,f
  5051  063B  2E11               	goto	L10
  5052  063C                     __end_of_EepromOpCode:	
  5053                           
  5054                           	psect	text25
  5055  0E92                     __ptext25:	
  5056 ;; *************** function _EepromEnd *****************
  5057 ;; Defined at:
  5058 ;;		line 19 in file "eeprom.c"
  5059 ;; Parameters:    Size  Location     Type
  5060 ;;		None
  5061 ;; Auto vars:     Size  Location     Type
  5062 ;;		None
  5063 ;; Return value:  Size  Location     Type
  5064 ;;		None               void
  5065 ;; Registers used:
  5066 ;;		wreg
  5067 ;; Tracked objects:
  5068 ;;		On entry : 0/0
  5069 ;;		On exit  : 0/0
  5070 ;;		Unchanged: 0/0
  5071 ;; Data sizes:     COMMON   BANK0   BANK1   BANK2
  5072 ;;      Params:         0       0       0       0
  5073 ;;      Locals:         0       0       0       0
  5074 ;;      Temps:          0       1       0       0
  5075 ;;      Totals:         0       1       0       0
  5076 ;;Total ram usage:        1 bytes
  5077 ;; Hardware stack levels used:    1
  5078 ;; Hardware stack levels required when called:    2
  5079 ;; This function calls:
  5080 ;;		Nothing
  5081 ;; This function is called by:
  5082 ;;		_EepromWrite
  5083 ;;		_EepromRead
  5084 ;;		_EEPROMEraseAll
  5085 ;; This function uses a non-reentrant model
  5086 ;;
  5087                           
  5088                           
  5089                           ;psect for function _EepromEnd
  5090  0E92                     _EepromEnd:	
  5091                           
  5092                           ;eeprom.c: 21: LATBbits.LATB6=0;
  5093                           
  5094                           ;incstack = 0
  5095                           ; Regs used in _EepromEnd: [wreg]
  5096  0E92  0022               	movlb	2	; select bank2
  5097  0E93  130D               	bcf	13,6	;volatile
  5098                           
  5099                           ;eeprom.c: 22: LATBbits.LATB7=0;
  5100  0E94  138D               	bcf	13,7	;volatile
  5101                           
  5102                           ;eeprom.c: 23: LATCbits.LATC7=0;
  5103  0E95  138E               	bcf	14,7	;volatile
  5104                           
  5105                           ;eeprom.c: 24: _delay((unsigned long)((4)*(8000000/4000000.0)));
  5106  0E96  3200               	nop2	;2 cycle nop
  5107  0E97  3200               	nop2	;2 cycle nop
  5108  0E98  3200               	nop2	;2 cycle nop
  5109  0E99  3200               	nop2	;2 cycle nop
  5110  0E9A  0008               	return
  5111  0E9B                     __end_of_EepromEnd:	
  5112                           
  5113                           	psect	intentry
  5114  0004                     __pintentry:	
  5115 ;; *************** function _ISR *****************
  5116 ;; Defined at:
  5117 ;;		line 6 in file "isr.c"
  5118 ;; Parameters:    Size  Location     Type
  5119 ;;		None
  5120 ;; Auto vars:     Size  Location     Type
  5121 ;;		None
  5122 ;; Return value:  Size  Location     Type
  5123 ;;		None               void
  5124 ;; Registers used:
  5125 ;;		wreg, fsr0l, fsr0h, fsr1l, fsr1h, status,2, status,0, pclath, cstack
  5126 ;; Tracked objects:
  5127 ;;		On entry : 0/0
  5128 ;;		On exit  : 0/0
  5129 ;;		Unchanged: 0/0
  5130 ;; Data sizes:     COMMON   BANK0   BANK1   BANK2
  5131 ;;      Params:         0       0       0       0
  5132 ;;      Locals:         0       0       0       0
  5133 ;;      Temps:          1       0       0       0
  5134 ;;      Totals:         1       0       0       0
  5135 ;;Total ram usage:        1 bytes
  5136 ;; Hardware stack levels used:    1
  5137 ;; Hardware stack levels required when called:    1
  5138 ;; This function calls:
  5139 ;;		_USARTHandleRxInt
  5140 ;; This function is called by:
  5141 ;;		Interrupt level 1
  5142 ;; This function uses a non-reentrant model
  5143 ;;
  5144                           
  5145  0004                     _ISR:	
  5146                           
  5147                           ;incstack = 0
  5148                           ; Regs used in _ISR: [wreg-fsr1h+status,2+status,0+pclath+cstack]
  5149  0004  147E               	bsf	126,0	;set compiler interrupt flag
  5150  0005  3180               	pagesel	$
  5151  0006  0020               	movlb	0	; select bank0
  5152  0007  087F               	movf	127,w
  5153  0008  00FB               	movwf	??_ISR
  5154                           
  5155                           ;isr.c: 8: if (RCIE && RCIF) {
  5156  0009  0021               	movlb	1	; select bank1
  5157  000A  1E91               	btfss	17,5	;volatile
  5158  000B  2811               	goto	i1l191
  5159  000C  0020               	movlb	0	; select bank0
  5160  000D  1E91               	btfss	17,5	;volatile
  5161  000E  2811               	goto	i1l191
  5162                           
  5163                           ;isr.c: 9: USARTHandleRxInt();
  5164  000F  3180  202E         	fcall	_USARTHandleRxInt
  5165  0011                     i1l191:	
  5166                           ;isr.c: 10: return;
  5167                           
  5168  0011  087B               	movf	??_ISR,w
  5169  0012  0020               	movlb	0	; select bank0
  5170  0013  00FF               	movwf	127
  5171  0014  107E               	bcf	126,0	;clear compiler interrupt flag
  5172  0015  0009               	retfie
  5173  0016                     __end_of_ISR:	
  5174                           
  5175                           	psect	text27
  5176  002E                     __ptext27:	
  5177 ;; *************** function _USARTHandleRxInt *****************
  5178 ;; Defined at:
  5179 ;;		line 73 in file "usart.c"
  5180 ;; Parameters:    Size  Location     Type
  5181 ;;		None
  5182 ;; Auto vars:     Size  Location     Type
  5183 ;;  ci              1    2[BANK0 ] unsigned char 
  5184 ;;  ci              1    4[BANK0 ] unsigned char 
  5185 ;;  ci              1    3[BANK0 ] unsigned char 
  5186 ;;  ci              1    1[BANK0 ] unsigned char 
  5187 ;;  data            1    0[BANK0 ] unsigned char 
  5188 ;; Return value:  Size  Location     Type
  5189 ;;		None               void
  5190 ;; Registers used:
  5191 ;;		wreg, fsr0l, fsr0h, fsr1l, fsr1h, status,2, status,0
  5192 ;; Tracked objects:
  5193 ;;		On entry : 0/0
  5194 ;;		On exit  : 0/0
  5195 ;;		Unchanged: 0/0
  5196 ;; Data sizes:     COMMON   BANK0   BANK1   BANK2
  5197 ;;      Params:         0       0       0       0
  5198 ;;      Locals:         0       5       0       0
  5199 ;;      Temps:         11       0       0       0
  5200 ;;      Totals:        11       5       0       0
  5201 ;;Total ram usage:       16 bytes
  5202 ;; Hardware stack levels used:    1
  5203 ;; This function calls:
  5204 ;;		Nothing
  5205 ;; This function is called by:
  5206 ;;		_ISR
  5207 ;; This function uses a non-reentrant model
  5208 ;;
  5209                           
  5210                           
  5211                           ;psect for function _USARTHandleRxInt
  5212  002E                     _USARTHandleRxInt:	
  5213                           
  5214                           ;usart.c: 75: LATCbits.LATC0=1;
  5215                           
  5216                           ;incstack = 0
  5217                           ; Regs used in _USARTHandleRxInt: [wreg-fsr1h+status,2+status,0]
  5218  002E  0022               	movlb	2	; select bank2
  5219  002F  140E               	bsf	14,0	;volatile
  5220                           
  5221                           ;usart.c: 77: char data=RCREG;
  5222  0030  0023               	movlb	3	; select bank3
  5223  0031  0819               	movf	25,w	;volatile
  5224  0032  00F0               	movwf	??_USARTHandleRxInt
  5225  0033  0870               	movf	??_USARTHandleRxInt,w
  5226  0034  0020               	movlb	0	; select bank0
  5227  0035  00A0               	movwf	USARTHandleRxInt@data
  5228                           
  5229                           ;usart.c: 78: SIM800L.busy=1;
  5230  0036  3078               	movlw	120
  5231  0037  0086               	movwf	6
  5232  0038  3020               	movlw	32
  5233  0039  0087               	movwf	7
  5234  003A  3001               	movlw	1
  5235  003B  3FC0               	movwi [0]fsr1
  5236                           
  5237                           ;usart.c: 79: switch(data)
  5238  003C  2AA8               	goto	i1l2287
  5239  003D                     i1l2175:	
  5240                           ;usart.c: 80: {
  5241                           ;usart.c: 81: case '\r':
  5242                           
  5243                           
  5244                           ;usart.c: 82: if(SIM800L.uncomplete==1 && bufque==0){SIM800L.uncomplete=0;}
  5245  003D  3078               	movlw	120
  5246  003E  0086               	movwf	6
  5247  003F  3020               	movlw	32
  5248  0040  0087               	movwf	7
  5249  0041  3141               	addfsr 1,1
  5250  0042  0801               	movf	1,w
  5251  0043  3A01               	xorlw	1
  5252  0044  1D03               	skipz
  5253  0045  2AB0               	goto	i1l331
  5254  0046  08D4               	movf	_bufque,f
  5255  0047  1D03               	skipz
  5256  0048  2AB0               	goto	i1l331
  5257  0049  3078               	movlw	120
  5258  004A  0086               	movwf	6
  5259  004B  3020               	movlw	32
  5260  004C  0087               	movwf	7
  5261  004D  3141               	addfsr 1,1
  5262  004E  0181               	clrf	1
  5263                           
  5264                           ;usart.c: 83: break;
  5265  004F  2AB0               	goto	i1l331
  5266  0050                     i1l2181:	
  5267                           ;usart.c: 84: case '\n':
  5268                           
  5269                           
  5270                           ;usart.c: 85: if(SIM800L.uncomplete==0) SIM800L.uncomplete=1;
  5271  0050  3078               	movlw	120
  5272  0051  0086               	movwf	6
  5273  0052  3020               	movlw	32
  5274  0053  0087               	movwf	7
  5275  0054  3141               	addfsr 1,1
  5276  0055  0801               	movf	1,w
  5277  0056  1D03               	skipz
  5278  0057  285F               	goto	i1l2185
  5279  0058  3079               	movlw	121
  5280  0059  0086               	movwf	6
  5281  005A  3020               	movlw	32
  5282  005B  0087               	movwf	7
  5283  005C  3001               	movlw	1
  5284  005D  0081               	movwf	1
  5285  005E  2A85               	goto	i1l2277
  5286  005F                     i1l2185:	
  5287                           
  5288                           ;usart.c: 86: else
  5289                           ;usart.c: 87: {
  5290                           ;usart.c: 88: SIM800L.buffer[bufque]=0;
  5291  005F  0854               	movf	_bufque,w
  5292  0060  00F0               	movwf	??_USARTHandleRxInt
  5293  0061  01F1               	clrf	??_USARTHandleRxInt+1
  5294  0062  3092               	movlw	146
  5295  0063  00F2               	movwf	??_USARTHandleRxInt+2
  5296  0064  3020               	movlw	32
  5297  0065  00F3               	movwf	??_USARTHandleRxInt+3
  5298  0066  0870               	movf	??_USARTHandleRxInt,w
  5299  0067  0772               	addwf	??_USARTHandleRxInt+2,w
  5300  0068  0086               	movwf	6
  5301  0069  0871               	movf	??_USARTHandleRxInt+1,w
  5302  006A  3D73               	addwfc	??_USARTHandleRxInt+3,w
  5303  006B  0087               	movwf	7
  5304  006C  0181               	clrf	1
  5305                           
  5306                           ;usart.c: 89: SIM800L.uncomplete=0;
  5307  006D  3078               	movlw	120
  5308  006E  0086               	movwf	6
  5309  006F  3020               	movlw	32
  5310  0070  0087               	movwf	7
  5311  0071  3141               	addfsr 1,1
  5312  0072  0181               	clrf	1
  5313                           
  5314                           ;usart.c: 91: if(SIM800L.buffer[0]=='+')
  5315  0073  3078               	movlw	120
  5316  0074  0086               	movwf	6
  5317  0075  3020               	movlw	32
  5318  0076  0087               	movwf	7
  5319  0077  315A               	addfsr 1,26
  5320  0078  0801               	movf	1,w
  5321  0079  3A2B               	xorlw	43
  5322  007A  1D03               	skipz
  5323  007B  2A6C               	goto	i1l2269
  5324                           
  5325                           ;usart.c: 92: {
  5326                           ;usart.c: 93: if(SIM800L.buffer[1]=='C' && SIM800L.buffer[2]=='L' && SIM800L.buffer[3]==
      +                          'I' )
  5327  007C  3078               	movlw	120
  5328  007D  0086               	movwf	6
  5329  007E  3020               	movlw	32
  5330  007F  0087               	movwf	7
  5331  0080  315B               	addfsr 1,27
  5332  0081  0801               	movf	1,w
  5333  0082  3A43               	xorlw	67
  5334  0083  1D03               	skipz
  5335  0084  28F6               	goto	i1l2209
  5336  0085  3078               	movlw	120
  5337  0086  0086               	movwf	6
  5338  0087  3020               	movlw	32
  5339  0088  0087               	movwf	7
  5340  0089  315C               	addfsr 1,28
  5341  008A  0801               	movf	1,w
  5342  008B  3A4C               	xorlw	76
  5343  008C  1D03               	skipz
  5344  008D  28F6               	goto	i1l2209
  5345  008E  3078               	movlw	120
  5346  008F  0086               	movwf	6
  5347  0090  3020               	movlw	32
  5348  0091  0087               	movwf	7
  5349  0092  315D               	addfsr 1,29
  5350  0093  0801               	movf	1,w
  5351  0094  3A49               	xorlw	73
  5352  0095  1D03               	skipz
  5353  0096  28F6               	goto	i1l2209
  5354                           
  5355                           ;usart.c: 94: {
  5356                           ;usart.c: 95: uint8_t ci=8;
  5357  0097  3008               	movlw	8
  5358  0098  00F0               	movwf	??_USARTHandleRxInt
  5359  0099  0870               	movf	??_USARTHandleRxInt,w
  5360  009A  00A1               	movwf	USARTHandleRxInt@ci
  5361                           
  5362                           ;usart.c: 96: while(SIM800L.buffer[ci]!='\"' && (ci-8)<15)
  5363  009B  28E2               	goto	i1l2205
  5364  009C                     i1l2207:	
  5365  009C  0821               	movf	USARTHandleRxInt@ci,w
  5366  009D  3EF8               	addlw	248
  5367  009E  00F0               	movwf	??_USARTHandleRxInt
  5368  009F  30FF               	movlw	255
  5369  00A0  1803               	skipnc
  5370  00A1  3000               	movlw	0
  5371  00A2  00F1               	movwf	??_USARTHandleRxInt+1
  5372  00A3  0871               	movf	??_USARTHandleRxInt+1,w
  5373  00A4  3A80               	xorlw	128
  5374  00A5  00F2               	movwf	??_USARTHandleRxInt+2
  5375  00A6  3080               	movlw	128
  5376  00A7  0272               	subwf	??_USARTHandleRxInt+2,w
  5377  00A8  1D03               	skipz
  5378  00A9  28AC               	goto	u164_25
  5379  00AA  300F               	movlw	15
  5380  00AB  0270               	subwf	??_USARTHandleRxInt,w
  5381  00AC                     u164_25:	
  5382  00AC  1803               	btfsc	3,0
  5383  00AD  28F3               	goto	i1l341
  5384                           
  5385                           ;usart.c: 97: {
  5386                           ;usart.c: 98: SIM800L.cell[ci-8]=SIM800L.buffer[ci];
  5387  00AE  0020               	movlb	0	; select bank0
  5388  00AF  0821               	movf	USARTHandleRxInt@ci,w
  5389  00B0  00F0               	movwf	??_USARTHandleRxInt
  5390  00B1  01F1               	clrf	??_USARTHandleRxInt+1
  5391  00B2  3092               	movlw	146
  5392  00B3  00F2               	movwf	??_USARTHandleRxInt+2
  5393  00B4  3020               	movlw	32
  5394  00B5  00F3               	movwf	??_USARTHandleRxInt+3
  5395  00B6  0870               	movf	??_USARTHandleRxInt,w
  5396  00B7  0772               	addwf	??_USARTHandleRxInt+2,w
  5397  00B8  0086               	movwf	6
  5398  00B9  0871               	movf	??_USARTHandleRxInt+1,w
  5399  00BA  3D73               	addwfc	??_USARTHandleRxInt+3,w
  5400  00BB  0087               	movwf	7
  5401  00BC  0801               	movf	1,w
  5402  00BD  00F4               	movwf	??_USARTHandleRxInt+4
  5403  00BE  0821               	movf	USARTHandleRxInt@ci,w
  5404  00BF  3EF8               	addlw	248
  5405  00C0  00F5               	movwf	??_USARTHandleRxInt+5
  5406  00C1  30FF               	movlw	255
  5407  00C2  1803               	skipnc
  5408  00C3  3000               	movlw	0
  5409  00C4  00F6               	movwf	??_USARTHandleRxInt+6
  5410  00C5  307C               	movlw	124
  5411  00C6  00F7               	movwf	??_USARTHandleRxInt+7
  5412  00C7  3020               	movlw	32
  5413  00C8  00F8               	movwf	??_USARTHandleRxInt+8
  5414  00C9  0875               	movf	??_USARTHandleRxInt+5,w
  5415  00CA  0777               	addwf	??_USARTHandleRxInt+7,w
  5416  00CB  00F9               	movwf	??_USARTHandleRxInt+9
  5417  00CC  0876               	movf	??_USARTHandleRxInt+6,w
  5418  00CD  3D78               	addwfc	??_USARTHandleRxInt+8,w
  5419  00CE  00FA               	movwf	??_USARTHandleRxInt+10
  5420  00CF  0879               	movf	??_USARTHandleRxInt+9,w
  5421  00D0  0086               	movwf	6
  5422  00D1  087A               	movf	??_USARTHandleRxInt+10,w
  5423  00D2  0087               	movwf	7
  5424  00D3  0874               	movf	??_USARTHandleRxInt+4,w
  5425  00D4  0081               	movwf	1
  5426                           
  5427                           ;usart.c: 99: ci++;
  5428  00D5  3001               	movlw	1
  5429  00D6  00F0               	movwf	??_USARTHandleRxInt
  5430  00D7  0870               	movf	??_USARTHandleRxInt,w
  5431  00D8  07A1               	addwf	USARTHandleRxInt@ci,f
  5432                           
  5433                           ;usart.c: 100: SIM800L.cell_lenght++;
  5434  00D9  3001               	movlw	1
  5435  00DA  00F0               	movwf	??_USARTHandleRxInt
  5436  00DB  3078               	movlw	120
  5437  00DC  0086               	movwf	6
  5438  00DD  3020               	movlw	32
  5439  00DE  0087               	movwf	7
  5440  00DF  3153               	addfsr 1,19
  5441  00E0  0870               	movf	??_USARTHandleRxInt,w
  5442  00E1  0781               	addwf	1,f
  5443  00E2                     i1l2205:	
  5444  00E2  0821               	movf	USARTHandleRxInt@ci,w
  5445  00E3  00F0               	movwf	??_USARTHandleRxInt
  5446  00E4  01F1               	clrf	??_USARTHandleRxInt+1
  5447  00E5  3092               	movlw	146
  5448  00E6  00F2               	movwf	??_USARTHandleRxInt+2
  5449  00E7  3020               	movlw	32
  5450  00E8  00F3               	movwf	??_USARTHandleRxInt+3
  5451  00E9  0870               	movf	??_USARTHandleRxInt,w
  5452  00EA  0772               	addwf	??_USARTHandleRxInt+2,w
  5453  00EB  0086               	movwf	6
  5454  00EC  0871               	movf	??_USARTHandleRxInt+1,w
  5455  00ED  3D73               	addwfc	??_USARTHandleRxInt+3,w
  5456  00EE  0087               	movwf	7
  5457  00EF  0801               	movf	1,w
  5458  00F0  3A22               	xorlw	34
  5459  00F1  1D03               	btfss	3,2
  5460  00F2  289C               	goto	i1l2207
  5461  00F3                     i1l341:	
  5462                           
  5463                           ;usart.c: 101: }
  5464                           ;usart.c: 102: task=1;
  5465  00F3  0020               	movlb	0	; select bank0
  5466  00F4  01D6               	clrf	_task
  5467  00F5  0AD6               	incf	_task,f
  5468  00F6                     i1l2209:	
  5469                           
  5470                           ;usart.c: 103: }
  5471                           ;usart.c: 104: if(SIM800L.buffer[1]=='C' && SIM800L.buffer[2]=='M' && SIM800L.buffer[3]=
      +                          ='T' && SIM800L.buffer[4]=='I' )
  5472  00F6  3078               	movlw	120
  5473  00F7  0086               	movwf	6
  5474  00F8  3020               	movlw	32
  5475  00F9  0087               	movwf	7
  5476  00FA  315B               	addfsr 1,27
  5477  00FB  0801               	movf	1,w
  5478  00FC  3A43               	xorlw	67
  5479  00FD  1D03               	skipz
  5480  00FE  2987               	goto	i1l2233
  5481  00FF  3078               	movlw	120
  5482  0100  0086               	movwf	6
  5483  0101  3020               	movlw	32
  5484  0102  0087               	movwf	7
  5485  0103  315C               	addfsr 1,28
  5486  0104  0801               	movf	1,w
  5487  0105  3A4D               	xorlw	77
  5488  0106  1D03               	skipz
  5489  0107  2987               	goto	i1l2233
  5490  0108  3078               	movlw	120
  5491  0109  0086               	movwf	6
  5492  010A  3020               	movlw	32
  5493  010B  0087               	movwf	7
  5494  010C  315D               	addfsr 1,29
  5495  010D  0801               	movf	1,w
  5496  010E  3A54               	xorlw	84
  5497  010F  1D03               	skipz
  5498  0110  2987               	goto	i1l2233
  5499  0111  3078               	movlw	120
  5500  0112  0086               	movwf	6
  5501  0113  3020               	movlw	32
  5502  0114  0087               	movwf	7
  5503  0115  315E               	addfsr 1,30
  5504  0116  0801               	movf	1,w
  5505  0117  3A49               	xorlw	73
  5506  0118  1D03               	skipz
  5507  0119  2987               	goto	i1l2233
  5508                           
  5509                           ;usart.c: 105: {
  5510                           ;usart.c: 106: uint8_t ci=12;
  5511  011A  300C               	movlw	12
  5512  011B  00F0               	movwf	??_USARTHandleRxInt
  5513  011C  0870               	movf	??_USARTHandleRxInt,w
  5514  011D  00A3               	movwf	USARTHandleRxInt@ci_578
  5515                           
  5516                           ;usart.c: 107: while(SIM800L.buffer[ci]>='0' && SIM800L.buffer[ci]<='9' )
  5517  011E  2949               	goto	i1l2223
  5518  011F                     i1l2219:	
  5519                           
  5520                           ;usart.c: 108: {
  5521                           ;usart.c: 109: SIM800L.smsmem[ci-12]=SIM800L.buffer[ci];
  5522  011F  0823               	movf	USARTHandleRxInt@ci_578,w
  5523  0120  00F0               	movwf	??_USARTHandleRxInt
  5524  0121  01F1               	clrf	??_USARTHandleRxInt+1
  5525  0122  3092               	movlw	146
  5526  0123  00F2               	movwf	??_USARTHandleRxInt+2
  5527  0124  3020               	movlw	32
  5528  0125  00F3               	movwf	??_USARTHandleRxInt+3
  5529  0126  0870               	movf	??_USARTHandleRxInt,w
  5530  0127  0772               	addwf	??_USARTHandleRxInt+2,w
  5531  0128  0086               	movwf	6
  5532  0129  0871               	movf	??_USARTHandleRxInt+1,w
  5533  012A  3D73               	addwfc	??_USARTHandleRxInt+3,w
  5534  012B  0087               	movwf	7
  5535  012C  0801               	movf	1,w
  5536  012D  00F4               	movwf	??_USARTHandleRxInt+4
  5537  012E  0823               	movf	USARTHandleRxInt@ci_578,w
  5538  012F  3EF4               	addlw	244
  5539  0130  00F5               	movwf	??_USARTHandleRxInt+5
  5540  0131  30FF               	movlw	255
  5541  0132  1803               	skipnc
  5542  0133  3000               	movlw	0
  5543  0134  00F6               	movwf	??_USARTHandleRxInt+6
  5544  0135  308D               	movlw	141
  5545  0136  00F7               	movwf	??_USARTHandleRxInt+7
  5546  0137  3020               	movlw	32
  5547  0138  00F8               	movwf	??_USARTHandleRxInt+8
  5548  0139  0875               	movf	??_USARTHandleRxInt+5,w
  5549  013A  0777               	addwf	??_USARTHandleRxInt+7,w
  5550  013B  00F9               	movwf	??_USARTHandleRxInt+9
  5551  013C  0876               	movf	??_USARTHandleRxInt+6,w
  5552  013D  3D78               	addwfc	??_USARTHandleRxInt+8,w
  5553  013E  00FA               	movwf	??_USARTHandleRxInt+10
  5554  013F  0879               	movf	??_USARTHandleRxInt+9,w
  5555  0140  0086               	movwf	6
  5556  0141  087A               	movf	??_USARTHandleRxInt+10,w
  5557  0142  0087               	movwf	7
  5558  0143  0874               	movf	??_USARTHandleRxInt+4,w
  5559  0144  0081               	movwf	1
  5560                           
  5561                           ;usart.c: 110: ci++;
  5562  0145  3001               	movlw	1
  5563  0146  00F0               	movwf	??_USARTHandleRxInt
  5564  0147  0870               	movf	??_USARTHandleRxInt,w
  5565  0148  07A3               	addwf	USARTHandleRxInt@ci_578,f
  5566  0149                     i1l2223:	
  5567  0149  0823               	movf	USARTHandleRxInt@ci_578,w
  5568  014A  00F0               	movwf	??_USARTHandleRxInt
  5569  014B  01F1               	clrf	??_USARTHandleRxInt+1
  5570  014C  3092               	movlw	146
  5571  014D  00F2               	movwf	??_USARTHandleRxInt+2
  5572  014E  3020               	movlw	32
  5573  014F  00F3               	movwf	??_USARTHandleRxInt+3
  5574  0150  0870               	movf	??_USARTHandleRxInt,w
  5575  0151  0772               	addwf	??_USARTHandleRxInt+2,w
  5576  0152  0086               	movwf	6
  5577  0153  0871               	movf	??_USARTHandleRxInt+1,w
  5578  0154  3D73               	addwfc	??_USARTHandleRxInt+3,w
  5579  0155  0087               	movwf	7
  5580  0156  3030               	movlw	48
  5581  0157  0201               	subwf	1,w
  5582  0158  1C03               	skipc
  5583  0159  296B               	goto	i1l2227
  5584  015A  0823               	movf	USARTHandleRxInt@ci_578,w
  5585  015B  00F0               	movwf	??_USARTHandleRxInt
  5586  015C  01F1               	clrf	??_USARTHandleRxInt+1
  5587  015D  3092               	movlw	146
  5588  015E  00F2               	movwf	??_USARTHandleRxInt+2
  5589  015F  3020               	movlw	32
  5590  0160  00F3               	movwf	??_USARTHandleRxInt+3
  5591  0161  0870               	movf	??_USARTHandleRxInt,w
  5592  0162  0772               	addwf	??_USARTHandleRxInt+2,w
  5593  0163  0086               	movwf	6
  5594  0164  0871               	movf	??_USARTHandleRxInt+1,w
  5595  0165  3D73               	addwfc	??_USARTHandleRxInt+3,w
  5596  0166  0087               	movwf	7
  5597  0167  303A               	movlw	58
  5598  0168  0201               	subwf	1,w
  5599  0169  1C03               	skipc
  5600  016A  291F               	goto	i1l2219
  5601  016B                     i1l2227:	
  5602                           
  5603                           ;usart.c: 111: }
  5604                           ;usart.c: 112: SIM800L.smsmem[ci-12]=0;
  5605  016B  0823               	movf	USARTHandleRxInt@ci_578,w
  5606  016C  3EF4               	addlw	244
  5607  016D  00F0               	movwf	??_USARTHandleRxInt
  5608  016E  30FF               	movlw	255
  5609  016F  1803               	skipnc
  5610  0170  3000               	movlw	0
  5611  0171  00F1               	movwf	??_USARTHandleRxInt+1
  5612  0172  308D               	movlw	141
  5613  0173  00F2               	movwf	??_USARTHandleRxInt+2
  5614  0174  3020               	movlw	32
  5615  0175  00F3               	movwf	??_USARTHandleRxInt+3
  5616  0176  0870               	movf	??_USARTHandleRxInt,w
  5617  0177  0772               	addwf	??_USARTHandleRxInt+2,w
  5618  0178  0086               	movwf	6
  5619  0179  0871               	movf	??_USARTHandleRxInt+1,w
  5620  017A  3D73               	addwfc	??_USARTHandleRxInt+3,w
  5621  017B  0087               	movwf	7
  5622  017C  0181               	clrf	1
  5623                           
  5624                           ;usart.c: 113: SIM800L.unreadsms=1;
  5625  017D  308C               	movlw	140
  5626  017E  0086               	movwf	6
  5627  017F  3020               	movlw	32
  5628  0180  0087               	movwf	7
  5629  0181  3001               	movlw	1
  5630  0182  0081               	movwf	1
  5631                           
  5632                           ;usart.c: 114: task=2;
  5633  0183  3002               	movlw	2
  5634  0184  00F0               	movwf	??_USARTHandleRxInt
  5635  0185  0870               	movf	??_USARTHandleRxInt,w
  5636  0186  00D6               	movwf	_task
  5637  0187                     i1l2233:	
  5638                           
  5639                           ;usart.c: 115: }
  5640                           ;usart.c: 116: if(SIM800L.buffer[1]=='C' && SIM800L.buffer[2]=='S' && SIM800L.buffer[3]=
      +                          ='Q')
  5641  0187  3078               	movlw	120
  5642  0188  0086               	movwf	6
  5643  0189  3020               	movlw	32
  5644  018A  0087               	movwf	7
  5645  018B  315B               	addfsr 1,27
  5646  018C  0801               	movf	1,w
  5647  018D  3A43               	xorlw	67
  5648  018E  1D03               	skipz
  5649  018F  29F8               	goto	i1l2251
  5650  0190  3078               	movlw	120
  5651  0191  0086               	movwf	6
  5652  0192  3020               	movlw	32
  5653  0193  0087               	movwf	7
  5654  0194  315C               	addfsr 1,28
  5655  0195  0801               	movf	1,w
  5656  0196  3A53               	xorlw	83
  5657  0197  1D03               	skipz
  5658  0198  29F8               	goto	i1l2251
  5659  0199  3078               	movlw	120
  5660  019A  0086               	movwf	6
  5661  019B  3020               	movlw	32
  5662  019C  0087               	movwf	7
  5663  019D  315D               	addfsr 1,29
  5664  019E  0801               	movf	1,w
  5665  019F  3A51               	xorlw	81
  5666  01A0  1D03               	skipz
  5667  01A1  29F8               	goto	i1l2251
  5668                           
  5669                           ;usart.c: 117: {
  5670                           ;usart.c: 118: uint8_t ci=6;
  5671  01A2  3006               	movlw	6
  5672  01A3  00F0               	movwf	??_USARTHandleRxInt
  5673  01A4  0870               	movf	??_USARTHandleRxInt,w
  5674  01A5  00A4               	movwf	USARTHandleRxInt@ci_579
  5675                           
  5676                           ;usart.c: 119: while(SIM800L.buffer[ci]!=',' && (ci)<8)
  5677  01A6  29D1               	goto	i1l2245
  5678  01A7                     i1l2241:	
  5679                           
  5680                           ;usart.c: 120: {
  5681                           ;usart.c: 121: SIM800L.csq[ci-6]=SIM800L.buffer[ci];
  5682  01A7  0824               	movf	USARTHandleRxInt@ci_579,w
  5683  01A8  00F0               	movwf	??_USARTHandleRxInt
  5684  01A9  01F1               	clrf	??_USARTHandleRxInt+1
  5685  01AA  3092               	movlw	146
  5686  01AB  00F2               	movwf	??_USARTHandleRxInt+2
  5687  01AC  3020               	movlw	32
  5688  01AD  00F3               	movwf	??_USARTHandleRxInt+3
  5689  01AE  0870               	movf	??_USARTHandleRxInt,w
  5690  01AF  0772               	addwf	??_USARTHandleRxInt+2,w
  5691  01B0  0086               	movwf	6
  5692  01B1  0871               	movf	??_USARTHandleRxInt+1,w
  5693  01B2  3D73               	addwfc	??_USARTHandleRxInt+3,w
  5694  01B3  0087               	movwf	7
  5695  01B4  0801               	movf	1,w
  5696  01B5  00F4               	movwf	??_USARTHandleRxInt+4
  5697  01B6  0824               	movf	USARTHandleRxInt@ci_579,w
  5698  01B7  3EFA               	addlw	250
  5699  01B8  00F5               	movwf	??_USARTHandleRxInt+5
  5700  01B9  30FF               	movlw	255
  5701  01BA  1803               	skipnc
  5702  01BB  3000               	movlw	0
  5703  01BC  00F6               	movwf	??_USARTHandleRxInt+6
  5704  01BD  30EB               	movlw	235
  5705  01BE  00F7               	movwf	??_USARTHandleRxInt+7
  5706  01BF  3020               	movlw	32
  5707  01C0  00F8               	movwf	??_USARTHandleRxInt+8
  5708  01C1  0875               	movf	??_USARTHandleRxInt+5,w
  5709  01C2  0777               	addwf	??_USARTHandleRxInt+7,w
  5710  01C3  00F9               	movwf	??_USARTHandleRxInt+9
  5711  01C4  0876               	movf	??_USARTHandleRxInt+6,w
  5712  01C5  3D78               	addwfc	??_USARTHandleRxInt+8,w
  5713  01C6  00FA               	movwf	??_USARTHandleRxInt+10
  5714  01C7  0879               	movf	??_USARTHandleRxInt+9,w
  5715  01C8  0086               	movwf	6
  5716  01C9  087A               	movf	??_USARTHandleRxInt+10,w
  5717  01CA  0087               	movwf	7
  5718  01CB  0874               	movf	??_USARTHandleRxInt+4,w
  5719  01CC  0081               	movwf	1
  5720                           
  5721                           ;usart.c: 122: ci++;
  5722  01CD  3001               	movlw	1
  5723  01CE  00F0               	movwf	??_USARTHandleRxInt
  5724  01CF  0870               	movf	??_USARTHandleRxInt,w
  5725  01D0  07A4               	addwf	USARTHandleRxInt@ci_579,f
  5726  01D1                     i1l2245:	
  5727  01D1  0824               	movf	USARTHandleRxInt@ci_579,w
  5728  01D2  00F0               	movwf	??_USARTHandleRxInt
  5729  01D3  01F1               	clrf	??_USARTHandleRxInt+1
  5730  01D4  3092               	movlw	146
  5731  01D5  00F2               	movwf	??_USARTHandleRxInt+2
  5732  01D6  3020               	movlw	32
  5733  01D7  00F3               	movwf	??_USARTHandleRxInt+3
  5734  01D8  0870               	movf	??_USARTHandleRxInt,w
  5735  01D9  0772               	addwf	??_USARTHandleRxInt+2,w
  5736  01DA  0086               	movwf	6
  5737  01DB  0871               	movf	??_USARTHandleRxInt+1,w
  5738  01DC  3D73               	addwfc	??_USARTHandleRxInt+3,w
  5739  01DD  0087               	movwf	7
  5740  01DE  0801               	movf	1,w
  5741  01DF  3A2C               	xorlw	44
  5742  01E0  1903               	skipnz
  5743  01E1  29E6               	goto	i1l2249
  5744  01E2  3008               	movlw	8
  5745  01E3  0224               	subwf	USARTHandleRxInt@ci_579,w
  5746  01E4  1C03               	skipc
  5747  01E5  29A7               	goto	i1l2241
  5748  01E6                     i1l2249:	
  5749                           
  5750                           ;usart.c: 123: }
  5751                           ;usart.c: 124: SIM800L.csq[ci-6]=0;
  5752  01E6  0824               	movf	USARTHandleRxInt@ci_579,w
  5753  01E7  3EFA               	addlw	250
  5754  01E8  00F0               	movwf	??_USARTHandleRxInt
  5755  01E9  30FF               	movlw	255
  5756  01EA  1803               	skipnc
  5757  01EB  3000               	movlw	0
  5758  01EC  00F1               	movwf	??_USARTHandleRxInt+1
  5759  01ED  30EB               	movlw	235
  5760  01EE  00F2               	movwf	??_USARTHandleRxInt+2
  5761  01EF  3020               	movlw	32
  5762  01F0  00F3               	movwf	??_USARTHandleRxInt+3
  5763  01F1  0870               	movf	??_USARTHandleRxInt,w
  5764  01F2  0772               	addwf	??_USARTHandleRxInt+2,w
  5765  01F3  0086               	movwf	6
  5766  01F4  0871               	movf	??_USARTHandleRxInt+1,w
  5767  01F5  3D73               	addwfc	??_USARTHandleRxInt+3,w
  5768  01F6  0087               	movwf	7
  5769  01F7  0181               	clrf	1
  5770  01F8                     i1l2251:	
  5771                           
  5772                           ;usart.c: 125: }
  5773                           ;usart.c: 126: if(SIM800L.buffer[1]=='C' && SIM800L.buffer[2]=='M' && SIM800L.buffer[3]=
      +                          ='D')
  5774  01F8  3078               	movlw	120
  5775  01F9  0086               	movwf	6
  5776  01FA  3020               	movlw	32
  5777  01FB  0087               	movwf	7
  5778  01FC  315B               	addfsr 1,27
  5779  01FD  0801               	movf	1,w
  5780  01FE  3A43               	xorlw	67
  5781  01FF  1D03               	skipz
  5782  0200  2A84               	goto	i1l2275
  5783  0201  3078               	movlw	120
  5784  0202  0086               	movwf	6
  5785  0203  3020               	movlw	32
  5786  0204  0087               	movwf	7
  5787  0205  315C               	addfsr 1,28
  5788  0206  0801               	movf	1,w
  5789  0207  3A4D               	xorlw	77
  5790  0208  1D03               	skipz
  5791  0209  2A84               	goto	i1l2275
  5792  020A  3078               	movlw	120
  5793  020B  0086               	movwf	6
  5794  020C  3020               	movlw	32
  5795  020D  0087               	movwf	7
  5796  020E  315D               	addfsr 1,29
  5797  020F  0801               	movf	1,w
  5798  0210  3A44               	xorlw	68
  5799  0211  1D03               	skipz
  5800  0212  2A84               	goto	i1l2275
  5801                           
  5802                           ;usart.c: 127: {
  5803                           ;usart.c: 128: uint8_t ci=4;
  5804  0213  3004               	movlw	4
  5805  0214  00F0               	movwf	??_USARTHandleRxInt
  5806  0215  0870               	movf	??_USARTHandleRxInt,w
  5807  0216  00A2               	movwf	USARTHandleRxInt@ci_580
  5808                           
  5809                           ;usart.c: 129: while(SIM800L.buffer[ci]!='#' && (ci-4)<25)
  5810  0217  2A43               	goto	i1l2263
  5811  0218                     i1l2259:	
  5812                           
  5813                           ;usart.c: 130: {
  5814                           ;usart.c: 131: SIM800L.command[ci-4]=SIM800L.buffer[ci];
  5815  0218  0020               	movlb	0	; select bank0
  5816  0219  0822               	movf	USARTHandleRxInt@ci_580,w
  5817  021A  00F0               	movwf	??_USARTHandleRxInt
  5818  021B  01F1               	clrf	??_USARTHandleRxInt+1
  5819  021C  3092               	movlw	146
  5820  021D  00F2               	movwf	??_USARTHandleRxInt+2
  5821  021E  3020               	movlw	32
  5822  021F  00F3               	movwf	??_USARTHandleRxInt+3
  5823  0220  0870               	movf	??_USARTHandleRxInt,w
  5824  0221  0772               	addwf	??_USARTHandleRxInt+2,w
  5825  0222  0086               	movwf	6
  5826  0223  0871               	movf	??_USARTHandleRxInt+1,w
  5827  0224  3D73               	addwfc	??_USARTHandleRxInt+3,w
  5828  0225  0087               	movwf	7
  5829  0226  0801               	movf	1,w
  5830  0227  00F4               	movwf	??_USARTHandleRxInt+4
  5831  0228  0822               	movf	USARTHandleRxInt@ci_580,w
  5832  0229  3EFC               	addlw	252
  5833  022A  00F5               	movwf	??_USARTHandleRxInt+5
  5834  022B  30FF               	movlw	255
  5835  022C  1803               	skipnc
  5836  022D  3000               	movlw	0
  5837  022E  00F6               	movwf	??_USARTHandleRxInt+6
  5838  022F  30D2               	movlw	210
  5839  0230  00F7               	movwf	??_USARTHandleRxInt+7
  5840  0231  3020               	movlw	32
  5841  0232  00F8               	movwf	??_USARTHandleRxInt+8
  5842  0233  0875               	movf	??_USARTHandleRxInt+5,w
  5843  0234  0777               	addwf	??_USARTHandleRxInt+7,w
  5844  0235  00F9               	movwf	??_USARTHandleRxInt+9
  5845  0236  0876               	movf	??_USARTHandleRxInt+6,w
  5846  0237  3D78               	addwfc	??_USARTHandleRxInt+8,w
  5847  0238  00FA               	movwf	??_USARTHandleRxInt+10
  5848  0239  0879               	movf	??_USARTHandleRxInt+9,w
  5849  023A  0086               	movwf	6
  5850  023B  087A               	movf	??_USARTHandleRxInt+10,w
  5851  023C  0087               	movwf	7
  5852  023D  0874               	movf	??_USARTHandleRxInt+4,w
  5853  023E  0081               	movwf	1
  5854                           
  5855                           ;usart.c: 132: ci++;
  5856  023F  3001               	movlw	1
  5857  0240  00F0               	movwf	??_USARTHandleRxInt
  5858  0241  0870               	movf	??_USARTHandleRxInt,w
  5859  0242  07A2               	addwf	USARTHandleRxInt@ci_580,f
  5860  0243                     i1l2263:	
  5861  0243  0822               	movf	USARTHandleRxInt@ci_580,w
  5862  0244  00F0               	movwf	??_USARTHandleRxInt
  5863  0245  01F1               	clrf	??_USARTHandleRxInt+1
  5864  0246  3092               	movlw	146
  5865  0247  00F2               	movwf	??_USARTHandleRxInt+2
  5866  0248  3020               	movlw	32
  5867  0249  00F3               	movwf	??_USARTHandleRxInt+3
  5868  024A  0870               	movf	??_USARTHandleRxInt,w
  5869  024B  0772               	addwf	??_USARTHandleRxInt+2,w
  5870  024C  0086               	movwf	6
  5871  024D  0871               	movf	??_USARTHandleRxInt+1,w
  5872  024E  3D73               	addwfc	??_USARTHandleRxInt+3,w
  5873  024F  0087               	movwf	7
  5874  0250  0801               	movf	1,w
  5875  0251  3A23               	xorlw	35
  5876  0252  1903               	skipnz
  5877  0253  2A66               	goto	i1l2267
  5878  0254  0822               	movf	USARTHandleRxInt@ci_580,w
  5879  0255  3EFC               	addlw	252
  5880  0256  00F0               	movwf	??_USARTHandleRxInt
  5881  0257  30FF               	movlw	255
  5882  0258  1803               	skipnc
  5883  0259  3000               	movlw	0
  5884  025A  00F1               	movwf	??_USARTHandleRxInt+1
  5885  025B  0871               	movf	??_USARTHandleRxInt+1,w
  5886  025C  3A80               	xorlw	128
  5887  025D  00F2               	movwf	??_USARTHandleRxInt+2
  5888  025E  3080               	movlw	128
  5889  025F  0272               	subwf	??_USARTHandleRxInt+2,w
  5890  0260  1D03               	skipz
  5891  0261  2A64               	goto	u180_25
  5892  0262  3019               	movlw	25
  5893  0263  0270               	subwf	??_USARTHandleRxInt,w
  5894  0264                     u180_25:	
  5895  0264  1C03               	skipc
  5896  0265  2A18               	goto	i1l2259
  5897  0266                     i1l2267:	
  5898                           
  5899                           ;usart.c: 133: }
  5900                           ;usart.c: 134: task=3;
  5901  0266  3003               	movlw	3
  5902  0267  00F0               	movwf	??_USARTHandleRxInt
  5903  0268  0870               	movf	??_USARTHandleRxInt,w
  5904  0269  0020               	movlb	0	; select bank0
  5905  026A  00D6               	movwf	_task
  5906                           
  5907                           ;usart.c: 135: }
  5908                           ;usart.c: 136: }
  5909  026B  2A84               	goto	i1l2275
  5910  026C                     i1l2269:	
  5911                           
  5912                           ;usart.c: 137: else if(SIM800L.buffer[0]=='O' && SIM800L.buffer[1]=='K') SIM800L.ok=1;
  5913  026C  3078               	movlw	120
  5914  026D  0086               	movwf	6
  5915  026E  3020               	movlw	32
  5916  026F  0087               	movwf	7
  5917  0270  315A               	addfsr 1,26
  5918  0271  0801               	movf	1,w
  5919  0272  3A4F               	xorlw	79
  5920  0273  1D03               	skipz
  5921  0274  2A84               	goto	i1l2275
  5922  0275  3078               	movlw	120
  5923  0276  0086               	movwf	6
  5924  0277  3020               	movlw	32
  5925  0278  0087               	movwf	7
  5926  0279  315B               	addfsr 1,27
  5927  027A  0801               	movf	1,w
  5928  027B  3A4B               	xorlw	75
  5929  027C  1D03               	skipz
  5930  027D  2A84               	goto	i1l2275
  5931  027E  307A               	movlw	122
  5932  027F  0086               	movwf	6
  5933  0280  3020               	movlw	32
  5934  0281  0087               	movwf	7
  5935  0282  3001               	movlw	1
  5936  0283  0081               	movwf	1
  5937  0284                     i1l2275:	
  5938                           
  5939                           ;usart.c: 138: bufque=0;
  5940  0284  01D4               	clrf	_bufque
  5941  0285                     i1l2277:	
  5942                           
  5943                           ;usart.c: 139: }
  5944                           ;usart.c: 140: SIM800L.busy=0;
  5945  0285  3078               	movlw	120
  5946  0286  0086               	movwf	6
  5947  0287  3020               	movlw	32
  5948  0288  0087               	movwf	7
  5949  0289  3000               	movlw	0
  5950  028A  3FC0               	movwi [0]fsr1
  5951                           
  5952                           ;usart.c: 141: break;
  5953  028B  2AB0               	goto	i1l331
  5954  028C                     i1l2279:	
  5955                           ;usart.c: 142: default:
  5956                           
  5957                           
  5958                           ;usart.c: 143: if(bufque<(64-1))
  5959  028C  303F               	movlw	63
  5960  028D  0254               	subwf	_bufque,w
  5961  028E  1803               	skipnc
  5962  028F  2AB0               	goto	i1l331
  5963                           
  5964                           ;usart.c: 144: {
  5965                           ;usart.c: 145: SIM800L.buffer[bufque]=data;
  5966  0290  0854               	movf	_bufque,w
  5967  0291  00F0               	movwf	??_USARTHandleRxInt
  5968  0292  01F1               	clrf	??_USARTHandleRxInt+1
  5969  0293  3092               	movlw	146
  5970  0294  00F2               	movwf	??_USARTHandleRxInt+2
  5971  0295  3020               	movlw	32
  5972  0296  00F3               	movwf	??_USARTHandleRxInt+3
  5973  0297  0870               	movf	??_USARTHandleRxInt,w
  5974  0298  0772               	addwf	??_USARTHandleRxInt+2,w
  5975  0299  00F4               	movwf	??_USARTHandleRxInt+4
  5976  029A  0871               	movf	??_USARTHandleRxInt+1,w
  5977  029B  3D73               	addwfc	??_USARTHandleRxInt+3,w
  5978  029C  00F5               	movwf	??_USARTHandleRxInt+5
  5979  029D  0874               	movf	??_USARTHandleRxInt+4,w
  5980  029E  0086               	movwf	6
  5981  029F  0875               	movf	??_USARTHandleRxInt+5,w
  5982  02A0  0087               	movwf	7
  5983  02A1  0820               	movf	USARTHandleRxInt@data,w
  5984  02A2  0081               	movwf	1
  5985                           
  5986                           ;usart.c: 146: bufque++;
  5987  02A3  3001               	movlw	1
  5988  02A4  00F0               	movwf	??_USARTHandleRxInt
  5989  02A5  0870               	movf	??_USARTHandleRxInt,w
  5990  02A6  07D4               	addwf	_bufque,f
  5991                           
  5992                           ;usart.c: 149: }
  5993                           
  5994                           ;usart.c: 147: }
  5995                           ;usart.c: 148: break;
  5996  02A7  2AB0               	goto	i1l331
  5997  02A8                     i1l2287:	
  5998  02A8  0820               	movf	USARTHandleRxInt@data,w
  5999                           
  6000                           ; Switch size 1, requested type "space"
  6001                           ; Number of cases is 2, Range of values is 10 to 13
  6002                           ; switch strategies available:
  6003                           ; Name         Instructions Cycles
  6004                           ; simple_byte            7     4 (average)
  6005                           ; direct_byte           17     9 (fixed)
  6006                           ; jumptable            263     9 (fixed)
  6007                           ;	Chosen strategy is simple_byte
  6008  02A9  3A0A               	xorlw	10	; case 10
  6009  02AA  1903               	skipnz
  6010  02AB  2850               	goto	i1l2181
  6011  02AC  3A07               	xorlw	7	; case 13
  6012  02AD  1903               	skipnz
  6013  02AE  283D               	goto	i1l2175
  6014  02AF  2A8C               	goto	i1l2279
  6015  02B0                     i1l331:	
  6016                           
  6017                           ;usart.c: 150: LATCbits.LATC0=0;
  6018  02B0  0022               	movlb	2	; select bank2
  6019  02B1  100E               	bcf	14,0	;volatile
  6020  02B2  0008               	return
  6021  02B3                     __end_of_USARTHandleRxInt:	
  6022  007E                     btemp	set	126	;btemp
  6023  007E                     pic14e$flags	set	126
  6024  007E                     wtemp	set	126
  6025  007E                     wtemp0	set	126
  6026  0080                     wtemp1	set	128
  6027  0082                     wtemp2	set	130
  6028  0084                     wtemp3	set	132
  6029  0086                     wtemp4	set	134
  6030  0088                     wtemp5	set	136
  6031  007F                     wtemp6	set	127
  6032  007E                     ttemp	set	126
  6033  007E                     ttemp0	set	126
  6034  0081                     ttemp1	set	129
  6035  0084                     ttemp2	set	132
  6036  0087                     ttemp3	set	135
  6037  007F                     ttemp4	set	127
  6038  007E                     ltemp	set	126
  6039  007E                     ltemp0	set	126
  6040  0082                     ltemp1	set	130
  6041  0086                     ltemp2	set	134
  6042  0080                     ltemp3	set	128


Data Sizes:
    Strings     109
    Constant    0
    Data        0
    BSS         8
    Persistent  0
    Stack       0

Auto Spaces:
    Space          Size  Autos    Used
    COMMON           14     12      12
    BANK0            80     47      55
    BANK1            40      0       0
    BANK2             0      0       0

Pointer List with Targets:

    USARTWriteLine@str	PTR const unsigned char  size(2) Largest target is 14
		 -> STR_15(CODE[9]), STR_14(CODE[14]), STR_12(CODE[9]), STR_11(CODE[14]), 
		 -> STR_9(CODE[10]), STR_8(CODE[14]), STR_7(CODE[5]), STR_6(CODE[7]), 
		 -> STR_5(CODE[5]), STR_2(CODE[6]), STR_1(CODE[9]), 

    USARTWriteString@str	PTR const unsigned char  size(2) Largest target is 120
		 -> STR_16(CODE[3]), STR_15(CODE[9]), STR_14(CODE[14]), STR_13(CODE[3]), 
		 -> STR_12(CODE[9]), STR_11(CODE[14]), STR_10(CODE[4]), STR_9(CODE[10]), 
		 -> STR_8(CODE[14]), STR_7(CODE[5]), STR_6(CODE[7]), STR_5(CODE[5]), 
		 -> STR_4(CODE[17]), STR_3(CODE[14]), SIM800L.smsmem(BIGRAM[5]), SIM800L(BIGRAM[120]), 
		 -> STR_2(CODE[6]), STR_1(CODE[9]), 

    SIM800ReadSms@mem	PTR const unsigned char  size(2) Largest target is 120
		 -> SIM800L.smsmem(BIGRAM[5]), SIM800L(BIGRAM[120]), 

    SIM800SendSms@msg	PTR const unsigned char  size(2) Largest target is 17
		 -> STR_4(CODE[17]), 

    SIM800SendSms@nmbr	PTR const unsigned char  size(2) Largest target is 14
		 -> STR_3(CODE[14]), 

    EEPROMAdd@nmbr	PTR const unsigned char  size(2) Largest target is 120
		 -> SIM800L.cell(BIGRAM[15]), SIM800L(BIGRAM[120]), 

    EEPROMSearchNumber@nmbr	PTR const unsigned char  size(2) Largest target is 120
		 -> SIM800L.cell(BIGRAM[15]), SIM800L(BIGRAM[120]), 

    EEPROMSaveNumber@nmbr	PTR const unsigned char  size(2) Largest target is 120
		 -> SIM800L.cell(BIGRAM[15]), SIM800L(BIGRAM[120]), 


Critical Paths under _main in COMMON

    None.

Critical Paths under _ISR in COMMON

    _ISR->_USARTHandleRxInt

Critical Paths under _main in BANK0

    _main->_SIM800Command
    _SIM800init->_USARTWriteLine
    _SIM800SendSms->_USARTWriteLine
    _SIM800ReadSms->_USARTWriteLine
    _USARTWriteLine->_USARTWriteString
    _USARTWriteString->_USARTWriteChar
    _SIM800Command->_EEPROMAdd
    _EEPROMAdd->_EEPROMSaveNumber
    _EEPROMSaveNumber->_EepromWrite
    _EepromWrite->_EepromOpCode
    _EEPROMSearchNumber->_EepromRead
    _EepromRead->_EepromOpCode

Critical Paths under _ISR in BANK0

    _ISR->_USARTHandleRxInt

Critical Paths under _main in BANK1

    None.

Critical Paths under _ISR in BANK1

    None.

Critical Paths under _main in BANK2

    None.

Critical Paths under _ISR in BANK2

    None.

Call Graph Tables:

 ---------------------------------------------------------------------------------
 (Depth) Function   	        Calls       Base Space   Used Autos Params    Refs
 ---------------------------------------------------------------------------------
 (0) _main                                                 3     3      0   12374
                                             44 BANK0      3     3      0
                 _EEPROMSearchNumber
                   _GPIOBlueLedBlink
                       _GPIOPortInit
                    _GPIORedLedBlink
                      _SIM800Command
                      _SIM800ReadSms
                      _SIM800SendSms
                         _SIM800init
                         _SYSTEMInit
                  _USARTClearSIM800L
                          _USARTInit
                     _USARTWriteLine
 ---------------------------------------------------------------------------------
 (1) _USARTInit                                            2     0      2      86
                                              5 BANK0      2     0      2
 ---------------------------------------------------------------------------------
 (1) _USARTClearSIM800L                                    5     5      0     136
                                              5 BANK0      5     5      0
 ---------------------------------------------------------------------------------
 (1) _SYSTEMInit                                           1     1      0      22
                                              5 BANK0      1     1      0
 ---------------------------------------------------------------------------------
 (1) _SIM800init                                           3     3      0    1391
                                             10 BANK0      3     3      0
                     _USARTWriteLine
 ---------------------------------------------------------------------------------
 (1) _SIM800SendSms                                        7     3      4    2228
                                             10 BANK0      7     3      4
                     _USARTWriteChar
                     _USARTWriteLine
                   _USARTWriteString
 ---------------------------------------------------------------------------------
 (1) _SIM800ReadSms                                        5     3      2    2120
                                             10 BANK0      5     3      2
                     _USARTWriteLine
                   _USARTWriteString
 ---------------------------------------------------------------------------------
 (1) _USARTWriteLine                                       2     0      2    1391
                                              8 BANK0      2     0      2
                     _USARTWriteChar
                   _USARTWriteString
 ---------------------------------------------------------------------------------
 (2) _USARTWriteString                                     2     0      2     643
                                              6 BANK0      2     0      2
                     _USARTWriteChar
 ---------------------------------------------------------------------------------
 (3) _USARTWriteChar                                       1     1      0      22
                                              5 BANK0      1     1      0
 ---------------------------------------------------------------------------------
 (1) _SIM800Command                                       11    11      0    3384
                                             33 BANK0     11    11      0
                          _EEPROMAdd
 ---------------------------------------------------------------------------------
 (2) _EEPROMAdd                                            6     3      3    3384
                                             27 BANK0      6     3      3
                   _EEPROMSaveNumber
                         _EepromRead
                             ___wmul
 ---------------------------------------------------------------------------------
 (3) _EEPROMSaveNumber                                    12     7      5    1815
                                             15 BANK0     12     7      5
                        _EepromWrite
                             ___wmul
 ---------------------------------------------------------------------------------
 (3) ___wmul                                               6     2      4     476
                                              5 BANK0      6     2      4
 ---------------------------------------------------------------------------------
 (4) _EepromWrite                                          3     0      3     846
                                             12 BANK0      3     0      3
                          _EepromEnd
                       _EepromOpCode
                         _EepromSend
                        _EepromStart
 ---------------------------------------------------------------------------------
 (5) _EepromSend                                           4     4      0      91
                                              5 BANK0      4     4      0
 ---------------------------------------------------------------------------------
 (1) _GPIORedLedBlink                                      5     5      0      47
                                              5 BANK0      5     5      0
 ---------------------------------------------------------------------------------
 (1) _GPIOPortInit                                         0     0      0       0
 ---------------------------------------------------------------------------------
 (1) _GPIOBlueLedBlink                                     5     5      0      47
                                              5 BANK0      5     5      0
 ---------------------------------------------------------------------------------
 (1) _EEPROMSearchNumber                                  13    10      3    1522
                                             16 BANK0     13    10      3
                         _EepromRead
                            ___lwdiv
 ---------------------------------------------------------------------------------
 (2) ___lwdiv                                              8     4      4     290
                                              5 BANK0      8     4      4
 ---------------------------------------------------------------------------------
 (3) _EepromRead                                           4     2      2     808
                                             12 BANK0      4     2      2
                          _EepromEnd
                       _EepromOpCode
                      _EepromReceive
                        _EepromStart
                             ___wmul (ARG)
 ---------------------------------------------------------------------------------
 (4) _EepromStart                                          1     1      0       0
                                              5 BANK0      1     1      0
 ---------------------------------------------------------------------------------
 (4) _EepromReceive                                        4     4      0     115
                                              5 BANK0      4     4      0
 ---------------------------------------------------------------------------------
 (4) _EepromOpCode                                         7     5      2     455
                                              5 BANK0      7     5      2
 ---------------------------------------------------------------------------------
 (4) _EepromEnd                                            1     1      0       0
                                              5 BANK0      1     1      0
 ---------------------------------------------------------------------------------
 Estimated maximum stack depth 5
 ---------------------------------------------------------------------------------
 (Depth) Function   	        Calls       Base Space   Used Autos Params    Refs
 ---------------------------------------------------------------------------------
 (6) _ISR                                                  1     1      0     449
                                             11 COMMON     1     1      0
                   _USARTHandleRxInt
 ---------------------------------------------------------------------------------
 (7) _USARTHandleRxInt                                    16    16      0     449
                                              0 COMMON    11    11      0
                                              0 BANK0      5     5      0
 ---------------------------------------------------------------------------------
 Estimated maximum stack depth 7
 ---------------------------------------------------------------------------------

 Call Graph Graphs:

 _main (ROOT)
   _EEPROMSearchNumber
     _EepromRead
       _EepromEnd
       _EepromOpCode
       _EepromReceive
       _EepromStart
       ___wmul (ARG)
     ___lwdiv
   _GPIOBlueLedBlink
   _GPIOPortInit
   _GPIORedLedBlink
   _SIM800Command
     _EEPROMAdd
       _EEPROMSaveNumber
         _EepromWrite
           _EepromEnd
           _EepromOpCode
           _EepromSend
           _EepromStart
         ___wmul
       _EepromRead
         _EepromEnd
         _EepromOpCode
         _EepromReceive
         _EepromStart
         ___wmul (ARG)
       ___wmul
   _SIM800ReadSms
     _USARTWriteLine
       _USARTWriteChar
       _USARTWriteString
         _USARTWriteChar
     _USARTWriteString
       _USARTWriteChar
   _SIM800SendSms
     _USARTWriteChar
     _USARTWriteLine
       _USARTWriteChar
       _USARTWriteString
         _USARTWriteChar
     _USARTWriteString
       _USARTWriteChar
   _SIM800init
     _USARTWriteLine
       _USARTWriteChar
       _USARTWriteString
         _USARTWriteChar
   _SYSTEMInit
   _USARTClearSIM800L
   _USARTInit
   _USARTWriteLine
     _USARTWriteChar
     _USARTWriteString
       _USARTWriteChar

 _ISR (ROOT)
   _USARTHandleRxInt

 Address spaces:
Name               Size   Autos  Total    Cost      Usage
BIGRAM              F0      0       0       0        0.0%
EEDATA             100      0       0       0        0.0%
NULL                 0      0       0       0        0.0%
CODE                 0      0       0       0        0.0%
BITCOMMON            E      0       0       1        0.0%
BITSFR0              0      0       0       1        0.0%
SFR0                 0      0       0       1        0.0%
COMMON               E      C       C       2       85.7%
BITSFR1              0      0       0       2        0.0%
SFR1                 0      0       0       2        0.0%
BITSFR2              0      0       0       3        0.0%
SFR2                 0      0       0       3        0.0%
STACK                0      0       0       3        0.0%
BITSFR3              0      0       0       4        0.0%
SFR3                 0      0       0       4        0.0%
ABS                  0      0      43       4        0.0%
BITBANK0            50      0       0       5        0.0%
BITSFR4              0      0       0       5        0.0%
SFR4                 0      0       0       5        0.0%
BANK0               50     2F      37       6       68.8%
BITSFR5              0      0       0       6        0.0%
SFR5                 0      0       0       6        0.0%
BITBANK1            50      0       0       7        0.0%
BITSFR6              0      0       0       7        0.0%
SFR6                 0      0       0       7        0.0%
BANK1               28      0       0       8        0.0%
BITSFR7              0      0       0       8        0.0%
SFR7                 0      0       0       8        0.0%
BITBANK2            50      0       0       9        0.0%
BITSFR8              0      0       0       9        0.0%
SFR8                 0      0       0       9        0.0%
BITSFR9              0      0       0      10        0.0%
SFR9                 0      0       0      10        0.0%
BANK2                0      0       0      10        0.0%
BITSFR10             0      0       0      11        0.0%
SFR10                0      0       0      11        0.0%
DATA                 0      0      43      11        0.0%
BITSFR11             0      0       0      12        0.0%
SFR11                0      0       0      12        0.0%
BITSFR12             0      0       0      13        0.0%
SFR12                0      0       0      13        0.0%
BITSFR13             0      0       0      14        0.0%
SFR13                0      0       0      14        0.0%
BITSFR14             0      0       0      15        0.0%
SFR14                0      0       0      15        0.0%
BITSFR15             0      0       0      16        0.0%
SFR15                0      0       0      16        0.0%
BITSFR16             0      0       0      17        0.0%
SFR16                0      0       0      17        0.0%
BITSFR17             0      0       0      18        0.0%
SFR17                0      0       0      18        0.0%
BITSFR18             0      0       0      19        0.0%
SFR18                0      0       0      19        0.0%
BITSFR19             0      0       0      20        0.0%
SFR19                0      0       0      20        0.0%
BITSFR20             0      0       0      21        0.0%
SFR20                0      0       0      21        0.0%
BITSFR21             0      0       0      22        0.0%
SFR21                0      0       0      22        0.0%
BITSFR22             0      0       0      23        0.0%
SFR22                0      0       0      23        0.0%
BITSFR23             0      0       0      24        0.0%
SFR23                0      0       0      24        0.0%
BITSFR24             0      0       0      25        0.0%
SFR24                0      0       0      25        0.0%
BITSFR25             0      0       0      26        0.0%
SFR25                0      0       0      26        0.0%
BITSFR26             0      0       0      27        0.0%
SFR26                0      0       0      27        0.0%
BITSFR27             0      0       0      28        0.0%
SFR27                0      0       0      28        0.0%
BITSFR28             0      0       0      29        0.0%
SFR28                0      0       0      29        0.0%
BITSFR29             0      0       0      30        0.0%
SFR29                0      0       0      30        0.0%
BITSFR30             0      0       0      31        0.0%
SFR30                0      0       0      31        0.0%
BITSFR31             0      0       0      32        0.0%
SFR31                0      0       0      32        0.0%


Microchip Technology PIC Macro Assembler V1.33 build 59893 
Symbol Table                                                                                   Tue Apr 05 15:24:48 2016

                           _i 0055                   __CFG_CP$OFF 0000                            l53 0329  
                          l83 0F53           ___wmul@multiplicand 0027            USARTInit@baud_rate 0025  
 __size_of_EEPROMSearchNumber 0075                   __CFG_LVP$ON 0000                           l128 067D  
                         l313 0E8C                           l305 07C9                           l268 0F2B  
                         l476 0F35                           _GIE 005F                  __CFG_CPD$OFF 0000  
                         _ISR 0004                  __CFG_BORV$LO 0000                           wreg 0009  
                __CFG_IESO$ON 0000            __size_of_EEPROMAdd 0063                    _SYSTEMInit 0F10  
                        ?_ISR 0070                   ?_SIM800init 0070                          l2051 04A0  
                        l2043 0493                          l2045 0495                          l2037 0463  
                        l2053 04A6                          l2117 0F7A                          l2039 0464  
                        l2303 02CC                          l2065 04C4                          l2057 04B0  
                        l2145 03A8                          l2139 0375                          l2091 0763  
                        l2323 0317                          l2307 02E3                          l2077 0FA8  
                        l2149 03CA                          l2317 0312                          l2097 0779  
                        l2339 033F                          l1823 0F74                          l1911 0679  
                        l1931 04CF                          l1835 0F2F                          l1907 063F  
                        l1933 04DB                          l1917 068C                          l1943 04F6  
                        l1951 0F17                          l2671 07BA                          l1953 0F1B  
                        l2673 07BF                          l1961 0792                          l1939 04ED  
                        l1883 0434                          l2675 07C4                          l2667 07B0  
                        l1963 0794                          l1885 043F                          l1949 0F13  
                        l1957 0F1F                          l2669 07B5                          l1965 0796  
                        l1973 079E                          l1967 0798                          l1969 079A  
                        l1899 0EDC                          STR_1 0549                          STR_2 0559  
                        STR_3 051F                          STR_4 0500                          STR_5 055F  
                        STR_6 0552                          STR_7 0564                          STR_8 0511  
                        STR_9 052D                          u1104 061B                          u1105 0619  
          EepromWrite@address 002C                          u1134 0F60                          u1135 0F5F  
                        u1074 0FE0                          u1315 04D2                          u1075 0FDF  
                        u1335 04DC                          u1175 0F36                          u1345 04E6  
                        u1185 0F3B                          u1355 04EE                          u2307 02DB  
                        u2317 0308                          u2407 05CE                          u2327 06A6  
                        u2417 06FF                          u2337 06B4                          u2427 0715  
                        u2347 06C4                          u2437 073D                          u2357 06DA  
                        u2447 0448                          u2367 06F0                          u2457 0FB5  
                        u2377 0574                          u2467 0FC5                          u2387 058A  
                        u2477 0F87                          u2397 05B2                          u2487 0F97  
                        _PEIE 005E                          _RCIE 048D                          _RCIF 008D  
           _USARTClearSIM800L 0745                  __CFG_WRT$OFF 0000        __end_of_USARTWriteChar 0E92  
               __CFG_FCMEN$ON 0000        __end_of_USARTWriteLine 0EC9                          _main 02B3  
                        _task 0056                          fsr0h 0005                          fsr1h 0007  
          ?_USARTClearSIM800L 0070                          fsr0l 0004                          indf0 0000  
                        indf1 0001                          fsr1l 0006                          btemp 007E  
                        ltemp 007E                          start 0016                          ttemp 007E  
                        wtemp 007E           __end_of_EepromStart 0EDC           __end_of_EepromWrite 0800  
         ??_USARTClearSIM800L 0025                         ??_ISR 007B                 ?_GPIOPortInit 0070  
           ?_USARTHandleRxInt 0070       EEPROMSearchNumber@count 0039                         ?_main 0070  
          ??_USARTHandleRxInt 0070                         STR_10 0569                         STR_11 0511  
                       STR_12 0540                         STR_13 056A                         STR_15 0537  
               __CFG_WDTE$OFF 0000              USARTWriteChar@ch 0025                    _EepromRead 0EF4  
                  _EepromSend 0FD2               __end_of___lwdiv 04FD                         i1l331 02B0  
                       i1l341 00F3                         i1l191 0011                         _RCREG 0199  
                       _SPBRG 019B                         _TXREG 019A     __end_of_USARTClearSIM800L 0791  
              __CFG_BOREN$OFF 0000                         ltemp0 007E                         ltemp1 0082  
                       ltemp2 0086                         ltemp3 0080            __size_of_USARTInit 004A  
             ?_USARTWriteChar 0070          __end_of_EepromOpCode 063C               ?_USARTWriteLine 0028  
                       ttemp0 007E                         ttemp1 0081                         ttemp2 0084  
                       ttemp3 0087                         ttemp4 007F                         status 0003  
                       wtemp0 007E                         wtemp1 0080                         wtemp2 0082  
                       wtemp3 0084                         wtemp4 0086                         wtemp5 0088  
                       wtemp6 007F        __size_of_SIM800Command 008B              _GPIOBlueLedBlink 0F76  
      __size_of_SIM800ReadSms 004D                __CFG_MCLRE$OFF 0000             __end_of_EEPROMAdd 069F  
             __initialization 0018        __size_of_SIM800SendSms 0069                  __end_of_main 034F  
              ??_GPIOPortInit 0025           __size_of_SIM800init 0059      __end_of_EEPROMSaveNumber 0451  
                      ??_main 004C                __CFG_PLLEN$OFF 0000            __size_of_EepromEnd 0009  
                 ?_SYSTEMInit 0070      EEPROMSearchNumber@result 003A               _GPIORedLedBlink 0FA4  
                      _ANSELB 018D                        i1l2205 00E2                        i1l2223 0149  
                      i1l2207 009C                        i1l2241 01A7                        i1l2233 0187  
                      i1l2209 00F6                        i1l2251 01F8                        i1l2227 016B  
                      i1l2219 011F                        i1l2245 01D1                        i1l2181 0050  
                      i1l2263 0243                        i1l2175 003D                        i1l2249 01E6  
                      i1l2185 005F                        i1l2267 0266                        i1l2259 0218  
                      i1l2275 0284                        i1l2269 026C                        i1l2277 0285  
                      i1l2279 028C                        i1l2287 02A8                   _EepromStart 0EC9  
                      u180_25 0264                        u164_25 00AC                   _EepromWrite 07DB  
                      _OSCCON 0099                        _TRISC0 0470                        _TRISA4 0464  
                      _TRISC1 0471                        _TRISC2 0472                        _TRISB4 046C  
                      _TRISC4 0474                        _TRISB6 046E                        _TRISC5 0475  
                      _TRISB7 046F                        _TRISC6 0476                        _TRISC7 0477  
              __CFG_PWRTE$OFF 0000             USARTWriteLine@str 0028                        ___wmul 0F2C  
              __CFG_STVREN$ON 0000                     ??___lwdiv 0029                        _bufque 0054  
    __end_of_USARTWriteString 0EF4             __end_of_USARTInit 07DB                   ?_EepromRead 002C  
                 ?_EepromSend 0070                 _SIM800Command 034F                 _SIM800ReadSms 06F8  
               _SIM800SendSms 056D    __size_of_USARTClearSIM800L 004C         __end_of_EepromReceive 0F76  
          USARTHandleRxInt@ci 0021       __end_of__initialization 002A             __end_of_EepromEnd 0E9B  
              __pcstackCOMMON 0070         EEPROMSearchNumber@aux 003B           __size_of_SYSTEMInit 001C  
              ?_SIM800Command 0070       EEPROMSaveNumber@address 0039       __end_of_GPIORedLedBlink 0FD2  
              ?_SIM800ReadSms 002A                ?_SIM800SendSms 002A         __size_of_EepromOpCode 0066  
                ??_SIM800init 002A          __end_of_GPIOPortInit 0EB7         GPIOBlueLedBlink@times 0028  
                  __pbssBANK0 004F           __size_of_EepromRead 001C           __size_of_EepromSend 002E  
                  __pmaintext 02B3  EEPROMSearchNumber@nmbrLenght 0032                       ?___wmul 0025  
  __end_of_EEPROMSearchNumber 04C6                    __pintentry 0004            __end_of_SIM800init 06F8  
                _EepromOpCode 05D6      __end_of_GPIOBlueLedBlink 0FA4                       _SIM800L 2078  
            ??_USARTWriteChar 0025                EepromRead@data 002F              ??_USARTWriteLine 002A  
          USARTWriteInt@F3219 004F     __size_of_USARTHandleRxInt 0285                EepromReceive@b 0027  
              EepromReceive@i 0028               __size_of___wmul 001E                       ___lwdiv 04C6  
                   _EEPROMAdd 063C               ??_SIM800Command 0041                       __ptext1 0791  
                     __ptext2 0745                       __ptext3 0F10                       __ptext4 069F  
                     __ptext5 056D                       __ptext6 06F8                       __ptext7 0EB7  
             ??_SIM800ReadSms 002C                       __ptext8 0EDC                       __ptext9 0E8A  
           ?_EEPROMSaveNumber 002F                  __size_of_ISR 0012               ??_SIM800SendSms 002E  
            ?_GPIORedLedBlink 0070            ??_EEPROMSaveNumber 0034                  ??_SYSTEMInit 0025  
                     clrloop0 0E9C          end_of_initialization 002A                  ?_EepromStart 0070  
                ?_EepromWrite 002C                 EEPROMAdd@nmbr 003B                     _RCSTAbits 019D  
          __end_of_SYSTEMInit 0F2C                  __pstringtext 0500                    ?_EEPROMAdd 003B  
           ?_USARTWriteString 0026                     _PORTBbits 000D                  ??_EepromRead 002E  
                ??_EepromSend 0025            ??_USARTWriteString 0028              __CFG_FOSC$INTOSC 0000  
       __size_of_GPIOPortInit 0010                     _USARTInit 0791                     _TXSTAbits 019E  
          __end_of_EepromRead 0F10            __end_of_EepromSend 1000        EEPROMSearchNumber@nmbr 0030  
                   _EepromEnd 0E92                  _GPIOPortInit 0EA7                __end_of___wmul 0F4A  
                 _BAUDCONbits 019F           start_initialization 0018                    ?_USARTInit 0025  
                 __end_of_ISR 0016           EepromOpCode@address 0025                SYSTEMInit@freq 0025  
            _USARTHandleRxInt 002E                   _APFCON0bits 011D                      ??___wmul 0029  
                  ?_EepromEnd 0070                   ??_EEPROMAdd 003E        __size_of_EepromReceive 002C  
  EEPROMSaveNumber@nmbrLenght 0031                   __pbssBIGRAM 2078      EEPROMSaveNumber@position 0032  
                   ___latbits 0001          GPIORedLedBlink@times 0028             ?_GPIOBlueLedBlink 0070  
               __pcstackBANK0 0020            _EEPROMSearchNumber 0451           __end_of__stringdata 056D  
          ??_GPIOBlueLedBlink 0025           ?_EEPROMSearchNumber 0030          __size_of_EepromStart 0013  
      EEPROMSaveNumber@result 0037          __size_of_EepromWrite 0025              ___lwdiv@dividend 0027  
                    ?___lwdiv 0025                 EepromOpCode@i 002B          ??_EEPROMSearchNumber 0033  
                 ??_USARTInit 0027              ___lwdiv@quotient 002A           EEPROMAdd@nmbrLenght 003D  
               _EepromReceive 0F4A     __size_of_EEPROMSaveNumber 0077                ___wmul@product 0029  
                    _LATAbits 010C                      _LATBbits 010D                      _LATCbits 010E  
                   clear_ram0 0E9B                      _PIR1bits 0011                   ??_EepromEnd 0025  
                 __stringdata 0500             ___wmul@multiplier 0025         __end_of_SIM800Command 03DA  
       __end_of_SIM800ReadSms 0745         __end_of_SIM800SendSms 05D6                ?_EepromReceive 0070  
    __size_of_GPIORedLedBlink 002E     __size_of_USARTWriteString 0018       __size_of_USARTWriteChar 0008  
     __size_of_USARTWriteLine 0012            EepromOpCode@opcode 002A      __end_of_USARTHandleRxInt 02B3  
            __size_of___lwdiv 0037             SIM800SendSms@nmbr 002A         EEPROMSaveNumber@count 0038  
          USARTClearSIM800L@i 0029             GPIOBlueLedBlink@i 0029               ___lwdiv@divisor 0025  
             ___lwdiv@counter 002C                      __ptext10 034F                      __ptext11 063C  
                    __ptext20 04C6                      __ptext12 03DA                      __ptext21 0EF4  
                    __ptext13 0F2C                      __ptext22 0EC9                      __ptext14 07DB  
                    __ptext23 0F4A                      __ptext15 0FD2                      __ptext24 05D6  
                    __ptext16 0FA4                      __ptext25 0E92                      __ptext17 0EA7  
                    __ptext18 0F76                      __ptext27 002E                      __ptext19 0451  
            SIM800ReadSms@mem 002A        USARTHandleRxInt@ci_580 0022        USARTHandleRxInt@ci_578 0023  
      USARTHandleRxInt@ci_579 0024              GPIORedLedBlink@i 0029                 __size_of_main 009C  
             EepromWrite@data 002E                 ?_EepromOpCode 0025                EEPROMAdd@empty 003F  
             ??_EepromReceive 0025                   pic14e$flags 007E                    _SIM800init 069F  
            SIM800SendSms@msg 002C                      intlevel1 0000          EEPROMSaveNumber@nmbr 002F  
            _EEPROMSaveNumber 03DA             __CFG_CLKOUTEN$OFF 0000                   EepromSend@b 0027  
                 EepromSend@i 0028     __size_of_GPIOBlueLedBlink 002E             ??_GPIORedLedBlink 0025  
         USARTWriteString@str 0026                ??_EepromOpCode 0027             EepromRead@address 002C  
        USARTHandleRxInt@data 0020                 ??_EepromStart 0025              _USARTWriteString 0EDC  
               ??_EepromWrite 002F                _USARTWriteChar 0E8A                _USARTWriteLine 0EB7  
