

Microchip Technology PIC LITE Macro Assembler V1.33 build 59893 
                                                                                               Fri May 20 00:13:40 2016

Microchip Technology Omniscient Code Generator (Lite mode) build 59893
     1                           	processor	16F1828
     2                           	opt	pw 120
     3                           	opt	lm
     4                           	psect	stringtext,global,reloc=256,class=STRCODE,delta=2
     5                           	psect	cinit,global,class=CODE,merge=1,delta=2
     6                           	psect	bssBANK0,global,class=BANK0,space=1,delta=1
     7                           	psect	clrtext,global,class=CODE,delta=2
     8                           	psect	cstackCOMMON,global,class=COMMON,space=1,delta=1
     9                           	psect	cstackBANK0,global,class=BANK0,space=1,delta=1
    10                           	psect	maintext,global,class=CODE,merge=1,split=1,delta=2
    11                           	psect	text1,local,class=CODE,merge=1,delta=2
    12                           	psect	text2,local,class=CODE,merge=1,delta=2
    13                           	psect	text3,local,class=CODE,merge=1,delta=2
    14                           	psect	text4,local,class=CODE,merge=1,delta=2
    15                           	psect	text5,local,class=CODE,merge=1,delta=2
    16                           	psect	text6,local,class=CODE,merge=1,delta=2
    17                           	psect	text7,local,class=CODE,merge=1,delta=2
    18                           	psect	text8,local,class=CODE,merge=1,delta=2
    19                           	psect	text9,local,class=CODE,merge=1,delta=2
    20                           	psect	text10,local,class=CODE,merge=1,delta=2
    21                           	psect	text11,local,class=CODE,merge=1,delta=2
    22                           	psect	text12,local,class=CODE,merge=1,delta=2
    23                           	psect	text13,local,class=CODE,merge=1,delta=2
    24                           	psect	text14,local,class=CODE,merge=1,delta=2
    25                           	psect	text15,local,class=CODE,merge=1,delta=2
    26                           	psect	text16,local,class=CODE,merge=1,delta=2
    27                           	psect	text17,local,class=CODE,merge=1,delta=2
    28                           	psect	text18,local,class=CODE,merge=1,delta=2
    29                           	psect	text19,local,class=CODE,merge=1,delta=2
    30                           	psect	text20,local,class=CODE,merge=1,delta=2
    31                           	psect	text21,local,class=CODE,merge=1,delta=2
    32                           	psect	text22,local,class=CODE,merge=1,delta=2
    33                           	psect	text23,local,class=CODE,merge=1,delta=2
    34                           	psect	text24,local,class=CODE,merge=1,delta=2
    35                           	psect	text25,local,class=CODE,merge=1,delta=2
    36                           	psect	text26,local,class=CODE,merge=1,delta=2
    37                           	psect	text27,local,class=CODE,merge=1,delta=2
    38                           	psect	text28,local,class=CODE,merge=1,delta=2
    39                           	psect	text29,local,class=CODE,merge=1,delta=2
    40                           	psect	text30,local,class=CODE,merge=1,delta=2
    41                           	psect	intentry,global,class=CODE,delta=2
    42                           	psect	text32,local,class=CODE,merge=1,delta=2
    43                           	dabs	1,0x120,80
    44                           	dabs	1,0xC8,40
    45                           	dabs	1,0x2078,0,_SIM800L
    46                           	dabs	1,0x7E,2
    47  0000                     	;# 
    48  0001                     	;# 
    49  0002                     	;# 
    50  0003                     	;# 
    51  0004                     	;# 
    52  0005                     	;# 
    53  0006                     	;# 
    54  0007                     	;# 
    55  0008                     	;# 
    56  0009                     	;# 
    57  000A                     	;# 
    58  000B                     	;# 
    59  000C                     	;# 
    60  000D                     	;# 
    61  000E                     	;# 
    62  0011                     	;# 
    63  0012                     	;# 
    64  0013                     	;# 
    65  0015                     	;# 
    66  0016                     	;# 
    67  0016                     	;# 
    68  0017                     	;# 
    69  0018                     	;# 
    70  0019                     	;# 
    71  001A                     	;# 
    72  001B                     	;# 
    73  001C                     	;# 
    74  001E                     	;# 
    75  001F                     	;# 
    76  008C                     	;# 
    77  008D                     	;# 
    78  008E                     	;# 
    79  0091                     	;# 
    80  0092                     	;# 
    81  0093                     	;# 
    82  0095                     	;# 
    83  0096                     	;# 
    84  0097                     	;# 
    85  0098                     	;# 
    86  0099                     	;# 
    87  009A                     	;# 
    88  009B                     	;# 
    89  009B                     	;# 
    90  009C                     	;# 
    91  009D                     	;# 
    92  009E                     	;# 
    93  010C                     	;# 
    94  010D                     	;# 
    95  010E                     	;# 
    96  0111                     	;# 
    97  0112                     	;# 
    98  0113                     	;# 
    99  0114                     	;# 
   100  0115                     	;# 
   101  0116                     	;# 
   102  0117                     	;# 
   103  0118                     	;# 
   104  0119                     	;# 
   105  011A                     	;# 
   106  011B                     	;# 
   107  011D                     	;# 
   108  011E                     	;# 
   109  018C                     	;# 
   110  018D                     	;# 
   111  018E                     	;# 
   112  0191                     	;# 
   113  0191                     	;# 
   114  0192                     	;# 
   115  0193                     	;# 
   116  0193                     	;# 
   117  0193                     	;# 
   118  0194                     	;# 
   119  0195                     	;# 
   120  0196                     	;# 
   121  0199                     	;# 
   122  019A                     	;# 
   123  019B                     	;# 
   124  019B                     	;# 
   125  019B                     	;# 
   126  019B                     	;# 
   127  019C                     	;# 
   128  019C                     	;# 
   129  019D                     	;# 
   130  019E                     	;# 
   131  019F                     	;# 
   132  020C                     	;# 
   133  020D                     	;# 
   134  020E                     	;# 
   135  0211                     	;# 
   136  0211                     	;# 
   137  0212                     	;# 
   138  0212                     	;# 
   139  0213                     	;# 
   140  0213                     	;# 
   141  0214                     	;# 
   142  0214                     	;# 
   143  0215                     	;# 
   144  0215                     	;# 
   145  0215                     	;# 
   146  0215                     	;# 
   147  0216                     	;# 
   148  0216                     	;# 
   149  0217                     	;# 
   150  0217                     	;# 
   151  0291                     	;# 
   152  0291                     	;# 
   153  0292                     	;# 
   154  0293                     	;# 
   155  0294                     	;# 
   156  0295                     	;# 
   157  0295                     	;# 
   158  0296                     	;# 
   159  0298                     	;# 
   160  0298                     	;# 
   161  0299                     	;# 
   162  029A                     	;# 
   163  029B                     	;# 
   164  029C                     	;# 
   165  029D                     	;# 
   166  029E                     	;# 
   167  029E                     	;# 
   168  0311                     	;# 
   169  0311                     	;# 
   170  0312                     	;# 
   171  0313                     	;# 
   172  0318                     	;# 
   173  0318                     	;# 
   174  0319                     	;# 
   175  031A                     	;# 
   176  038C                     	;# 
   177  038D                     	;# 
   178  038E                     	;# 
   179  0391                     	;# 
   180  0392                     	;# 
   181  0393                     	;# 
   182  0394                     	;# 
   183  0395                     	;# 
   184  0396                     	;# 
   185  039A                     	;# 
   186  039C                     	;# 
   187  039D                     	;# 
   188  039E                     	;# 
   189  039F                     	;# 
   190  0415                     	;# 
   191  0416                     	;# 
   192  0417                     	;# 
   193  041C                     	;# 
   194  041D                     	;# 
   195  041E                     	;# 
   196  0FE4                     	;# 
   197  0FE5                     	;# 
   198  0FE6                     	;# 
   199  0FE7                     	;# 
   200  0FE8                     	;# 
   201  0FE9                     	;# 
   202  0FEA                     	;# 
   203  0FEB                     	;# 
   204  0FED                     	;# 
   205  0FEE                     	;# 
   206  0FEF                     	;# 
   207  0000                     	;# 
   208  0001                     	;# 
   209  0002                     	;# 
   210  0003                     	;# 
   211  0004                     	;# 
   212  0005                     	;# 
   213  0006                     	;# 
   214  0007                     	;# 
   215  0008                     	;# 
   216  0009                     	;# 
   217  000A                     	;# 
   218  000B                     	;# 
   219  000C                     	;# 
   220  000D                     	;# 
   221  000E                     	;# 
   222  0011                     	;# 
   223  0012                     	;# 
   224  0013                     	;# 
   225  0015                     	;# 
   226  0016                     	;# 
   227  0016                     	;# 
   228  0017                     	;# 
   229  0018                     	;# 
   230  0019                     	;# 
   231  001A                     	;# 
   232  001B                     	;# 
   233  001C                     	;# 
   234  001E                     	;# 
   235  001F                     	;# 
   236  008C                     	;# 
   237  008D                     	;# 
   238  008E                     	;# 
   239  0091                     	;# 
   240  0092                     	;# 
   241  0093                     	;# 
   242  0095                     	;# 
   243  0096                     	;# 
   244  0097                     	;# 
   245  0098                     	;# 
   246  0099                     	;# 
   247  009A                     	;# 
   248  009B                     	;# 
   249  009B                     	;# 
   250  009C                     	;# 
   251  009D                     	;# 
   252  009E                     	;# 
   253  010C                     	;# 
   254  010D                     	;# 
   255  010E                     	;# 
   256  0111                     	;# 
   257  0112                     	;# 
   258  0113                     	;# 
   259  0114                     	;# 
   260  0115                     	;# 
   261  0116                     	;# 
   262  0117                     	;# 
   263  0118                     	;# 
   264  0119                     	;# 
   265  011A                     	;# 
   266  011B                     	;# 
   267  011D                     	;# 
   268  011E                     	;# 
   269  018C                     	;# 
   270  018D                     	;# 
   271  018E                     	;# 
   272  0191                     	;# 
   273  0191                     	;# 
   274  0192                     	;# 
   275  0193                     	;# 
   276  0193                     	;# 
   277  0193                     	;# 
   278  0194                     	;# 
   279  0195                     	;# 
   280  0196                     	;# 
   281  0199                     	;# 
   282  019A                     	;# 
   283  019B                     	;# 
   284  019B                     	;# 
   285  019B                     	;# 
   286  019B                     	;# 
   287  019C                     	;# 
   288  019C                     	;# 
   289  019D                     	;# 
   290  019E                     	;# 
   291  019F                     	;# 
   292  020C                     	;# 
   293  020D                     	;# 
   294  020E                     	;# 
   295  0211                     	;# 
   296  0211                     	;# 
   297  0212                     	;# 
   298  0212                     	;# 
   299  0213                     	;# 
   300  0213                     	;# 
   301  0214                     	;# 
   302  0214                     	;# 
   303  0215                     	;# 
   304  0215                     	;# 
   305  0215                     	;# 
   306  0215                     	;# 
   307  0216                     	;# 
   308  0216                     	;# 
   309  0217                     	;# 
   310  0217                     	;# 
   311  0291                     	;# 
   312  0291                     	;# 
   313  0292                     	;# 
   314  0293                     	;# 
   315  0294                     	;# 
   316  0295                     	;# 
   317  0295                     	;# 
   318  0296                     	;# 
   319  0298                     	;# 
   320  0298                     	;# 
   321  0299                     	;# 
   322  029A                     	;# 
   323  029B                     	;# 
   324  029C                     	;# 
   325  029D                     	;# 
   326  029E                     	;# 
   327  029E                     	;# 
   328  0311                     	;# 
   329  0311                     	;# 
   330  0312                     	;# 
   331  0313                     	;# 
   332  0318                     	;# 
   333  0318                     	;# 
   334  0319                     	;# 
   335  031A                     	;# 
   336  038C                     	;# 
   337  038D                     	;# 
   338  038E                     	;# 
   339  0391                     	;# 
   340  0392                     	;# 
   341  0393                     	;# 
   342  0394                     	;# 
   343  0395                     	;# 
   344  0396                     	;# 
   345  039A                     	;# 
   346  039C                     	;# 
   347  039D                     	;# 
   348  039E                     	;# 
   349  039F                     	;# 
   350  0415                     	;# 
   351  0416                     	;# 
   352  0417                     	;# 
   353  041C                     	;# 
   354  041D                     	;# 
   355  041E                     	;# 
   356  0FE4                     	;# 
   357  0FE5                     	;# 
   358  0FE6                     	;# 
   359  0FE7                     	;# 
   360  0FE8                     	;# 
   361  0FE9                     	;# 
   362  0FEA                     	;# 
   363  0FEB                     	;# 
   364  0FED                     	;# 
   365  0FEE                     	;# 
   366  0FEF                     	;# 
   367  0000                     	;# 
   368  0001                     	;# 
   369  0002                     	;# 
   370  0003                     	;# 
   371  0004                     	;# 
   372  0005                     	;# 
   373  0006                     	;# 
   374  0007                     	;# 
   375  0008                     	;# 
   376  0009                     	;# 
   377  000A                     	;# 
   378  000B                     	;# 
   379  000C                     	;# 
   380  000D                     	;# 
   381  000E                     	;# 
   382  0011                     	;# 
   383  0012                     	;# 
   384  0013                     	;# 
   385  0015                     	;# 
   386  0016                     	;# 
   387  0016                     	;# 
   388  0017                     	;# 
   389  0018                     	;# 
   390  0019                     	;# 
   391  001A                     	;# 
   392  001B                     	;# 
   393  001C                     	;# 
   394  001E                     	;# 
   395  001F                     	;# 
   396  008C                     	;# 
   397  008D                     	;# 
   398  008E                     	;# 
   399  0091                     	;# 
   400  0092                     	;# 
   401  0093                     	;# 
   402  0095                     	;# 
   403  0096                     	;# 
   404  0097                     	;# 
   405  0098                     	;# 
   406  0099                     	;# 
   407  009A                     	;# 
   408  009B                     	;# 
   409  009B                     	;# 
   410  009C                     	;# 
   411  009D                     	;# 
   412  009E                     	;# 
   413  010C                     	;# 
   414  010D                     	;# 
   415  010E                     	;# 
   416  0111                     	;# 
   417  0112                     	;# 
   418  0113                     	;# 
   419  0114                     	;# 
   420  0115                     	;# 
   421  0116                     	;# 
   422  0117                     	;# 
   423  0118                     	;# 
   424  0119                     	;# 
   425  011A                     	;# 
   426  011B                     	;# 
   427  011D                     	;# 
   428  011E                     	;# 
   429  018C                     	;# 
   430  018D                     	;# 
   431  018E                     	;# 
   432  0191                     	;# 
   433  0191                     	;# 
   434  0192                     	;# 
   435  0193                     	;# 
   436  0193                     	;# 
   437  0193                     	;# 
   438  0194                     	;# 
   439  0195                     	;# 
   440  0196                     	;# 
   441  0199                     	;# 
   442  019A                     	;# 
   443  019B                     	;# 
   444  019B                     	;# 
   445  019B                     	;# 
   446  019B                     	;# 
   447  019C                     	;# 
   448  019C                     	;# 
   449  019D                     	;# 
   450  019E                     	;# 
   451  019F                     	;# 
   452  020C                     	;# 
   453  020D                     	;# 
   454  020E                     	;# 
   455  0211                     	;# 
   456  0211                     	;# 
   457  0212                     	;# 
   458  0212                     	;# 
   459  0213                     	;# 
   460  0213                     	;# 
   461  0214                     	;# 
   462  0214                     	;# 
   463  0215                     	;# 
   464  0215                     	;# 
   465  0215                     	;# 
   466  0215                     	;# 
   467  0216                     	;# 
   468  0216                     	;# 
   469  0217                     	;# 
   470  0217                     	;# 
   471  0291                     	;# 
   472  0291                     	;# 
   473  0292                     	;# 
   474  0293                     	;# 
   475  0294                     	;# 
   476  0295                     	;# 
   477  0295                     	;# 
   478  0296                     	;# 
   479  0298                     	;# 
   480  0298                     	;# 
   481  0299                     	;# 
   482  029A                     	;# 
   483  029B                     	;# 
   484  029C                     	;# 
   485  029D                     	;# 
   486  029E                     	;# 
   487  029E                     	;# 
   488  0311                     	;# 
   489  0311                     	;# 
   490  0312                     	;# 
   491  0313                     	;# 
   492  0318                     	;# 
   493  0318                     	;# 
   494  0319                     	;# 
   495  031A                     	;# 
   496  038C                     	;# 
   497  038D                     	;# 
   498  038E                     	;# 
   499  0391                     	;# 
   500  0392                     	;# 
   501  0393                     	;# 
   502  0394                     	;# 
   503  0395                     	;# 
   504  0396                     	;# 
   505  039A                     	;# 
   506  039C                     	;# 
   507  039D                     	;# 
   508  039E                     	;# 
   509  039F                     	;# 
   510  0415                     	;# 
   511  0416                     	;# 
   512  0417                     	;# 
   513  041C                     	;# 
   514  041D                     	;# 
   515  041E                     	;# 
   516  0FE4                     	;# 
   517  0FE5                     	;# 
   518  0FE6                     	;# 
   519  0FE7                     	;# 
   520  0FE8                     	;# 
   521  0FE9                     	;# 
   522  0FEA                     	;# 
   523  0FEB                     	;# 
   524  0FED                     	;# 
   525  0FEE                     	;# 
   526  0FEF                     	;# 
   527  0000                     	;# 
   528  0001                     	;# 
   529  0002                     	;# 
   530  0003                     	;# 
   531  0004                     	;# 
   532  0005                     	;# 
   533  0006                     	;# 
   534  0007                     	;# 
   535  0008                     	;# 
   536  0009                     	;# 
   537  000A                     	;# 
   538  000B                     	;# 
   539  000C                     	;# 
   540  000D                     	;# 
   541  000E                     	;# 
   542  0011                     	;# 
   543  0012                     	;# 
   544  0013                     	;# 
   545  0015                     	;# 
   546  0016                     	;# 
   547  0016                     	;# 
   548  0017                     	;# 
   549  0018                     	;# 
   550  0019                     	;# 
   551  001A                     	;# 
   552  001B                     	;# 
   553  001C                     	;# 
   554  001E                     	;# 
   555  001F                     	;# 
   556  008C                     	;# 
   557  008D                     	;# 
   558  008E                     	;# 
   559  0091                     	;# 
   560  0092                     	;# 
   561  0093                     	;# 
   562  0095                     	;# 
   563  0096                     	;# 
   564  0097                     	;# 
   565  0098                     	;# 
   566  0099                     	;# 
   567  009A                     	;# 
   568  009B                     	;# 
   569  009B                     	;# 
   570  009C                     	;# 
   571  009D                     	;# 
   572  009E                     	;# 
   573  010C                     	;# 
   574  010D                     	;# 
   575  010E                     	;# 
   576  0111                     	;# 
   577  0112                     	;# 
   578  0113                     	;# 
   579  0114                     	;# 
   580  0115                     	;# 
   581  0116                     	;# 
   582  0117                     	;# 
   583  0118                     	;# 
   584  0119                     	;# 
   585  011A                     	;# 
   586  011B                     	;# 
   587  011D                     	;# 
   588  011E                     	;# 
   589  018C                     	;# 
   590  018D                     	;# 
   591  018E                     	;# 
   592  0191                     	;# 
   593  0191                     	;# 
   594  0192                     	;# 
   595  0193                     	;# 
   596  0193                     	;# 
   597  0193                     	;# 
   598  0194                     	;# 
   599  0195                     	;# 
   600  0196                     	;# 
   601  0199                     	;# 
   602  019A                     	;# 
   603  019B                     	;# 
   604  019B                     	;# 
   605  019B                     	;# 
   606  019B                     	;# 
   607  019C                     	;# 
   608  019C                     	;# 
   609  019D                     	;# 
   610  019E                     	;# 
   611  019F                     	;# 
   612  020C                     	;# 
   613  020D                     	;# 
   614  020E                     	;# 
   615  0211                     	;# 
   616  0211                     	;# 
   617  0212                     	;# 
   618  0212                     	;# 
   619  0213                     	;# 
   620  0213                     	;# 
   621  0214                     	;# 
   622  0214                     	;# 
   623  0215                     	;# 
   624  0215                     	;# 
   625  0215                     	;# 
   626  0215                     	;# 
   627  0216                     	;# 
   628  0216                     	;# 
   629  0217                     	;# 
   630  0217                     	;# 
   631  0291                     	;# 
   632  0291                     	;# 
   633  0292                     	;# 
   634  0293                     	;# 
   635  0294                     	;# 
   636  0295                     	;# 
   637  0295                     	;# 
   638  0296                     	;# 
   639  0298                     	;# 
   640  0298                     	;# 
   641  0299                     	;# 
   642  029A                     	;# 
   643  029B                     	;# 
   644  029C                     	;# 
   645  029D                     	;# 
   646  029E                     	;# 
   647  029E                     	;# 
   648  0311                     	;# 
   649  0311                     	;# 
   650  0312                     	;# 
   651  0313                     	;# 
   652  0318                     	;# 
   653  0318                     	;# 
   654  0319                     	;# 
   655  031A                     	;# 
   656  038C                     	;# 
   657  038D                     	;# 
   658  038E                     	;# 
   659  0391                     	;# 
   660  0392                     	;# 
   661  0393                     	;# 
   662  0394                     	;# 
   663  0395                     	;# 
   664  0396                     	;# 
   665  039A                     	;# 
   666  039C                     	;# 
   667  039D                     	;# 
   668  039E                     	;# 
   669  039F                     	;# 
   670  0415                     	;# 
   671  0416                     	;# 
   672  0417                     	;# 
   673  041C                     	;# 
   674  041D                     	;# 
   675  041E                     	;# 
   676  0FE4                     	;# 
   677  0FE5                     	;# 
   678  0FE6                     	;# 
   679  0FE7                     	;# 
   680  0FE8                     	;# 
   681  0FE9                     	;# 
   682  0FEA                     	;# 
   683  0FEB                     	;# 
   684  0FED                     	;# 
   685  0FEE                     	;# 
   686  0FEF                     	;# 
   687  0000                     	;# 
   688  0001                     	;# 
   689  0002                     	;# 
   690  0003                     	;# 
   691  0004                     	;# 
   692  0005                     	;# 
   693  0006                     	;# 
   694  0007                     	;# 
   695  0008                     	;# 
   696  0009                     	;# 
   697  000A                     	;# 
   698  000B                     	;# 
   699  000C                     	;# 
   700  000D                     	;# 
   701  000E                     	;# 
   702  0011                     	;# 
   703  0012                     	;# 
   704  0013                     	;# 
   705  0015                     	;# 
   706  0016                     	;# 
   707  0016                     	;# 
   708  0017                     	;# 
   709  0018                     	;# 
   710  0019                     	;# 
   711  001A                     	;# 
   712  001B                     	;# 
   713  001C                     	;# 
   714  001E                     	;# 
   715  001F                     	;# 
   716  008C                     	;# 
   717  008D                     	;# 
   718  008E                     	;# 
   719  0091                     	;# 
   720  0092                     	;# 
   721  0093                     	;# 
   722  0095                     	;# 
   723  0096                     	;# 
   724  0097                     	;# 
   725  0098                     	;# 
   726  0099                     	;# 
   727  009A                     	;# 
   728  009B                     	;# 
   729  009B                     	;# 
   730  009C                     	;# 
   731  009D                     	;# 
   732  009E                     	;# 
   733  010C                     	;# 
   734  010D                     	;# 
   735  010E                     	;# 
   736  0111                     	;# 
   737  0112                     	;# 
   738  0113                     	;# 
   739  0114                     	;# 
   740  0115                     	;# 
   741  0116                     	;# 
   742  0117                     	;# 
   743  0118                     	;# 
   744  0119                     	;# 
   745  011A                     	;# 
   746  011B                     	;# 
   747  011D                     	;# 
   748  011E                     	;# 
   749  018C                     	;# 
   750  018D                     	;# 
   751  018E                     	;# 
   752  0191                     	;# 
   753  0191                     	;# 
   754  0192                     	;# 
   755  0193                     	;# 
   756  0193                     	;# 
   757  0193                     	;# 
   758  0194                     	;# 
   759  0195                     	;# 
   760  0196                     	;# 
   761  0199                     	;# 
   762  019A                     	;# 
   763  019B                     	;# 
   764  019B                     	;# 
   765  019B                     	;# 
   766  019B                     	;# 
   767  019C                     	;# 
   768  019C                     	;# 
   769  019D                     	;# 
   770  019E                     	;# 
   771  019F                     	;# 
   772  020C                     	;# 
   773  020D                     	;# 
   774  020E                     	;# 
   775  0211                     	;# 
   776  0211                     	;# 
   777  0212                     	;# 
   778  0212                     	;# 
   779  0213                     	;# 
   780  0213                     	;# 
   781  0214                     	;# 
   782  0214                     	;# 
   783  0215                     	;# 
   784  0215                     	;# 
   785  0215                     	;# 
   786  0215                     	;# 
   787  0216                     	;# 
   788  0216                     	;# 
   789  0217                     	;# 
   790  0217                     	;# 
   791  0291                     	;# 
   792  0291                     	;# 
   793  0292                     	;# 
   794  0293                     	;# 
   795  0294                     	;# 
   796  0295                     	;# 
   797  0295                     	;# 
   798  0296                     	;# 
   799  0298                     	;# 
   800  0298                     	;# 
   801  0299                     	;# 
   802  029A                     	;# 
   803  029B                     	;# 
   804  029C                     	;# 
   805  029D                     	;# 
   806  029E                     	;# 
   807  029E                     	;# 
   808  0311                     	;# 
   809  0311                     	;# 
   810  0312                     	;# 
   811  0313                     	;# 
   812  0318                     	;# 
   813  0318                     	;# 
   814  0319                     	;# 
   815  031A                     	;# 
   816  038C                     	;# 
   817  038D                     	;# 
   818  038E                     	;# 
   819  0391                     	;# 
   820  0392                     	;# 
   821  0393                     	;# 
   822  0394                     	;# 
   823  0395                     	;# 
   824  0396                     	;# 
   825  039A                     	;# 
   826  039C                     	;# 
   827  039D                     	;# 
   828  039E                     	;# 
   829  039F                     	;# 
   830  0415                     	;# 
   831  0416                     	;# 
   832  0417                     	;# 
   833  041C                     	;# 
   834  041D                     	;# 
   835  041E                     	;# 
   836  0FE4                     	;# 
   837  0FE5                     	;# 
   838  0FE6                     	;# 
   839  0FE7                     	;# 
   840  0FE8                     	;# 
   841  0FE9                     	;# 
   842  0FEA                     	;# 
   843  0FEB                     	;# 
   844  0FED                     	;# 
   845  0FEE                     	;# 
   846  0FEF                     	;# 
   847  0000                     	;# 
   848  0001                     	;# 
   849  0002                     	;# 
   850  0003                     	;# 
   851  0004                     	;# 
   852  0005                     	;# 
   853  0006                     	;# 
   854  0007                     	;# 
   855  0008                     	;# 
   856  0009                     	;# 
   857  000A                     	;# 
   858  000B                     	;# 
   859  000C                     	;# 
   860  000D                     	;# 
   861  000E                     	;# 
   862  0011                     	;# 
   863  0012                     	;# 
   864  0013                     	;# 
   865  0015                     	;# 
   866  0016                     	;# 
   867  0016                     	;# 
   868  0017                     	;# 
   869  0018                     	;# 
   870  0019                     	;# 
   871  001A                     	;# 
   872  001B                     	;# 
   873  001C                     	;# 
   874  001E                     	;# 
   875  001F                     	;# 
   876  008C                     	;# 
   877  008D                     	;# 
   878  008E                     	;# 
   879  0091                     	;# 
   880  0092                     	;# 
   881  0093                     	;# 
   882  0095                     	;# 
   883  0096                     	;# 
   884  0097                     	;# 
   885  0098                     	;# 
   886  0099                     	;# 
   887  009A                     	;# 
   888  009B                     	;# 
   889  009B                     	;# 
   890  009C                     	;# 
   891  009D                     	;# 
   892  009E                     	;# 
   893  010C                     	;# 
   894  010D                     	;# 
   895  010E                     	;# 
   896  0111                     	;# 
   897  0112                     	;# 
   898  0113                     	;# 
   899  0114                     	;# 
   900  0115                     	;# 
   901  0116                     	;# 
   902  0117                     	;# 
   903  0118                     	;# 
   904  0119                     	;# 
   905  011A                     	;# 
   906  011B                     	;# 
   907  011D                     	;# 
   908  011E                     	;# 
   909  018C                     	;# 
   910  018D                     	;# 
   911  018E                     	;# 
   912  0191                     	;# 
   913  0191                     	;# 
   914  0192                     	;# 
   915  0193                     	;# 
   916  0193                     	;# 
   917  0193                     	;# 
   918  0194                     	;# 
   919  0195                     	;# 
   920  0196                     	;# 
   921  0199                     	;# 
   922  019A                     	;# 
   923  019B                     	;# 
   924  019B                     	;# 
   925  019B                     	;# 
   926  019B                     	;# 
   927  019C                     	;# 
   928  019C                     	;# 
   929  019D                     	;# 
   930  019E                     	;# 
   931  019F                     	;# 
   932  020C                     	;# 
   933  020D                     	;# 
   934  020E                     	;# 
   935  0211                     	;# 
   936  0211                     	;# 
   937  0212                     	;# 
   938  0212                     	;# 
   939  0213                     	;# 
   940  0213                     	;# 
   941  0214                     	;# 
   942  0214                     	;# 
   943  0215                     	;# 
   944  0215                     	;# 
   945  0215                     	;# 
   946  0215                     	;# 
   947  0216                     	;# 
   948  0216                     	;# 
   949  0217                     	;# 
   950  0217                     	;# 
   951  0291                     	;# 
   952  0291                     	;# 
   953  0292                     	;# 
   954  0293                     	;# 
   955  0294                     	;# 
   956  0295                     	;# 
   957  0295                     	;# 
   958  0296                     	;# 
   959  0298                     	;# 
   960  0298                     	;# 
   961  0299                     	;# 
   962  029A                     	;# 
   963  029B                     	;# 
   964  029C                     	;# 
   965  029D                     	;# 
   966  029E                     	;# 
   967  029E                     	;# 
   968  0311                     	;# 
   969  0311                     	;# 
   970  0312                     	;# 
   971  0313                     	;# 
   972  0318                     	;# 
   973  0318                     	;# 
   974  0319                     	;# 
   975  031A                     	;# 
   976  038C                     	;# 
   977  038D                     	;# 
   978  038E                     	;# 
   979  0391                     	;# 
   980  0392                     	;# 
   981  0393                     	;# 
   982  0394                     	;# 
   983  0395                     	;# 
   984  0396                     	;# 
   985  039A                     	;# 
   986  039C                     	;# 
   987  039D                     	;# 
   988  039E                     	;# 
   989  039F                     	;# 
   990  0415                     	;# 
   991  0416                     	;# 
   992  0417                     	;# 
   993  041C                     	;# 
   994  041D                     	;# 
   995  041E                     	;# 
   996  0FE4                     	;# 
   997  0FE5                     	;# 
   998  0FE6                     	;# 
   999  0FE7                     	;# 
  1000  0FE8                     	;# 
  1001  0FE9                     	;# 
  1002  0FEA                     	;# 
  1003  0FEB                     	;# 
  1004  0FED                     	;# 
  1005  0FEE                     	;# 
  1006  0FEF                     	;# 
  1007  0000                     	;# 
  1008  0001                     	;# 
  1009  0002                     	;# 
  1010  0003                     	;# 
  1011  0004                     	;# 
  1012  0005                     	;# 
  1013  0006                     	;# 
  1014  0007                     	;# 
  1015  0008                     	;# 
  1016  0009                     	;# 
  1017  000A                     	;# 
  1018  000B                     	;# 
  1019  000C                     	;# 
  1020  000D                     	;# 
  1021  000E                     	;# 
  1022  0011                     	;# 
  1023  0012                     	;# 
  1024  0013                     	;# 
  1025  0015                     	;# 
  1026  0016                     	;# 
  1027  0016                     	;# 
  1028  0017                     	;# 
  1029  0018                     	;# 
  1030  0019                     	;# 
  1031  001A                     	;# 
  1032  001B                     	;# 
  1033  001C                     	;# 
  1034  001E                     	;# 
  1035  001F                     	;# 
  1036  008C                     	;# 
  1037  008D                     	;# 
  1038  008E                     	;# 
  1039  0091                     	;# 
  1040  0092                     	;# 
  1041  0093                     	;# 
  1042  0095                     	;# 
  1043  0096                     	;# 
  1044  0097                     	;# 
  1045  0098                     	;# 
  1046  0099                     	;# 
  1047  009A                     	;# 
  1048  009B                     	;# 
  1049  009B                     	;# 
  1050  009C                     	;# 
  1051  009D                     	;# 
  1052  009E                     	;# 
  1053  010C                     	;# 
  1054  010D                     	;# 
  1055  010E                     	;# 
  1056  0111                     	;# 
  1057  0112                     	;# 
  1058  0113                     	;# 
  1059  0114                     	;# 
  1060  0115                     	;# 
  1061  0116                     	;# 
  1062  0117                     	;# 
  1063  0118                     	;# 
  1064  0119                     	;# 
  1065  011A                     	;# 
  1066  011B                     	;# 
  1067  011D                     	;# 
  1068  011E                     	;# 
  1069  018C                     	;# 
  1070  018D                     	;# 
  1071  018E                     	;# 
  1072  0191                     	;# 
  1073  0191                     	;# 
  1074  0192                     	;# 
  1075  0193                     	;# 
  1076  0193                     	;# 
  1077  0193                     	;# 
  1078  0194                     	;# 
  1079  0195                     	;# 
  1080  0196                     	;# 
  1081  0199                     	;# 
  1082  019A                     	;# 
  1083  019B                     	;# 
  1084  019B                     	;# 
  1085  019B                     	;# 
  1086  019B                     	;# 
  1087  019C                     	;# 
  1088  019C                     	;# 
  1089  019D                     	;# 
  1090  019E                     	;# 
  1091  019F                     	;# 
  1092  020C                     	;# 
  1093  020D                     	;# 
  1094  020E                     	;# 
  1095  0211                     	;# 
  1096  0211                     	;# 
  1097  0212                     	;# 
  1098  0212                     	;# 
  1099  0213                     	;# 
  1100  0213                     	;# 
  1101  0214                     	;# 
  1102  0214                     	;# 
  1103  0215                     	;# 
  1104  0215                     	;# 
  1105  0215                     	;# 
  1106  0215                     	;# 
  1107  0216                     	;# 
  1108  0216                     	;# 
  1109  0217                     	;# 
  1110  0217                     	;# 
  1111  0291                     	;# 
  1112  0291                     	;# 
  1113  0292                     	;# 
  1114  0293                     	;# 
  1115  0294                     	;# 
  1116  0295                     	;# 
  1117  0295                     	;# 
  1118  0296                     	;# 
  1119  0298                     	;# 
  1120  0298                     	;# 
  1121  0299                     	;# 
  1122  029A                     	;# 
  1123  029B                     	;# 
  1124  029C                     	;# 
  1125  029D                     	;# 
  1126  029E                     	;# 
  1127  029E                     	;# 
  1128  0311                     	;# 
  1129  0311                     	;# 
  1130  0312                     	;# 
  1131  0313                     	;# 
  1132  0318                     	;# 
  1133  0318                     	;# 
  1134  0319                     	;# 
  1135  031A                     	;# 
  1136  038C                     	;# 
  1137  038D                     	;# 
  1138  038E                     	;# 
  1139  0391                     	;# 
  1140  0392                     	;# 
  1141  0393                     	;# 
  1142  0394                     	;# 
  1143  0395                     	;# 
  1144  0396                     	;# 
  1145  039A                     	;# 
  1146  039C                     	;# 
  1147  039D                     	;# 
  1148  039E                     	;# 
  1149  039F                     	;# 
  1150  0415                     	;# 
  1151  0416                     	;# 
  1152  0417                     	;# 
  1153  041C                     	;# 
  1154  041D                     	;# 
  1155  041E                     	;# 
  1156  0FE4                     	;# 
  1157  0FE5                     	;# 
  1158  0FE6                     	;# 
  1159  0FE7                     	;# 
  1160  0FE8                     	;# 
  1161  0FE9                     	;# 
  1162  0FEA                     	;# 
  1163  0FEB                     	;# 
  1164  0FED                     	;# 
  1165  0FEE                     	;# 
  1166  0FEF                     	;_SIM800L
  1167  0011                     _PIR1bits	set	17
  1168  000D                     _PORTBbits	set	13
  1169  005F                     _GIE	set	95
  1170  005E                     _PEIE	set	94
  1171  008D                     _RCIF	set	141
  1172  0099                     _OSCCON	set	153
  1173  048D                     _RCIE	set	1165
  1174  0464                     _TRISA4	set	1124
  1175  0465                     _TRISA5	set	1125
  1176  046C                     _TRISB4	set	1132
  1177  046E                     _TRISB6	set	1134
  1178  046F                     _TRISB7	set	1135
  1179  0470                     _TRISC0	set	1136
  1180  0471                     _TRISC1	set	1137
  1181  0472                     _TRISC2	set	1138
  1182  0474                     _TRISC4	set	1140
  1183  0475                     _TRISC5	set	1141
  1184  0476                     _TRISC6	set	1142
  1185  0477                     _TRISC7	set	1143
  1186  011D                     _APFCON0bits	set	285
  1187  010C                     _LATAbits	set	268
  1188  010D                     _LATBbits	set	269
  1189  010E                     _LATCbits	set	270
  1190  018D                     _ANSELB	set	397
  1191  019F                     _BAUDCONbits	set	415
  1192  0199                     _RCREG	set	409
  1193  019D                     _RCSTAbits	set	413
  1194  019B                     _SPBRG	set	411
  1195  019A                     _TXREG	set	410
  1196  019E                     _TXSTAbits	set	414
  1197  0CEC                     _CREN	set	3308
  1198                           
  1199                           	psect	stringtext
  1200  0500                     __pstringtext:	
  1201  0500                     __stringdata:	
  1202  0500                     STR_16:	
  1203  0500  3459               	retlw	89	;'Y'
  1204  0501  346F               	retlw	111	;'o'
  1205  0502  3475               	retlw	117	;'u'
  1206  0503  3472               	retlw	114	;'r'
  1207  0504  3420               	retlw	32	;' '
  1208  0505  346E               	retlw	110	;'n'
  1209  0506  3475               	retlw	117	;'u'
  1210  0507  346D               	retlw	109	;'m'
  1211  0508  3462               	retlw	98	;'b'
  1212  0509  3465               	retlw	101	;'e'
  1213  050A  3472               	retlw	114	;'r'
  1214  050B  3420               	retlw	32	;' '
  1215  050C  3468               	retlw	104	;'h'
  1216  050D  3461               	retlw	97	;'a'
  1217  050E  3464               	retlw	100	;'d'
  1218  050F  3420               	retlw	32	;' '
  1219  0510  3462               	retlw	98	;'b'
  1220  0511  3465               	retlw	101	;'e'
  1221  0512  3465               	retlw	101	;'e'
  1222  0513  346E               	retlw	110	;'n'
  1223  0514  3420               	retlw	32	;' '
  1224  0515  3464               	retlw	100	;'d'
  1225  0516  3465               	retlw	101	;'e'
  1226  0517  346C               	retlw	108	;'l'
  1227  0518  3465               	retlw	101	;'e'
  1228  0519  3474               	retlw	116	;'t'
  1229  051A  3465               	retlw	101	;'e'
  1230  051B  3464               	retlw	100	;'d'
  1231  051C  3400               	retlw	0
  1232  051D                     STR_14:	
  1233  051D  3459               	retlw	89	;'Y'
  1234  051E  346F               	retlw	111	;'o'
  1235  051F  3475               	retlw	117	;'u'
  1236  0520  3472               	retlw	114	;'r'
  1237  0521  3420               	retlw	32	;' '
  1238  0522  346E               	retlw	110	;'n'
  1239  0523  3475               	retlw	117	;'u'
  1240  0524  346D               	retlw	109	;'m'
  1241  0525  3462               	retlw	98	;'b'
  1242  0526  3465               	retlw	101	;'e'
  1243  0527  3472               	retlw	114	;'r'
  1244  0528  3420               	retlw	32	;' '
  1245  0529  3468               	retlw	104	;'h'
  1246  052A  3461               	retlw	97	;'a'
  1247  052B  3464               	retlw	100	;'d'
  1248  052C  3420               	retlw	32	;' '
  1249  052D  3462               	retlw	98	;'b'
  1250  052E  3465               	retlw	101	;'e'
  1251  052F  3465               	retlw	101	;'e'
  1252  0530  346E               	retlw	110	;'n'
  1253  0531  3420               	retlw	32	;' '
  1254  0532  3461               	retlw	97	;'a'
  1255  0533  3464               	retlw	100	;'d'
  1256  0534  3464               	retlw	100	;'d'
  1257  0535  3465               	retlw	101	;'e'
  1258  0536  3464               	retlw	100	;'d'
  1259  0537  3400               	retlw	0
  1260  0538                     STR_15:	
  1261  0538  3459               	retlw	89	;'Y'
  1262  0539  346F               	retlw	111	;'o'
  1263  053A  3475               	retlw	117	;'u'
  1264  053B  3472               	retlw	114	;'r'
  1265  053C  3420               	retlw	32	;' '
  1266  053D  346E               	retlw	110	;'n'
  1267  053E  3475               	retlw	117	;'u'
  1268  053F  346D               	retlw	109	;'m'
  1269  0540  3462               	retlw	98	;'b'
  1270  0541  3465               	retlw	101	;'e'
  1271  0542  3472               	retlw	114	;'r'
  1272  0543  3420               	retlw	32	;' '
  1273  0544  3461               	retlw	97	;'a'
  1274  0545  346C               	retlw	108	;'l'
  1275  0546  3472               	retlw	114	;'r'
  1276  0547  3465               	retlw	101	;'e'
  1277  0548  3461               	retlw	97	;'a'
  1278  0549  3464               	retlw	100	;'d'
  1279  054A  3479               	retlw	121	;'y'
  1280  054B  3420               	retlw	32	;' '
  1281  054C  3465               	retlw	101	;'e'
  1282  054D  3478               	retlw	120	;'x'
  1283  054E  3469               	retlw	105	;'i'
  1284  054F  3473               	retlw	115	;'s'
  1285  0550  3474               	retlw	116	;'t'
  1286  0551  3400               	retlw	0
  1287  0552                     STR_20:	
  1288  0552  3453               	retlw	83	;'S'
  1289  0553  3479               	retlw	121	;'y'
  1290  0554  3473               	retlw	115	;'s'
  1291  0555  3474               	retlw	116	;'t'
  1292  0556  3465               	retlw	101	;'e'
  1293  0557  346D               	retlw	109	;'m'
  1294  0558  3420               	retlw	32	;' '
  1295  0559  3465               	retlw	101	;'e'
  1296  055A  346E               	retlw	110	;'n'
  1297  055B  3461               	retlw	97	;'a'
  1298  055C  3462               	retlw	98	;'b'
  1299  055D  346C               	retlw	108	;'l'
  1300  055E  3465               	retlw	101	;'e'
  1301  055F  3464               	retlw	100	;'d'
  1302  0560  3400               	retlw	0
  1303  0561                     STR_6:	
  1304  0561  3441               	retlw	65	;'A'
  1305  0562  3454               	retlw	84	;'T'
  1306  0563  342B               	retlw	43	;'+'
  1307  0564  3443               	retlw	67	;'C'
  1308  0565  344D               	retlw	77	;'M'
  1309  0566  3447               	retlw	71	;'G'
  1310  0567  3446               	retlw	70	;'F'
  1311  0568  3420               	retlw	32	;' '
  1312  0569  343D               	retlw	61	;'='
  1313  056A  3420               	retlw	32	;' '
  1314  056B  3431               	retlw	49	;'1'
  1315  056C  340D               	retlw	13
  1316  056D  340A               	retlw	10
  1317  056E  3400               	retlw	0
  1318  056F                     STR_4:	
  1319  056F  3441               	retlw	65	;'A'
  1320  0570  3454               	retlw	84	;'T'
  1321  0571  342B               	retlw	43	;'+'
  1322  0572  3443               	retlw	67	;'C'
  1323  0573  344C               	retlw	76	;'L'
  1324  0574  3449               	retlw	73	;'I'
  1325  0575  3450               	retlw	80	;'P'
  1326  0576  343D               	retlw	61	;'='
  1327  0577  3431               	retlw	49	;'1'
  1328  0578  340D               	retlw	13
  1329  0579  340A               	retlw	10
  1330  057A  3400               	retlw	0
  1331  057B                     STR_19:	
  1332  057B  3436               	retlw	54	;'6'
  1333  057C  3431               	retlw	49	;'1'
  1334  057D  3434               	retlw	52	;'4'
  1335  057E  3431               	retlw	49	;'1'
  1336  057F  3436               	retlw	54	;'6'
  1337  0580  3435               	retlw	53	;'5'
  1338  0581  3434               	retlw	52	;'4'
  1339  0582  3438               	retlw	56	;'8'
  1340  0583  3431               	retlw	49	;'1'
  1341  0584  3438               	retlw	56	;'8'
  1342  0585  3400               	retlw	0
  1343  0586                     STR_7:	
  1344  0586  3441               	retlw	65	;'A'
  1345  0587  3454               	retlw	84	;'T'
  1346  0588  342B               	retlw	43	;'+'
  1347  0589  3443               	retlw	67	;'C'
  1348  058A  344D               	retlw	77	;'M'
  1349  058B  3447               	retlw	71	;'G'
  1350  058C  3453               	retlw	83	;'S'
  1351  058D  343D               	retlw	61	;'='
  1352  058E  3422               	retlw	34	;'"'
  1353  058F  3400               	retlw	0
  1354  0590                     STR_21:	
  1355  0590  3441               	retlw	65	;'A'
  1356  0591  3454               	retlw	84	;'T'
  1357  0592  342B               	retlw	43	;'+'
  1358  0593  3443               	retlw	67	;'C'
  1359  0594  3453               	retlw	83	;'S'
  1360  0595  3451               	retlw	81	;'Q'
  1361  0596  340D               	retlw	13
  1362  0597  340A               	retlw	10
  1363  0598  3400               	retlw	0
  1364  0599                     STR_12:	
  1365  0599  3441               	retlw	65	;'A'
  1366  059A  3454               	retlw	84	;'T'
  1367  059B  342B               	retlw	43	;'+'
  1368  059C  3443               	retlw	67	;'C'
  1369  059D  344D               	retlw	77	;'M'
  1370  059E  3447               	retlw	71	;'G'
  1371  059F  3444               	retlw	68	;'D'
  1372  05A0  343D               	retlw	61	;'='
  1373  05A1  3400               	retlw	0
  1374  05A2                     STR_10:	
  1375  05A2  3441               	retlw	65	;'A'
  1376  05A3  3454               	retlw	84	;'T'
  1377  05A4  342B               	retlw	43	;'+'
  1378  05A5  3443               	retlw	67	;'C'
  1379  05A6  344D               	retlw	77	;'M'
  1380  05A7  3447               	retlw	71	;'G'
  1381  05A8  3452               	retlw	82	;'R'
  1382  05A9  343D               	retlw	61	;'='
  1383  05AA  3400               	retlw	0
  1384  05AB                     STR_3:	
  1385  05AB  3441               	retlw	65	;'A'
  1386  05AC  3454               	retlw	84	;'T'
  1387  05AD  3445               	retlw	69	;'E'
  1388  05AE  3430               	retlw	48	;'0'
  1389  05AF  340D               	retlw	13
  1390  05B0  340A               	retlw	10
  1391  05B1  3400               	retlw	0
  1392  05B2                     STR_22:	
  1393  05B2  3441               	retlw	65	;'A'
  1394  05B3  3454               	retlw	84	;'T'
  1395  05B4  3448               	retlw	72	;'H'
  1396  05B5  340D               	retlw	13
  1397  05B6  340A               	retlw	10
  1398  05B7  3400               	retlw	0
  1399  05B8                     STR_2:	
  1400  05B8  3441               	retlw	65	;'A'
  1401  05B9  3454               	retlw	84	;'T'
  1402  05BA  340D               	retlw	13
  1403  05BB  340A               	retlw	10
  1404  05BC  3400               	retlw	0
  1405  05BD                     STR_5:	
  1406  05BD  3441               	retlw	65	;'A'
  1407  05BE  3454               	retlw	84	;'T'
  1408  05BF  340A               	retlw	10
  1409  05C0  340D               	retlw	13
  1410  05C1  3400               	retlw	0
  1411  05C2                     STR_17:	
  1412  05C2  3431               	retlw	49	;'1'
  1413  05C3  3432               	retlw	50	;'2'
  1414  05C4  3433               	retlw	51	;'3'
  1415  05C5  3434               	retlw	52	;'4'
  1416  05C6  3400               	retlw	0
  1417  05C7                     STR_8:	
  1418  05C7  3422               	retlw	34	;'"'
  1419  05C8  340D               	retlw	13
  1420  05C9  340A               	retlw	10
  1421  05CA  3400               	retlw	0
  1422  05CB                     STR_1:	
  1423  05CB  342D               	retlw	45	;'-'
  1424  05CC  343E               	retlw	62	;'>'
  1425  05CD  3400               	retlw	0
  1426  05CE                     STR_23:	
  1427  05CE  3431               	retlw	49	;'1'
  1428  05CF  3400               	retlw	0
  1429  05D0                     __end_of__stringdata:	
  1430                           
  1431                           ; #config settings
  1432  0000                     
  1433                           	psect	cinit
  1434  0018                     start_initialization:	
  1435  0018                     __initialization:		;BIGRAM
  1436                           
  1437                           ; Clear objects allocated to BIGRAM
  1438  0018  3078               	movlw	low (0+8312)
  1439  0019  0084               	movwf	4
  1440  001A  3020               	movlw	high (0+8312)
  1441  001B  0085               	movwf	5
  1442  001C  3078               	movlw	120
  1443  001D  00FE               	movwf	btemp
  1444  001E  3000               	movlw	0
  1445  001F  00FF               	movwf	btemp+1
  1446  0020  318B  231B  3180   	fcall	clear_ram0
  1447                           
  1448                           ; Clear objects allocated to BANK0
  1449  0023  3055               	movlw	low __pbssBANK0
  1450  0024  0084               	movwf	4
  1451  0025  3000               	movlw	high __pbssBANK0
  1452  0026  0085               	movwf	5
  1453  0027  300C               	movlw	12
  1454  0028  00FE               	movwf	btemp
  1455  0029  3000               	movlw	0
  1456  002A  00FF               	movwf	btemp+1
  1457  002B  318B  231B         	fcall	clear_ram0
  1458  002D                     end_of_initialization:	
  1459                           ;End of C runtime variable initialization code
  1460                           
  1461  002D                     __end_of__initialization:	
  1462  002D  107E               	bcf	pic14e$flags,0	;clear compiler interrupt flag
  1463  002E  0020               	movlb	0
  1464  002F  3185  2DD0         	ljmp	_main	;jump to C main() function
  1465                           
  1466                           	psect	bssBANK0
  1467  0055                     __pbssBANK0:	
  1468  0055                     USARTWriteInt@F3220:	
  1469  0055                     	ds	5
  1470  005A                     _password:	
  1471  005A                     	ds	4
  1472  005E                     _bufque:	
  1473  005E                     	ds	1
  1474  005F                     _i:	
  1475  005F                     	ds	1
  1476  0060                     _task:	
  1477  0060                     	ds	1
  1478                           
  1479                           	psect	clrtext
  1480  0B1B                     clear_ram0:	
  1481                           ;	Called with FSR0 containing the base address, and
  1482                           ;	btemp/btemp+1 has the size to clear
  1483                           
  1484  0B1B  0064               	clrwdt	;clear the watchdog before getting into this loop
  1485  0B1C                     clrloop0:	
  1486  0B1C  0180               	clrf	0	;clear RAM location pointed to by FSR
  1487  0B1D  3101               	addfsr 0,1
  1488  0B1E  3001               	movlw	1
  1489  0B1F  02FE               	subwf	126,f
  1490  0B20  3000               	movlw	0
  1491  0B21  3BFF               	subwfb	127,f
  1492  0B22  087F               	movf	127,w
  1493  0B23  047E               	iorwf	126,w
  1494  0B24  1903               	btfsc	3,2
  1495  0B25  3400               	retlw	0	;all done for this memory range, return
  1496  0B26  2B1C               	goto	clrloop0	;have we reached the end yet?
  1497                           
  1498                           	psect	cstackCOMMON
  1499  0070                     __pcstackCOMMON:	
  1500  0070                     ?_USARTWriteChar:	
  1501  0070                     ?_USARTHandleRxInt:	
  1502                           ; 0 bytes @ 0x0
  1503                           
  1504  0070                     ??_USARTHandleRxInt:	
  1505                           ; 0 bytes @ 0x0
  1506                           
  1507  0070                     ?_EepromStart:	
  1508                           ; 0 bytes @ 0x0
  1509                           
  1510  0070                     ?_EepromEnd:	
  1511                           ; 0 bytes @ 0x0
  1512                           
  1513  0070                     ?_EepromSend:	
  1514                           ; 0 bytes @ 0x0
  1515                           
  1516  0070                     ?_EEPROMEraseAll:	
  1517                           ; 0 bytes @ 0x0
  1518                           
  1519  0070                     ?_GPIOPortInit:	
  1520                           ; 0 bytes @ 0x0
  1521                           
  1522  0070                     ?_GPIORedLedBlink:	
  1523                           ; 0 bytes @ 0x0
  1524                           
  1525  0070                     ?_GPIOBlueLedBlink:	
  1526                           ; 0 bytes @ 0x0
  1527                           
  1528  0070                     ?_ISR:	
  1529                           ; 0 bytes @ 0x0
  1530                           
  1531  0070                     ?_SIM800LClear:	
  1532                           ; 0 bytes @ 0x0
  1533                           
  1534  0070                     ?_SYSTEMInit:	
  1535                           ; 0 bytes @ 0x0
  1536                           
  1537  0070                     ?_main:	
  1538                           ; 0 bytes @ 0x0
  1539                           
  1540  0070                     ?_EepromReceive:	
  1541                           ; 0 bytes @ 0x0
  1542                           
  1543  0070                     ?_SIM800init:	
  1544                           ; 1 bytes @ 0x0
  1545                           
  1546  0070                     ?_SIM800Command:	
  1547                           ; 1 bytes @ 0x0
  1548                           
  1549                           
  1550                           ; 1 bytes @ 0x0
  1551  0070                     	ds	11
  1552  007B                     ??_ISR:	
  1553                           
  1554                           ; 0 bytes @ 0xB
  1555  007B                     	ds	1
  1556                           
  1557                           	psect	cstackBANK0
  1558  0020                     __pcstackBANK0:	
  1559  0020                     USARTHandleRxInt@data:	
  1560                           
  1561                           ; 1 bytes @ 0x0
  1562  0020                     	ds	1
  1563  0021                     USARTHandleRxInt@ci_501:	
  1564                           
  1565                           ; 1 bytes @ 0x1
  1566  0021                     	ds	1
  1567  0022                     USARTHandleRxInt@ci:	
  1568                           
  1569                           ; 1 bytes @ 0x2
  1570  0022                     	ds	1
  1571  0023                     USARTHandleRxInt@ci_499:	
  1572                           
  1573                           ; 1 bytes @ 0x3
  1574  0023                     	ds	1
  1575  0024                     USARTHandleRxInt@ci_500:	
  1576                           
  1577                           ; 1 bytes @ 0x4
  1578  0024                     	ds	1
  1579  0025                     ??_USARTWriteChar:	
  1580  0025                     ??_EepromStart:	
  1581                           ; 0 bytes @ 0x5
  1582                           
  1583  0025                     ??_EepromEnd:	
  1584                           ; 0 bytes @ 0x5
  1585                           
  1586  0025                     ??_EepromSend:	
  1587                           ; 0 bytes @ 0x5
  1588                           
  1589  0025                     ??_EepromReceive:	
  1590                           ; 0 bytes @ 0x5
  1591                           
  1592  0025                     ?_EepromOpCode:	
  1593                           ; 0 bytes @ 0x5
  1594                           
  1595  0025                     ??_GPIOPortInit:	
  1596                           ; 0 bytes @ 0x5
  1597                           
  1598  0025                     ??_GPIORedLedBlink:	
  1599                           ; 0 bytes @ 0x5
  1600                           
  1601  0025                     ??_GPIOBlueLedBlink:	
  1602                           ; 0 bytes @ 0x5
  1603                           
  1604  0025                     ??_SIM800LClear:	
  1605                           ; 0 bytes @ 0x5
  1606                           
  1607  0025                     ??_SYSTEMInit:	
  1608                           ; 0 bytes @ 0x5
  1609                           
  1610  0025                     ?_USARTInit:	
  1611                           ; 0 bytes @ 0x5
  1612                           
  1613  0025                     ?___wmul:	
  1614                           ; 0 bytes @ 0x5
  1615                           
  1616  0025                     ?___lwdiv:	
  1617                           ; 2 bytes @ 0x5
  1618                           
  1619  0025                     SYSTEMInit@freq:	
  1620                           ; 2 bytes @ 0x5
  1621                           
  1622  0025                     USARTWriteChar@ch:	
  1623                           ; 1 bytes @ 0x5
  1624                           
  1625  0025                     EepromOpCode@address:	
  1626                           ; 1 bytes @ 0x5
  1627                           
  1628  0025                     USARTInit@baud_rate:	
  1629                           ; 2 bytes @ 0x5
  1630                           
  1631  0025                     ___wmul@multiplier:	
  1632                           ; 2 bytes @ 0x5
  1633                           
  1634  0025                     ___lwdiv@divisor:	
  1635                           ; 2 bytes @ 0x5
  1636                           
  1637                           
  1638                           ; 2 bytes @ 0x5
  1639  0025                     	ds	1
  1640  0026                     ?_USARTWriteString:	
  1641  0026                     USARTWriteString@str:	
  1642                           ; 0 bytes @ 0x6
  1643                           
  1644                           
  1645                           ; 2 bytes @ 0x6
  1646  0026                     	ds	1
  1647  0027                     ??_EepromOpCode:	
  1648  0027                     ??_USARTInit:	
  1649                           ; 0 bytes @ 0x7
  1650                           
  1651  0027                     EepromSend@b:	
  1652                           ; 0 bytes @ 0x7
  1653                           
  1654  0027                     EepromReceive@b:	
  1655                           ; 1 bytes @ 0x7
  1656                           
  1657  0027                     ___wmul@multiplicand:	
  1658                           ; 1 bytes @ 0x7
  1659                           
  1660  0027                     ___lwdiv@dividend:	
  1661                           ; 2 bytes @ 0x7
  1662                           
  1663                           
  1664                           ; 2 bytes @ 0x7
  1665  0027                     	ds	1
  1666  0028                     ?_USARTWriteLine:	
  1667  0028                     ??_USARTWriteString:	
  1668                           ; 0 bytes @ 0x8
  1669                           
  1670  0028                     EepromSend@i:	
  1671                           ; 0 bytes @ 0x8
  1672                           
  1673  0028                     EepromReceive@i:	
  1674                           ; 1 bytes @ 0x8
  1675                           
  1676  0028                     GPIORedLedBlink@times:	
  1677                           ; 1 bytes @ 0x8
  1678                           
  1679  0028                     GPIOBlueLedBlink@times:	
  1680                           ; 1 bytes @ 0x8
  1681                           
  1682  0028                     USARTWriteLine@str:	
  1683                           ; 1 bytes @ 0x8
  1684                           
  1685                           
  1686                           ; 2 bytes @ 0x8
  1687  0028                     	ds	1
  1688  0029                     ??___wmul:	
  1689  0029                     ??___lwdiv:	
  1690                           ; 0 bytes @ 0x9
  1691                           
  1692  0029                     GPIORedLedBlink@i:	
  1693                           ; 0 bytes @ 0x9
  1694                           
  1695  0029                     GPIOBlueLedBlink@i:	
  1696                           ; 1 bytes @ 0x9
  1697                           
  1698  0029                     SIM800LClear@i:	
  1699                           ; 1 bytes @ 0x9
  1700                           
  1701  0029                     ___wmul@product:	
  1702                           ; 1 bytes @ 0x9
  1703                           
  1704                           
  1705                           ; 2 bytes @ 0x9
  1706  0029                     	ds	1
  1707  002A                     ??_USARTWriteLine:	
  1708  002A                     ??_SIM800init:	
  1709                           ; 0 bytes @ 0xA
  1710                           
  1711  002A                     ?_SIM800SendSms:	
  1712                           ; 0 bytes @ 0xA
  1713                           
  1714  002A                     ?_SIM800ReadSms:	
  1715                           ; 1 bytes @ 0xA
  1716                           
  1717  002A                     ?_SIM800DeleteSms:	
  1718                           ; 1 bytes @ 0xA
  1719                           
  1720  002A                     EepromOpCode@opcode:	
  1721                           ; 1 bytes @ 0xA
  1722                           
  1723  002A                     SIM800SendSms@nmbr:	
  1724                           ; 1 bytes @ 0xA
  1725                           
  1726  002A                     SIM800ReadSms@mem:	
  1727                           ; 2 bytes @ 0xA
  1728                           
  1729  002A                     SIM800DeleteSms@index:	
  1730                           ; 2 bytes @ 0xA
  1731                           
  1732  002A                     ___lwdiv@quotient:	
  1733                           ; 2 bytes @ 0xA
  1734                           
  1735                           
  1736                           ; 2 bytes @ 0xA
  1737  002A                     	ds	1
  1738  002B                     EepromOpCode@i:	
  1739                           
  1740                           ; 1 bytes @ 0xB
  1741  002B                     	ds	1
  1742  002C                     ?_EepromWrite:	
  1743  002C                     ??_EEPROMEraseAll:	
  1744                           ; 0 bytes @ 0xC
  1745                           
  1746  002C                     ??_SIM800ReadSms:	
  1747                           ; 0 bytes @ 0xC
  1748                           
  1749  002C                     ?_EepromRead:	
  1750                           ; 0 bytes @ 0xC
  1751                           
  1752  002C                     ___lwdiv@counter:	
  1753                           ; 1 bytes @ 0xC
  1754                           
  1755  002C                     EepromWrite@address:	
  1756                           ; 1 bytes @ 0xC
  1757                           
  1758  002C                     EepromRead@address:	
  1759                           ; 2 bytes @ 0xC
  1760                           
  1761  002C                     SIM800SendSms@msg:	
  1762                           ; 2 bytes @ 0xC
  1763                           
  1764  002C                     SIM800DeleteSms@flag:	
  1765                           ; 2 bytes @ 0xC
  1766                           
  1767                           
  1768                           ; 2 bytes @ 0xC
  1769  002C                     	ds	2
  1770  002E                     ??_EepromRead:	
  1771  002E                     ??_SIM800SendSms:	
  1772                           ; 0 bytes @ 0xE
  1773                           
  1774  002E                     ??_SIM800DeleteSms:	
  1775                           ; 0 bytes @ 0xE
  1776                           
  1777  002E                     EepromWrite@data:	
  1778                           ; 0 bytes @ 0xE
  1779                           
  1780                           
  1781                           ; 1 bytes @ 0xE
  1782  002E                     	ds	1
  1783  002F                     ??_EepromWrite:	
  1784  002F                     ?_EEPROMUpdatePassword:	
  1785                           ; 0 bytes @ 0xF
  1786                           
  1787  002F                     ?_EEPROMSaveNumber:	
  1788                           ; 0 bytes @ 0xF
  1789                           
  1790  002F                     ?_EEPROMDeleteNumber:	
  1791                           ; 1 bytes @ 0xF
  1792                           
  1793  002F                     EepromRead@data:	
  1794                           ; 1 bytes @ 0xF
  1795                           
  1796  002F                     EEPROMSaveNumber@nmbr:	
  1797                           ; 1 bytes @ 0xF
  1798                           
  1799  002F                     EEPROMDeleteNumber@position:	
  1800                           ; 2 bytes @ 0xF
  1801                           
  1802  002F                     EEPROMUpdatePassword@pass:	
  1803                           ; 2 bytes @ 0xF
  1804                           
  1805                           
  1806                           ; 2 bytes @ 0xF
  1807  002F                     	ds	1
  1808  0030                     ?_EEPROMCheckPassword:	
  1809  0030                     ?_EEPROMSearchNumber:	
  1810                           ; 1 bytes @ 0x10
  1811                           
  1812  0030                     EEPROMSearchNumber@nmbr:	
  1813                           ; 2 bytes @ 0x10
  1814                           
  1815  0030                     EEPROMCheckPassword@pass:	
  1816                           ; 2 bytes @ 0x10
  1817                           
  1818                           
  1819                           ; 2 bytes @ 0x10
  1820  0030                     	ds	1
  1821  0031                     ??_EEPROMDeleteNumber:	
  1822  0031                     ??_EEPROMUpdatePassword:	
  1823                           ; 0 bytes @ 0x11
  1824                           
  1825  0031                     EEPROMSaveNumber@nmbrLenght:	
  1826                           ; 0 bytes @ 0x11
  1827                           
  1828                           
  1829                           ; 1 bytes @ 0x11
  1830  0031                     	ds	1
  1831  0032                     ??_EEPROMCheckPassword:	
  1832  0032                     EEPROMSearchNumber@nmbrLenght:	
  1833                           ; 0 bytes @ 0x12
  1834                           
  1835  0032                     EEPROMSaveNumber@position:	
  1836                           ; 1 bytes @ 0x12
  1837                           
  1838                           
  1839                           ; 2 bytes @ 0x12
  1840  0032                     	ds	1
  1841  0033                     ??_EEPROMSearchNumber:	
  1842  0033                     EEPROMDeleteNumber@address:	
  1843                           ; 0 bytes @ 0x13
  1844                           
  1845                           
  1846                           ; 2 bytes @ 0x13
  1847  0033                     	ds	1
  1848  0034                     ??_EEPROMSaveNumber:	
  1849                           
  1850                           ; 0 bytes @ 0x14
  1851  0034                     	ds	1
  1852  0035                     EEPROMDeleteNumber@count:	
  1853                           
  1854                           ; 1 bytes @ 0x15
  1855  0035                     	ds	2
  1856  0037                     EEPROMSaveNumber@result:	
  1857                           
  1858                           ; 2 bytes @ 0x17
  1859  0037                     	ds	2
  1860  0039                     EEPROMSaveNumber@count:	
  1861  0039                     EEPROMSearchNumber@count:	
  1862                           ; 2 bytes @ 0x19
  1863                           
  1864                           
  1865                           ; 2 bytes @ 0x19
  1866  0039                     	ds	2
  1867  003B                     EEPROMSaveNumber@address:	
  1868  003B                     EEPROMSearchNumber@result:	
  1869                           ; 2 bytes @ 0x1B
  1870                           
  1871                           
  1872                           ; 2 bytes @ 0x1B
  1873  003B                     	ds	2
  1874  003D                     ?_EEPROMAdd:	
  1875  003D                     EEPROMSearchNumber@aux:	
  1876                           ; 1 bytes @ 0x1D
  1877                           
  1878  003D                     EEPROMAdd@nmbr:	
  1879                           ; 2 bytes @ 0x1D
  1880                           
  1881                           
  1882                           ; 2 bytes @ 0x1D
  1883  003D                     	ds	2
  1884  003F                     EEPROMAdd@nmbrLenght:	
  1885                           
  1886                           ; 1 bytes @ 0x1F
  1887  003F                     	ds	1
  1888  0040                     ??_EEPROMAdd:	
  1889                           
  1890                           ; 0 bytes @ 0x20
  1891  0040                     	ds	1
  1892  0041                     EEPROMAdd@found:	
  1893                           
  1894                           ; 2 bytes @ 0x21
  1895  0041                     	ds	2
  1896  0043                     EEPROMAdd@aux:	
  1897                           
  1898                           ; 1 bytes @ 0x23
  1899  0043                     	ds	1
  1900  0044                     EEPROMAdd@empty:	
  1901                           
  1902                           ; 2 bytes @ 0x24
  1903  0044                     	ds	2
  1904  0046                     ??_SIM800Command:	
  1905                           
  1906                           ; 0 bytes @ 0x26
  1907  0046                     	ds	11
  1908  0051                     SIM800Command@add:	
  1909                           
  1910                           ; 1 bytes @ 0x31
  1911  0051                     	ds	1
  1912  0052                     ??_main:	
  1913                           
  1914                           ; 0 bytes @ 0x32
  1915  0052                     	ds	3
  1916                           
  1917                           	psect	maintext
  1918  05D0                     __pmaintext:	
  1919 ;;
  1920 ;;Main: autosize = 0, tempsize = 3, incstack = 0, save=0
  1921 ;;
  1922 ;; *************** function _main *****************
  1923 ;; Defined at:
  1924 ;;		line 15 in file "main.c"
  1925 ;; Parameters:    Size  Location     Type
  1926 ;;		None
  1927 ;; Auto vars:     Size  Location     Type
  1928 ;;		None
  1929 ;; Return value:  Size  Location     Type
  1930 ;;		None               void
  1931 ;; Registers used:
  1932 ;;		wreg, fsr0l, fsr0h, fsr1l, fsr1h, status,2, status,0, pclath, cstack
  1933 ;; Tracked objects:
  1934 ;;		On entry : 17F/0
  1935 ;;		On exit  : 0/0
  1936 ;;		Unchanged: 0/0
  1937 ;; Data sizes:     COMMON   BANK0   BANK1   BANK2
  1938 ;;      Params:         0       0       0       0
  1939 ;;      Locals:         0       0       0       0
  1940 ;;      Temps:          0       3       0       0
  1941 ;;      Totals:         0       3       0       0
  1942 ;;Total ram usage:        3 bytes
  1943 ;; Hardware stack levels required when called:    7
  1944 ;; This function calls:
  1945 ;;		_EEPROMSearchNumber
  1946 ;;		_EEPROMUpdatePassword
  1947 ;;		_GPIOBlueLedBlink
  1948 ;;		_GPIOPortInit
  1949 ;;		_GPIORedLedBlink
  1950 ;;		_SIM800Command
  1951 ;;		_SIM800DeleteSms
  1952 ;;		_SIM800LClear
  1953 ;;		_SIM800ReadSms
  1954 ;;		_SIM800SendSms
  1955 ;;		_SIM800init
  1956 ;;		_SYSTEMInit
  1957 ;;		_USARTInit
  1958 ;;		_USARTWriteLine
  1959 ;; This function is called by:
  1960 ;;		Startup code after reset
  1961 ;; This function uses a non-reentrant model
  1962 ;;
  1963                           
  1964                           
  1965                           ;psect for function _main
  1966  05D0                     _main:	
  1967                           
  1968                           ;main.c: 17: SYSTEMInit(8);
  1969                           
  1970                           ;incstack = 0
  1971                           ; Regs used in _main: [wreg-fsr1h+status,2+status,0+pclath+cstack]
  1972  05D0  3008               	movlw	8
  1973  05D1  318B  237F  3185   	fcall	_SYSTEMInit
  1974                           
  1975                           ;main.c: 18: USARTInit(115);
  1976  05D4  3073               	movlw	115
  1977  05D5  0020               	movlb	0	; select bank0
  1978  05D6  00A5               	movwf	USARTInit@baud_rate
  1979  05D7  3000               	movlw	0
  1980  05D8  00A6               	movwf	USARTInit@baud_rate+1
  1981  05D9  318D  2588  3185   	fcall	_USARTInit
  1982                           
  1983                           ;main.c: 19: GPIOPortInit();
  1984  05DC  318B  2327  3185   	fcall	_GPIOPortInit
  1985                           
  1986                           ;main.c: 21: SIM800init();
  1987  05DF  318F  2791  3185   	fcall	_SIM800init
  1988                           
  1989                           ;main.c: 22: EEPROMUpdatePassword("1234");
  1990  05E2  30C2               	movlw	low (STR_17| (0+32768))
  1991  05E3  0020               	movlb	0	; select bank0
  1992  05E4  00AF               	movwf	EEPROMUpdatePassword@pass
  1993  05E5  3085               	movlw	high (STR_17| (0+32768))
  1994  05E6  00B0               	movwf	EEPROMUpdatePassword@pass+1
  1995  05E7  3187  271B  3185   	fcall	_EEPROMUpdatePassword
  1996                           
  1997                           ;main.c: 23: LATCbits.LATC1=0;
  1998  05EA  0022               	movlb	2	; select bank2
  1999  05EB  108E               	bcf	14,1	;volatile
  2000                           
  2001                           ;main.c: 24: LATCbits.LATC0=0;
  2002  05EC  100E               	bcf	14,0	;volatile
  2003                           
  2004                           ;main.c: 25: LATCbits.LATC2=0;
  2005  05ED  110E               	bcf	14,2	;volatile
  2006                           
  2007                           ;main.c: 27: (GIE = 1);
  2008  05EE  178B               	bsf	11,7	;volatile
  2009                           
  2010                           ;main.c: 28: RCSTAbits.CREN=1;
  2011  05EF  0023               	movlb	3	; select bank3
  2012  05F0  161D               	bsf	29,4	;volatile
  2013                           
  2014                           ;main.c: 30: SIM800SendSms("6141654818", "System enabled");
  2015  05F1  307B               	movlw	low (STR_19| (0+32768))
  2016  05F2  0020               	movlb	0	; select bank0
  2017  05F3  00AA               	movwf	SIM800SendSms@nmbr
  2018  05F4  3085               	movlw	high (STR_19| (0+32768))
  2019  05F5  00AB               	movwf	SIM800SendSms@nmbr+1
  2020  05F6  3052               	movlw	low (STR_20| (0+32768))
  2021  05F7  00AC               	movwf	SIM800SendSms@msg
  2022  05F8  3085               	movlw	high (STR_20| (0+32768))
  2023  05F9  00AD               	movwf	SIM800SendSms@msg+1
  2024  05FA  318F  2728  3185   	fcall	_SIM800SendSms
  2025                           
  2026                           ;main.c: 32: {
  2027                           ;main.c: 33: switch(task)
  2028                           
  2029                           ;main.c: 31: while(1)
  2030  05FD  2E83               	goto	l2885
  2031  05FE                     l451:	
  2032                           ;main.c: 34: {
  2033                           ;main.c: 35: case 0:
  2034                           
  2035                           
  2036                           ;main.c: 36: if(RCSTAbits.OERR==1) {CREN=0;_delay((unsigned long)((200)*(8000000/4000000
      +                          .0)));RCSTAbits.CREN=1; }
  2037  05FE  0023               	movlb	3	; select bank3
  2038  05FF  1C9D               	btfss	29,1	;volatile
  2039  0600  2E09               	goto	l2847
  2040  0601  121D               	bcf	29,4	;volatile
  2041  0602  3085               	movlw	133
  2042  0603  0020               	movlb	0	; select bank0
  2043  0604  00D2               	movwf	??_main
  2044  0605                     u2787:	
  2045  0605  0BD2               	decfsz	??_main,f
  2046  0606  2E05               	goto	u2787
  2047  0607  0023               	movlb	3	; select bank3
  2048  0608  161D               	bsf	29,4	;volatile
  2049  0609                     l2847:	
  2050                           
  2051                           ;main.c: 37: USARTWriteLine("AT+CSQ\r\n");
  2052  0609  3090               	movlw	low (STR_21| (0+32768))
  2053  060A  0020               	movlb	0	; select bank0
  2054  060B  00A8               	movwf	USARTWriteLine@str
  2055  060C  3085               	movlw	high (STR_21| (0+32768))
  2056  060D  00A9               	movwf	USARTWriteLine@str+1
  2057  060E  3184  24EE  3185   	fcall	_USARTWriteLine
  2058                           
  2059                           ;main.c: 38: _delay((unsigned long)((2000)*(8000000/4000.0)));
  2060  0611  3015               	movlw	21
  2061  0612  0020               	movlb	0	; select bank0
  2062  0613  00D4               	movwf	??_main+2
  2063  0614  304B               	movlw	75
  2064  0615  00D3               	movwf	??_main+1
  2065  0616  30D1               	movlw	209
  2066  0617  00D2               	movwf	??_main
  2067  0618                     u2797:	
  2068  0618  0BD2               	decfsz	??_main,f
  2069  0619  2E18               	goto	u2797
  2070  061A  0BD3               	decfsz	??_main+1,f
  2071  061B  2E18               	goto	u2797
  2072  061C  0BD4               	decfsz	??_main+2,f
  2073  061D  2E18               	goto	u2797
  2074  061E  0000               	nop
  2075                           
  2076                           ;main.c: 39: break;
  2077  061F  2E83               	goto	l2885
  2078  0620                     l2851:	
  2079                           ;main.c: 40: case 1:
  2080                           
  2081                           
  2082                           ;main.c: 41: USARTWriteLine("ATH\r\n");
  2083  0620  30B2               	movlw	low (STR_22| (0+32768))
  2084  0621  0020               	movlb	0	; select bank0
  2085  0622  00A8               	movwf	USARTWriteLine@str
  2086  0623  3085               	movlw	high (STR_22| (0+32768))
  2087  0624  00A9               	movwf	USARTWriteLine@str+1
  2088  0625  3184  24EE  3185   	fcall	_USARTWriteLine
  2089                           
  2090                           ;main.c: 42: if(EEPROMSearchNumber(SIM800L.cell,SIM800L.cell_lenght))
  2091  0628  307C               	movlw	124
  2092  0629  0020               	movlb	0	; select bank0
  2093  062A  00B0               	movwf	EEPROMSearchNumber@nmbr
  2094  062B  3020               	movlw	32
  2095  062C  00B1               	movwf	EEPROMSearchNumber@nmbr+1
  2096  062D  3078               	movlw	120
  2097  062E  0086               	movwf	6
  2098  062F  3020               	movlw	32
  2099  0630  0087               	movwf	7
  2100  0631  3153               	addfsr 1,19
  2101  0632  0801               	movf	1,w
  2102  0633  00D2               	movwf	??_main
  2103  0634  0852               	movf	??_main,w
  2104  0635  00B2               	movwf	EEPROMSearchNumber@nmbrLenght
  2105  0636  3186  2693  3185   	fcall	_EEPROMSearchNumber
  2106  0639  0020               	movlb	0	; select bank0
  2107  063A  0831               	movf	?_EEPROMSearchNumber+1,w
  2108  063B  0430               	iorwf	?_EEPROMSearchNumber,w
  2109  063C  1903               	skipnz
  2110  063D  2E51               	goto	l2861
  2111                           
  2112                           ;main.c: 43: {
  2113                           ;main.c: 44: LATAbits.LATA4=1;
  2114  063E  0022               	movlb	2	; select bank2
  2115  063F  160C               	bsf	12,4	;volatile
  2116                           
  2117                           ;main.c: 45: _delay((unsigned long)((1000)*(8000000/4000.0)));
  2118  0640  300B               	movlw	11
  2119  0641  0020               	movlb	0	; select bank0
  2120  0642  00D4               	movwf	??_main+2
  2121  0643  3026               	movlw	38
  2122  0644  00D3               	movwf	??_main+1
  2123  0645  3066               	movlw	102
  2124  0646  00D2               	movwf	??_main
  2125  0647                     u2807:	
  2126  0647  0BD2               	decfsz	??_main,f
  2127  0648  2E47               	goto	u2807
  2128  0649  0BD3               	decfsz	??_main+1,f
  2129  064A  2E47               	goto	u2807
  2130  064B  0BD4               	decfsz	??_main+2,f
  2131  064C  2E47               	goto	u2807
  2132  064D  3200               	nop2
  2133                           
  2134                           ;main.c: 46: LATAbits.LATA4=0;
  2135  064E  0022               	movlb	2	; select bank2
  2136  064F  120C               	bcf	12,4	;volatile
  2137                           
  2138                           ;main.c: 47: }
  2139  0650  2E55               	goto	l2863
  2140  0651                     l2861:	
  2141                           
  2142                           ;main.c: 48: else
  2143                           ;main.c: 49: {
  2144                           ;main.c: 50: GPIORedLedBlink(5);
  2145  0651  3005               	movlw	5
  2146  0652  318C  2438  3185   	fcall	_GPIORedLedBlink
  2147  0655                     l2863:	
  2148                           
  2149                           ;main.c: 51: }
  2150                           ;main.c: 52: SIM800LClear();
  2151  0655  3187  2799  3185   	fcall	_SIM800LClear
  2152  0658  2E81               	goto	l2881
  2153  0659                     l2867:	
  2154                           ;main.c: 55: case 2:
  2155                           
  2156                           ;main.c: 54: break;
  2157                           
  2158                           ;main.c: 53: task=0;
  2159                           
  2160                           
  2161                           ;main.c: 56: GPIOBlueLedBlink(5);
  2162  0659  3005               	movlw	5
  2163  065A  318C  240A  3185   	fcall	_GPIOBlueLedBlink
  2164                           
  2165                           ;main.c: 57: SIM800ReadSms(SIM800L.smsmem);
  2166  065D  308D               	movlw	141
  2167  065E  0020               	movlb	0	; select bank0
  2168  065F  00AA               	movwf	SIM800ReadSms@mem
  2169  0660  3020               	movlw	32
  2170  0661  00AB               	movwf	SIM800ReadSms@mem+1
  2171  0662  318D  25D2  3185   	fcall	_SIM800ReadSms
  2172                           
  2173                           ;main.c: 59: task=3;
  2174  0665  3003               	movlw	3
  2175  0666  0020               	movlb	0	; select bank0
  2176  0667  00D2               	movwf	??_main
  2177  0668  0852               	movf	??_main,w
  2178  0669  00E0               	movwf	_task
  2179                           
  2180                           ;main.c: 60: break;
  2181  066A  2E83               	goto	l2885
  2182  066B                     l458:	
  2183                           ;main.c: 61: case 3:
  2184                           
  2185                           
  2186                           ;main.c: 62: LATCbits.LATC1=1;
  2187  066B  0022               	movlb	2	; select bank2
  2188  066C  148E               	bsf	14,1	;volatile
  2189                           
  2190                           ;main.c: 63: SIM800Command();
  2191  066D  3182  22C8  3185   	fcall	_SIM800Command
  2192                           
  2193                           ;main.c: 64: SIM800LClear();
  2194  0670  3187  2799  3185   	fcall	_SIM800LClear
  2195                           
  2196                           ;main.c: 65: SIM800DeleteSms("1", "4");
  2197  0673  30CE               	movlw	low (STR_23| (0+32768))
  2198  0674  0020               	movlb	0	; select bank0
  2199  0675  00AA               	movwf	SIM800DeleteSms@index
  2200  0676  3085               	movlw	high (STR_23| (0+32768))
  2201  0677  00AB               	movwf	SIM800DeleteSms@index+1
  2202  0678  30C5               	movlw	low ((STR_17+3)| (0+32768))
  2203  0679  00AC               	movwf	SIM800DeleteSms@flag
  2204  067A  3085               	movlw	high ((STR_17+3)| (0+32768))
  2205  067B  00AD               	movwf	SIM800DeleteSms@flag+1
  2206  067C  318D  2543  3185   	fcall	_SIM800DeleteSms
  2207                           
  2208                           ;main.c: 66: LATCbits.LATC1=0;
  2209  067F  0022               	movlb	2	; select bank2
  2210  0680  108E               	bcf	14,1	;volatile
  2211  0681                     l2881:	
  2212                           
  2213                           ;main.c: 67: task=0;
  2214  0681  0020               	movlb	0	; select bank0
  2215  0682  01E0               	clrf	_task
  2216  0683                     l2885:	
  2217                           ;main.c: 71: }
  2218                           
  2219                           ;main.c: 70: break;
  2220                           
  2221                           ;main.c: 69: default:
  2222                           
  2223                           ;main.c: 68: break;
  2224                           
  2225  0683  0020               	movlb	0	; select bank0
  2226  0684  0860               	movf	_task,w
  2227                           
  2228                           ; Switch size 1, requested type "space"
  2229                           ; Number of cases is 4, Range of values is 0 to 3
  2230                           ; switch strategies available:
  2231                           ; Name         Instructions Cycles
  2232                           ; simple_byte           13     7 (average)
  2233                           ; direct_byte           14     6 (fixed)
  2234                           ; jumptable            260     6 (fixed)
  2235                           ;	Chosen strategy is simple_byte
  2236  0685  3A00               	xorlw	0	; case 0
  2237  0686  1903               	skipnz
  2238  0687  2DFE               	goto	l451
  2239  0688  3A01               	xorlw	1	; case 1
  2240  0689  1903               	skipnz
  2241  068A  2E20               	goto	l2851
  2242  068B  3A03               	xorlw	3	; case 2
  2243  068C  1903               	skipnz
  2244  068D  2E59               	goto	l2867
  2245  068E  3A01               	xorlw	1	; case 3
  2246  068F  1903               	skipnz
  2247  0690  2E6B               	goto	l458
  2248  0691  2E83               	goto	l2885
  2249  0692  2E83               	goto	l2885
  2250  0693                     __end_of_main:	
  2251                           
  2252                           	psect	text1
  2253  0D88                     __ptext1:	
  2254 ;; *************** function _USARTInit *****************
  2255 ;; Defined at:
  2256 ;;		line 6 in file "usart.c"
  2257 ;; Parameters:    Size  Location     Type
  2258 ;;  baud_rate       2    5[BANK0 ] unsigned int 
  2259 ;; Auto vars:     Size  Location     Type
  2260 ;;		None
  2261 ;; Return value:  Size  Location     Type
  2262 ;;		None               void
  2263 ;; Registers used:
  2264 ;;		wreg, fsr0l, fsr0h, status,2, status,0
  2265 ;; Tracked objects:
  2266 ;;		On entry : 0/0
  2267 ;;		On exit  : 0/0
  2268 ;;		Unchanged: 0/0
  2269 ;; Data sizes:     COMMON   BANK0   BANK1   BANK2
  2270 ;;      Params:         0       2       0       0
  2271 ;;      Locals:         0       0       0       0
  2272 ;;      Temps:          0       0       0       0
  2273 ;;      Totals:         0       2       0       0
  2274 ;;Total ram usage:        2 bytes
  2275 ;; Hardware stack levels used:    1
  2276 ;; Hardware stack levels required when called:    2
  2277 ;; This function calls:
  2278 ;;		Nothing
  2279 ;; This function is called by:
  2280 ;;		_main
  2281 ;; This function uses a non-reentrant model
  2282 ;;
  2283                           
  2284                           
  2285                           ;psect for function _USARTInit
  2286  0D88                     _USARTInit:	
  2287                           
  2288                           ;usart.c: 9: switch(baud_rate)
  2289                           
  2290                           ;incstack = 0
  2291                           ; Regs used in _USARTInit: [wreg-fsr0h+status,2+status,0]
  2292  0D88  2D95               	goto	l2657
  2293  0D89                     l2645:	
  2294                           ;usart.c: 10: {
  2295                           ;usart.c: 11: case 9600:
  2296                           
  2297                           
  2298                           ;usart.c: 12: SPBRG=51;
  2299  0D89  3033               	movlw	51
  2300  0D8A  2D92               	goto	L4
  2301  0D8B                     l2647:	
  2302                           ;usart.c: 14: case 19200:
  2303                           
  2304                           ;usart.c: 13: break;
  2305                           
  2306                           
  2307                           ;usart.c: 15: SPBRG=64;
  2308  0D8B  3040               	movlw	64
  2309  0D8C  2D92               	goto	L4
  2310  0D8D                     l2649:	
  2311                           ;usart.c: 17: case 28800:
  2312                           
  2313                           ;usart.c: 16: break;
  2314                           
  2315                           
  2316                           ;usart.c: 18: SPBRG=42;
  2317  0D8D  302A               	movlw	42
  2318  0D8E  2D92               	goto	L4
  2319  0D8F                     l2651:	
  2320                           ;usart.c: 20: case 33600:
  2321                           
  2322                           ;usart.c: 19: break;
  2323                           
  2324                           
  2325                           ;usart.c: 21: SPBRG=36;
  2326  0D8F  3024               	movlw	36
  2327  0D90  2D92               	goto	L4
  2328  0D91                     l2653:	
  2329                           ;usart.c: 23: case 115:
  2330                           
  2331                           ;usart.c: 22: break;
  2332                           
  2333                           
  2334                           ;usart.c: 24: SPBRG=16;
  2335  0D91  3010               	movlw	16
  2336  0D92                     L4:	
  2337  0D92  0023               	movlb	3	; select bank3
  2338  0D93  009B               	movwf	27	;volatile
  2339                           
  2340                           ;usart.c: 26: }
  2341                           
  2342                           ;usart.c: 25: break;
  2343  0D94  2DC0               	goto	l316
  2344  0D95                     l2657:	
  2345                           
  2346                           ; Switch on 2 bytes has been partitioned into a top level switch of size 1, and 5 sub-sw
      +                          itches
  2347                           ; Switch size 1, requested type "space"
  2348                           ; Number of cases is 5, Range of values is 0 to 131
  2349                           ; switch strategies available:
  2350                           ; Name         Instructions Cycles
  2351                           ; simple_byte           16     9 (average)
  2352                           ; jumptable            260     6 (fixed)
  2353                           ;	Chosen strategy is simple_byte
  2354  0D95  0020               	movlb	0	; select bank0
  2355  0D96  0826               	movf	USARTInit@baud_rate+1,w
  2356  0D97  3A00               	xorlw	0	; case 0
  2357  0D98  1903               	skipnz
  2358  0D99  2DA7               	goto	l3069
  2359  0D9A  3A25               	xorlw	37	; case 37
  2360  0D9B  1903               	skipnz
  2361  0D9C  2DAC               	goto	l3071
  2362  0D9D  3A6E               	xorlw	110	; case 75
  2363  0D9E  1903               	skipnz
  2364  0D9F  2DB1               	goto	l3073
  2365  0DA0  3A3B               	xorlw	59	; case 112
  2366  0DA1  1903               	skipnz
  2367  0DA2  2DB6               	goto	l3075
  2368  0DA3  3AF3               	xorlw	243	; case 131
  2369  0DA4  1903               	skipnz
  2370  0DA5  2DBB               	goto	l3077
  2371  0DA6  2DC0               	goto	l316
  2372  0DA7                     l3069:	
  2373                           
  2374                           ; Switch size 1, requested type "space"
  2375                           ; Number of cases is 1, Range of values is 115 to 115
  2376                           ; switch strategies available:
  2377                           ; Name         Instructions Cycles
  2378                           ; simple_byte            4     3 (average)
  2379                           ; direct_byte           11     9 (fixed)
  2380                           ; jumptable            263     9 (fixed)
  2381                           ;	Chosen strategy is simple_byte
  2382  0DA7  0825               	movf	USARTInit@baud_rate,w
  2383  0DA8  3A73               	xorlw	115	; case 115
  2384  0DA9  1903               	skipnz
  2385  0DAA  2D91               	goto	l2653
  2386  0DAB  2DC0               	goto	l316
  2387  0DAC                     l3071:	
  2388                           
  2389                           ; Switch size 1, requested type "space"
  2390                           ; Number of cases is 1, Range of values is 128 to 128
  2391                           ; switch strategies available:
  2392                           ; Name         Instructions Cycles
  2393                           ; simple_byte            4     3 (average)
  2394                           ; direct_byte           11     9 (fixed)
  2395                           ; jumptable            263     9 (fixed)
  2396                           ;	Chosen strategy is simple_byte
  2397  0DAC  0825               	movf	USARTInit@baud_rate,w
  2398  0DAD  3A80               	xorlw	128	; case 128
  2399  0DAE  1903               	skipnz
  2400  0DAF  2D89               	goto	l2645
  2401  0DB0  2DC0               	goto	l316
  2402  0DB1                     l3073:	
  2403                           
  2404                           ; Switch size 1, requested type "space"
  2405                           ; Number of cases is 1, Range of values is 0 to 0
  2406                           ; switch strategies available:
  2407                           ; Name         Instructions Cycles
  2408                           ; simple_byte            4     3 (average)
  2409                           ; direct_byte            8     6 (fixed)
  2410                           ; jumptable            260     6 (fixed)
  2411                           ;	Chosen strategy is simple_byte
  2412  0DB1  0825               	movf	USARTInit@baud_rate,w
  2413  0DB2  3A00               	xorlw	0	; case 0
  2414  0DB3  1903               	skipnz
  2415  0DB4  2D8B               	goto	l2647
  2416  0DB5  2DC0               	goto	l316
  2417  0DB6                     l3075:	
  2418                           
  2419                           ; Switch size 1, requested type "space"
  2420                           ; Number of cases is 1, Range of values is 128 to 128
  2421                           ; switch strategies available:
  2422                           ; Name         Instructions Cycles
  2423                           ; simple_byte            4     3 (average)
  2424                           ; direct_byte           11     9 (fixed)
  2425                           ; jumptable            263     9 (fixed)
  2426                           ;	Chosen strategy is simple_byte
  2427  0DB6  0825               	movf	USARTInit@baud_rate,w
  2428  0DB7  3A80               	xorlw	128	; case 128
  2429  0DB8  1903               	skipnz
  2430  0DB9  2D8D               	goto	l2649
  2431  0DBA  2DC0               	goto	l316
  2432  0DBB                     l3077:	
  2433                           
  2434                           ; Switch size 1, requested type "space"
  2435                           ; Number of cases is 1, Range of values is 64 to 64
  2436                           ; switch strategies available:
  2437                           ; Name         Instructions Cycles
  2438                           ; simple_byte            4     3 (average)
  2439                           ; direct_byte           11     9 (fixed)
  2440                           ; jumptable            263     9 (fixed)
  2441                           ;	Chosen strategy is simple_byte
  2442  0DBB  0825               	movf	USARTInit@baud_rate,w
  2443  0DBC  3A40               	xorlw	64	; case 64
  2444  0DBD  1903               	skipnz
  2445  0DBE  2D8F               	goto	l2651
  2446  0DBF  2DC0               	goto	l316
  2447  0DC0                     l316:	
  2448                           
  2449                           ;usart.c: 28: APFCON0bits.RXDTSEL=1;
  2450  0DC0  0022               	movlb	2	; select bank2
  2451  0DC1  179D               	bsf	29,7	;volatile
  2452                           
  2453                           ;usart.c: 29: APFCON0bits.TXCKSEL=1;
  2454  0DC2  151D               	bsf	29,2	;volatile
  2455                           
  2456                           ;usart.c: 30: BAUDCONbits.BRG16=1;
  2457  0DC3  0023               	movlb	3	; select bank3
  2458  0DC4  159F               	bsf	31,3	;volatile
  2459                           
  2460                           ;usart.c: 32: TXSTAbits.TX9=0;
  2461  0DC5  131E               	bcf	30,6	;volatile
  2462                           
  2463                           ;usart.c: 33: TXSTAbits.TXEN=1;
  2464  0DC6  169E               	bsf	30,5	;volatile
  2465                           
  2466                           ;usart.c: 34: TXSTAbits.SYNC=0;
  2467  0DC7  121E               	bcf	30,4	;volatile
  2468                           
  2469                           ;usart.c: 35: TXSTAbits.BRGH=1;
  2470  0DC8  151E               	bsf	30,2	;volatile
  2471                           
  2472                           ;usart.c: 38: RCSTAbits.SPEN=1;
  2473  0DC9  179D               	bsf	29,7	;volatile
  2474                           
  2475                           ;usart.c: 39: RCSTAbits.RX9=0;
  2476  0DCA  131D               	bcf	29,6	;volatile
  2477                           
  2478                           ;usart.c: 40: RCSTAbits.CREN=1;
  2479  0DCB  161D               	bsf	29,4	;volatile
  2480                           
  2481                           ;usart.c: 41: RCSTAbits.ADDEN=0;
  2482  0DCC  119D               	bcf	29,3	;volatile
  2483                           
  2484                           ;usart.c: 44: RCIE=1;
  2485  0DCD  0021               	movlb	1	; select bank1
  2486  0DCE  1691               	bsf	17,5	;volatile
  2487                           
  2488                           ;usart.c: 45: PEIE=1;
  2489  0DCF  170B               	bsf	11,6	;volatile
  2490                           
  2491                           ;usart.c: 47: (GIE = 1);
  2492  0DD0  178B               	bsf	11,7	;volatile
  2493  0DD1  0008               	return
  2494  0DD2                     __end_of_USARTInit:	
  2495                           
  2496                           	psect	text2
  2497  0B7F                     __ptext2:	
  2498 ;; *************** function _SYSTEMInit *****************
  2499 ;; Defined at:
  2500 ;;		line 5 in file "system.c"
  2501 ;; Parameters:    Size  Location     Type
  2502 ;;  freq            1    wreg     unsigned char 
  2503 ;; Auto vars:     Size  Location     Type
  2504 ;;  freq            1    5[BANK0 ] unsigned char 
  2505 ;; Return value:  Size  Location     Type
  2506 ;;		None               void
  2507 ;; Registers used:
  2508 ;;		wreg, fsr0l, fsr0h, status,2, status,0
  2509 ;; Tracked objects:
  2510 ;;		On entry : 0/0
  2511 ;;		On exit  : 0/0
  2512 ;;		Unchanged: 0/0
  2513 ;; Data sizes:     COMMON   BANK0   BANK1   BANK2
  2514 ;;      Params:         0       0       0       0
  2515 ;;      Locals:         0       1       0       0
  2516 ;;      Temps:          0       0       0       0
  2517 ;;      Totals:         0       1       0       0
  2518 ;;Total ram usage:        1 bytes
  2519 ;; Hardware stack levels used:    1
  2520 ;; Hardware stack levels required when called:    2
  2521 ;; This function calls:
  2522 ;;		Nothing
  2523 ;; This function is called by:
  2524 ;;		_main
  2525 ;; This function uses a non-reentrant model
  2526 ;;
  2527                           
  2528                           
  2529                           ;psect for function _SYSTEMInit
  2530  0B7F                     _SYSTEMInit:	
  2531                           
  2532                           ;incstack = 0
  2533                           ; Regs used in _SYSTEMInit: [wreg-fsr0h+status,2+status,0]
  2534                           ;SYSTEMInit@freq stored from wreg
  2535  0B7F  0020               	movlb	0	; select bank0
  2536  0B80  00A5               	movwf	SYSTEMInit@freq
  2537                           
  2538                           ;system.c: 7: switch(freq)
  2539  0B81  2B8E               	goto	l2641
  2540  0B82                     l2633:	
  2541                           ;system.c: 8: {
  2542                           ;system.c: 9: case 4:
  2543                           
  2544                           
  2545                           ;system.c: 10: OSCCON=0b01101010;
  2546  0B82  306A               	movlw	106
  2547  0B83  0021               	movlb	1	; select bank1
  2548  0B84  0099               	movwf	25	;volatile
  2549                           
  2550                           ;system.c: 11: break;
  2551  0B85  0008               	return
  2552  0B86                     l2635:	
  2553                           ;system.c: 12: case 8:
  2554                           
  2555                           
  2556                           ;system.c: 13: OSCCON=0b01110010;
  2557  0B86  3072               	movlw	114
  2558  0B87  0021               	movlb	1	; select bank1
  2559  0B88  0099               	movwf	25	;volatile
  2560                           
  2561                           ;system.c: 14: break;
  2562  0B89  0008               	return
  2563  0B8A                     l2637:	
  2564                           ;system.c: 15: case 16:
  2565                           
  2566                           
  2567                           ;system.c: 16: OSCCON=0b01111010;
  2568  0B8A  307A               	movlw	122
  2569  0B8B  0021               	movlb	1	; select bank1
  2570  0B8C  0099               	movwf	25	;volatile
  2571                           
  2572                           ;system.c: 20: }
  2573                           
  2574                           ;system.c: 19: break;
  2575                           
  2576                           ;system.c: 18: default:
  2577                           
  2578                           ;system.c: 17: break;
  2579  0B8D  0008               	return
  2580  0B8E                     l2641:	
  2581  0B8E  0020               	movlb	0	; select bank0
  2582  0B8F  0825               	movf	SYSTEMInit@freq,w
  2583                           
  2584                           ; Switch size 1, requested type "space"
  2585                           ; Number of cases is 3, Range of values is 4 to 16
  2586                           ; switch strategies available:
  2587                           ; Name         Instructions Cycles
  2588                           ; simple_byte           10     6 (average)
  2589                           ; direct_byte           35     9 (fixed)
  2590                           ; jumptable            263     9 (fixed)
  2591                           ;	Chosen strategy is simple_byte
  2592  0B90  3A04               	xorlw	4	; case 4
  2593  0B91  1903               	skipnz
  2594  0B92  2B82               	goto	l2633
  2595  0B93  3A0C               	xorlw	12	; case 8
  2596  0B94  1903               	skipnz
  2597  0B95  2B86               	goto	l2635
  2598  0B96  3A18               	xorlw	24	; case 16
  2599  0B97  1903               	skipnz
  2600  0B98  2B8A               	goto	l2637
  2601  0B99  2B9A               	goto	l277
  2602  0B9A                     l277:	
  2603  0B9A  0008               	return
  2604  0B9B                     __end_of_SYSTEMInit:	
  2605                           
  2606                           	psect	text3
  2607  0F91                     __ptext3:	
  2608 ;; *************** function _SIM800init *****************
  2609 ;; Defined at:
  2610 ;;		line 7 in file "sim800l.c"
  2611 ;; Parameters:    Size  Location     Type
  2612 ;;		None
  2613 ;; Auto vars:     Size  Location     Type
  2614 ;;		None
  2615 ;; Return value:  Size  Location     Type
  2616 ;;                  1    wreg      unsigned char 
  2617 ;; Registers used:
  2618 ;;		wreg, fsr0l, fsr0h, status,2, status,0, pclath, cstack
  2619 ;; Tracked objects:
  2620 ;;		On entry : 0/0
  2621 ;;		On exit  : 0/0
  2622 ;;		Unchanged: 0/0
  2623 ;; Data sizes:     COMMON   BANK0   BANK1   BANK2
  2624 ;;      Params:         0       0       0       0
  2625 ;;      Locals:         0       0       0       0
  2626 ;;      Temps:          0       3       0       0
  2627 ;;      Totals:         0       3       0       0
  2628 ;;Total ram usage:        3 bytes
  2629 ;; Hardware stack levels used:    1
  2630 ;; Hardware stack levels required when called:    5
  2631 ;; This function calls:
  2632 ;;		_USARTWriteLine
  2633 ;; This function is called by:
  2634 ;;		_main
  2635 ;; This function uses a non-reentrant model
  2636 ;;
  2637                           
  2638                           
  2639                           ;psect for function _SIM800init
  2640  0F91                     _SIM800init:	
  2641                           
  2642                           ;sim800l.c: 9: LATCbits.LATC6=1;
  2643                           
  2644                           ;incstack = 0
  2645                           ; Regs used in _SIM800init: [wreg-fsr0h+status,2+status,0+pclath+cstack]
  2646  0F91  0022               	movlb	2	; select bank2
  2647  0F92  170E               	bsf	14,6	;volatile
  2648                           
  2649                           ;sim800l.c: 10: _delay((unsigned long)((10)*(8000000/4000.0)));
  2650  0F93  301A               	movlw	26
  2651  0F94  0020               	movlb	0	; select bank0
  2652  0F95  00AB               	movwf	??_SIM800init+1
  2653  0F96  30F8               	movlw	248
  2654  0F97  00AA               	movwf	??_SIM800init
  2655  0F98                     u2817:	
  2656  0F98  0BAA               	decfsz	??_SIM800init,f
  2657  0F99  2F98               	goto	u2817
  2658  0F9A  0BAB               	decfsz	??_SIM800init+1,f
  2659  0F9B  2F98               	goto	u2817
  2660  0F9C  0000               	nop
  2661                           
  2662                           ;sim800l.c: 11: LATCbits.LATC6=0;
  2663  0F9D  0022               	movlb	2	; select bank2
  2664  0F9E  130E               	bcf	14,6	;volatile
  2665                           
  2666                           ;sim800l.c: 12: _delay((unsigned long)((500)*(8000000/4000.0)));
  2667  0F9F  3006               	movlw	6
  2668  0FA0  0020               	movlb	0	; select bank0
  2669  0FA1  00AC               	movwf	??_SIM800init+2
  2670  0FA2  3013               	movlw	19
  2671  0FA3  00AB               	movwf	??_SIM800init+1
  2672  0FA4  30B1               	movlw	177
  2673  0FA5  00AA               	movwf	??_SIM800init
  2674  0FA6                     u2827:	
  2675  0FA6  0BAA               	decfsz	??_SIM800init,f
  2676  0FA7  2FA6               	goto	u2827
  2677  0FA8  0BAB               	decfsz	??_SIM800init+1,f
  2678  0FA9  2FA6               	goto	u2827
  2679  0FAA  0BAC               	decfsz	??_SIM800init+2,f
  2680  0FAB  2FA6               	goto	u2827
  2681  0FAC  3200               	nop2
  2682                           
  2683                           ;sim800l.c: 13: LATCbits.LATC6=1;
  2684  0FAD  0022               	movlb	2	; select bank2
  2685  0FAE  170E               	bsf	14,6	;volatile
  2686                           
  2687                           ;sim800l.c: 14: _delay((unsigned long)((10000)*(8000000/4000.0)));
  2688  0FAF  3066               	movlw	102
  2689  0FB0  0020               	movlb	0	; select bank0
  2690  0FB1  00AC               	movwf	??_SIM800init+2
  2691  0FB2  3077               	movlw	119
  2692  0FB3  00AB               	movwf	??_SIM800init+1
  2693  0FB4  3024               	movlw	36
  2694  0FB5  00AA               	movwf	??_SIM800init
  2695  0FB6                     u2837:	
  2696  0FB6  0BAA               	decfsz	??_SIM800init,f
  2697  0FB7  2FB6               	goto	u2837
  2698  0FB8  0BAB               	decfsz	??_SIM800init+1,f
  2699  0FB9  2FB6               	goto	u2837
  2700  0FBA  0BAC               	decfsz	??_SIM800init+2,f
  2701  0FBB  2FB6               	goto	u2837
  2702  0FBC  0000               	nop
  2703                           
  2704                           ;sim800l.c: 15: USARTWriteLine("AT\r\n");
  2705  0FBD  30B8               	movlw	low (STR_2| (0+32768))
  2706  0FBE  0020               	movlb	0	; select bank0
  2707  0FBF  00A8               	movwf	USARTWriteLine@str
  2708  0FC0  3085               	movlw	high (STR_2| (0+32768))
  2709  0FC1  00A9               	movwf	USARTWriteLine@str+1
  2710  0FC2  3184  24EE  318F   	fcall	_USARTWriteLine
  2711                           
  2712                           ;sim800l.c: 16: _delay((unsigned long)((2000)*(8000000/4000.0)));
  2713  0FC5  3015               	movlw	21
  2714  0FC6  0020               	movlb	0	; select bank0
  2715  0FC7  00AC               	movwf	??_SIM800init+2
  2716  0FC8  304B               	movlw	75
  2717  0FC9  00AB               	movwf	??_SIM800init+1
  2718  0FCA  30D1               	movlw	209
  2719  0FCB  00AA               	movwf	??_SIM800init
  2720  0FCC                     u2847:	
  2721  0FCC  0BAA               	decfsz	??_SIM800init,f
  2722  0FCD  2FCC               	goto	u2847
  2723  0FCE  0BAB               	decfsz	??_SIM800init+1,f
  2724  0FCF  2FCC               	goto	u2847
  2725  0FD0  0BAC               	decfsz	??_SIM800init+2,f
  2726  0FD1  2FCC               	goto	u2847
  2727  0FD2  0000               	nop
  2728                           
  2729                           ;sim800l.c: 17: USARTWriteLine("ATE0\r\n");
  2730  0FD3  30AB               	movlw	low (STR_3| (0+32768))
  2731  0FD4  0020               	movlb	0	; select bank0
  2732  0FD5  00A8               	movwf	USARTWriteLine@str
  2733  0FD6  3085               	movlw	high (STR_3| (0+32768))
  2734  0FD7  00A9               	movwf	USARTWriteLine@str+1
  2735  0FD8  3184  24EE  318F   	fcall	_USARTWriteLine
  2736                           
  2737                           ;sim800l.c: 18: _delay((unsigned long)((2000)*(8000000/4000.0)));
  2738  0FDB  3015               	movlw	21
  2739  0FDC  0020               	movlb	0	; select bank0
  2740  0FDD  00AC               	movwf	??_SIM800init+2
  2741  0FDE  304B               	movlw	75
  2742  0FDF  00AB               	movwf	??_SIM800init+1
  2743  0FE0  30D1               	movlw	209
  2744  0FE1  00AA               	movwf	??_SIM800init
  2745  0FE2                     u2857:	
  2746  0FE2  0BAA               	decfsz	??_SIM800init,f
  2747  0FE3  2FE2               	goto	u2857
  2748  0FE4  0BAB               	decfsz	??_SIM800init+1,f
  2749  0FE5  2FE2               	goto	u2857
  2750  0FE6  0BAC               	decfsz	??_SIM800init+2,f
  2751  0FE7  2FE2               	goto	u2857
  2752  0FE8  0000               	nop
  2753                           
  2754                           ;sim800l.c: 19: USARTWriteLine("AT+CLIP=1\r\n");
  2755  0FE9  306F               	movlw	low (STR_4| (0+32768))
  2756  0FEA  0020               	movlb	0	; select bank0
  2757  0FEB  00A8               	movwf	USARTWriteLine@str
  2758  0FEC  3085               	movlw	high (STR_4| (0+32768))
  2759  0FED  00A9               	movwf	USARTWriteLine@str+1
  2760  0FEE  3184  24EE  318F   	fcall	_USARTWriteLine
  2761                           
  2762                           ;sim800l.c: 20: _delay((unsigned long)((2000)*(8000000/4000.0)));
  2763  0FF1  3015               	movlw	21
  2764  0FF2  0020               	movlb	0	; select bank0
  2765  0FF3  00AC               	movwf	??_SIM800init+2
  2766  0FF4  304B               	movlw	75
  2767  0FF5  00AB               	movwf	??_SIM800init+1
  2768  0FF6  30D1               	movlw	209
  2769  0FF7  00AA               	movwf	??_SIM800init
  2770  0FF8                     u2867:	
  2771  0FF8  0BAA               	decfsz	??_SIM800init,f
  2772  0FF9  2FF8               	goto	u2867
  2773  0FFA  0BAB               	decfsz	??_SIM800init+1,f
  2774  0FFB  2FF8               	goto	u2867
  2775  0FFC  0BAC               	decfsz	??_SIM800init+2,f
  2776  0FFD  2FF8               	goto	u2867
  2777  0FFE  0000               	nop
  2778  0FFF  0008               	return
  2779  1000                     __end_of_SIM800init:	
  2780                           ;sim800l.c: 27: return 0;
  2781                           ;	Return value of _SIM800init is never used
  2782                           
  2783                           
  2784                           	psect	text4
  2785  0DD2                     __ptext4:	
  2786 ;; *************** function _SIM800ReadSms *****************
  2787 ;; Defined at:
  2788 ;;		line 52 in file "sim800l.c"
  2789 ;; Parameters:    Size  Location     Type
  2790 ;;  mem             2   10[BANK0 ] PTR const unsigned char 
  2791 ;;		 -> SIM800L.smsmem(5), SIM800L(120), 
  2792 ;; Auto vars:     Size  Location     Type
  2793 ;;		None
  2794 ;; Return value:  Size  Location     Type
  2795 ;;                  1    wreg      unsigned char 
  2796 ;; Registers used:
  2797 ;;		wreg, fsr0l, fsr0h, status,2, status,0, pclath, cstack
  2798 ;; Tracked objects:
  2799 ;;		On entry : 0/0
  2800 ;;		On exit  : 0/0
  2801 ;;		Unchanged: 0/0
  2802 ;; Data sizes:     COMMON   BANK0   BANK1   BANK2
  2803 ;;      Params:         0       2       0       0
  2804 ;;      Locals:         0       0       0       0
  2805 ;;      Temps:          0       3       0       0
  2806 ;;      Totals:         0       5       0       0
  2807 ;;Total ram usage:        5 bytes
  2808 ;; Hardware stack levels used:    1
  2809 ;; Hardware stack levels required when called:    5
  2810 ;; This function calls:
  2811 ;;		_USARTWriteLine
  2812 ;;		_USARTWriteString
  2813 ;; This function is called by:
  2814 ;;		_main
  2815 ;; This function uses a non-reentrant model
  2816 ;;
  2817                           
  2818                           
  2819                           ;psect for function _SIM800ReadSms
  2820  0DD2                     _SIM800ReadSms:	
  2821                           
  2822                           ;sim800l.c: 54: _delay((unsigned long)((2000)*(8000000/4000.0)));
  2823                           
  2824                           ;incstack = 0
  2825                           ; Regs used in _SIM800ReadSms: [wreg-fsr0h+status,2+status,0+pclath+cstack]
  2826  0DD2  3015               	movlw	21
  2827  0DD3  0020               	movlb	0	; select bank0
  2828  0DD4  00AE               	movwf	??_SIM800ReadSms+2
  2829  0DD5  304B               	movlw	75
  2830  0DD6  00AD               	movwf	??_SIM800ReadSms+1
  2831  0DD7  30D1               	movlw	209
  2832  0DD8  00AC               	movwf	??_SIM800ReadSms
  2833  0DD9                     u2877:	
  2834  0DD9  0BAC               	decfsz	??_SIM800ReadSms,f
  2835  0DDA  2DD9               	goto	u2877
  2836  0DDB  0BAD               	decfsz	??_SIM800ReadSms+1,f
  2837  0DDC  2DD9               	goto	u2877
  2838  0DDD  0BAE               	decfsz	??_SIM800ReadSms+2,f
  2839  0DDE  2DD9               	goto	u2877
  2840  0DDF  0000               	nop
  2841                           
  2842                           ;sim800l.c: 55: USARTWriteLine("AT+CMGF = 1\r\n");
  2843  0DE0  3061               	movlw	low (STR_6| (0+32768))
  2844  0DE1  0020               	movlb	0	; select bank0
  2845  0DE2  00A8               	movwf	USARTWriteLine@str
  2846  0DE3  3085               	movlw	high (STR_6| (0+32768))
  2847  0DE4  00A9               	movwf	USARTWriteLine@str+1
  2848  0DE5  3184  24EE  318D   	fcall	_USARTWriteLine
  2849                           
  2850                           ;sim800l.c: 56: _delay((unsigned long)((2000)*(8000000/4000.0)));
  2851  0DE8  3015               	movlw	21
  2852  0DE9  0020               	movlb	0	; select bank0
  2853  0DEA  00AE               	movwf	??_SIM800ReadSms+2
  2854  0DEB  304B               	movlw	75
  2855  0DEC  00AD               	movwf	??_SIM800ReadSms+1
  2856  0DED  30D1               	movlw	209
  2857  0DEE  00AC               	movwf	??_SIM800ReadSms
  2858  0DEF                     u2887:	
  2859  0DEF  0BAC               	decfsz	??_SIM800ReadSms,f
  2860  0DF0  2DEF               	goto	u2887
  2861  0DF1  0BAD               	decfsz	??_SIM800ReadSms+1,f
  2862  0DF2  2DEF               	goto	u2887
  2863  0DF3  0BAE               	decfsz	??_SIM800ReadSms+2,f
  2864  0DF4  2DEF               	goto	u2887
  2865  0DF5  0000               	nop
  2866                           
  2867                           ;sim800l.c: 57: USARTWriteLine("AT+CMGR=");
  2868  0DF6  30A2               	movlw	low (STR_10| (0+32768))
  2869  0DF7  0020               	movlb	0	; select bank0
  2870  0DF8  00A8               	movwf	USARTWriteLine@str
  2871  0DF9  3085               	movlw	high (STR_10| (0+32768))
  2872  0DFA  00A9               	movwf	USARTWriteLine@str+1
  2873  0DFB  3184  24EE  318D   	fcall	_USARTWriteLine
  2874                           
  2875                           ;sim800l.c: 58: USARTWriteString(mem);
  2876  0DFE  0020               	movlb	0	; select bank0
  2877  0DFF  082B               	movf	SIM800ReadSms@mem+1,w
  2878  0E00  01A7               	clrf	USARTWriteString@str+1
  2879  0E01  07A7               	addwf	USARTWriteString@str+1,f
  2880  0E02  082A               	movf	SIM800ReadSms@mem,w
  2881  0E03  01A6               	clrf	USARTWriteString@str
  2882  0E04  07A6               	addwf	USARTWriteString@str,f
  2883  0E05  318B  234B  318D   	fcall	_USARTWriteString
  2884                           
  2885                           ;sim800l.c: 59: USARTWriteString("\r\n");
  2886  0E08  30C8               	movlw	low ((STR_8+1)| (0+32768))
  2887  0E09  0020               	movlb	0	; select bank0
  2888  0E0A  00A6               	movwf	USARTWriteString@str
  2889  0E0B  3085               	movlw	high ((STR_8+1)| (0+32768))
  2890  0E0C  00A7               	movwf	USARTWriteString@str+1
  2891  0E0D  318B  234B  318D   	fcall	_USARTWriteString
  2892                           
  2893                           ;sim800l.c: 60: _delay((unsigned long)((2000)*(8000000/4000.0)));
  2894  0E10  3015               	movlw	21
  2895  0E11  0020               	movlb	0	; select bank0
  2896  0E12  00AE               	movwf	??_SIM800ReadSms+2
  2897  0E13  304B               	movlw	75
  2898  0E14  00AD               	movwf	??_SIM800ReadSms+1
  2899  0E15  30D1               	movlw	209
  2900  0E16  00AC               	movwf	??_SIM800ReadSms
  2901  0E17                     u2897:	
  2902  0E17  0BAC               	decfsz	??_SIM800ReadSms,f
  2903  0E18  2E17               	goto	u2897
  2904  0E19  0BAD               	decfsz	??_SIM800ReadSms+1,f
  2905  0E1A  2E17               	goto	u2897
  2906  0E1B  0BAE               	decfsz	??_SIM800ReadSms+2,f
  2907  0E1C  2E17               	goto	u2897
  2908  0E1D  0000               	nop
  2909  0E1E  0008               	return
  2910  0E1F                     __end_of_SIM800ReadSms:	
  2911                           ;sim800l.c: 61: return 1;
  2912                           ;	Return value of _SIM800ReadSms is never used
  2913                           
  2914                           
  2915                           	psect	text5
  2916  0799                     __ptext5:	
  2917 ;; *************** function _SIM800LClear *****************
  2918 ;; Defined at:
  2919 ;;		line 167 in file "sim800l.c"
  2920 ;; Parameters:    Size  Location     Type
  2921 ;;		None
  2922 ;; Auto vars:     Size  Location     Type
  2923 ;;  i               1    9[BANK0 ] unsigned char 
  2924 ;; Return value:  Size  Location     Type
  2925 ;;		None               void
  2926 ;; Registers used:
  2927 ;;		wreg, fsr1l, fsr1h, status,2, status,0
  2928 ;; Tracked objects:
  2929 ;;		On entry : 0/0
  2930 ;;		On exit  : 0/0
  2931 ;;		Unchanged: 0/0
  2932 ;; Data sizes:     COMMON   BANK0   BANK1   BANK2
  2933 ;;      Params:         0       0       0       0
  2934 ;;      Locals:         0       1       0       0
  2935 ;;      Temps:          0       4       0       0
  2936 ;;      Totals:         0       5       0       0
  2937 ;;Total ram usage:        5 bytes
  2938 ;; Hardware stack levels used:    1
  2939 ;; Hardware stack levels required when called:    2
  2940 ;; This function calls:
  2941 ;;		Nothing
  2942 ;; This function is called by:
  2943 ;;		_main
  2944 ;; This function uses a non-reentrant model
  2945 ;;
  2946                           
  2947                           
  2948                           ;psect for function _SIM800LClear
  2949  0799                     _SIM800LClear:	
  2950                           
  2951                           ;sim800l.c: 169: uint8_t i;
  2952                           ;sim800l.c: 170: SIM800L.busy=0;
  2953                           
  2954                           ;incstack = 0
  2955                           ; Regs used in _SIM800LClear: [wreg+fsr1l+fsr1h+status,2+status,0]
  2956  0799  3078               	movlw	120
  2957  079A  0086               	movwf	6
  2958  079B  3020               	movlw	32
  2959  079C  0087               	movwf	7
  2960  079D  3000               	movlw	0
  2961  079E  3FC0               	movwi [0]fsr1
  2962                           
  2963                           ;sim800l.c: 171: SIM800L.uncomplete=0;
  2964  079F  3078               	movlw	120
  2965  07A0  0086               	movwf	6
  2966  07A1  3020               	movlw	32
  2967  07A2  0087               	movwf	7
  2968  07A3  3141               	addfsr 1,1
  2969  07A4  0181               	clrf	1
  2970                           
  2971                           ;sim800l.c: 172: SIM800L.cell_lenght=0;
  2972  07A5  3078               	movlw	120
  2973  07A6  0086               	movwf	6
  2974  07A7  3020               	movlw	32
  2975  07A8  0087               	movwf	7
  2976  07A9  3153               	addfsr 1,19
  2977  07AA  0181               	clrf	1
  2978                           
  2979                           ;sim800l.c: 173: SIM800L.ok=0;
  2980  07AB  3078               	movlw	120
  2981  07AC  0086               	movwf	6
  2982  07AD  3020               	movlw	32
  2983  07AE  0087               	movwf	7
  2984  07AF  3142               	addfsr 1,2
  2985  07B0  0181               	clrf	1
  2986                           
  2987                           ;sim800l.c: 174: for(i=0;i<15;i++){SIM800L.cell[i]='\0';}
  2988  07B1  0020               	movlb	0	; select bank0
  2989  07B2  01A9               	clrf	SIM800LClear@i
  2990  07B3  300F               	movlw	15
  2991  07B4  0229               	subwf	SIM800LClear@i,w
  2992  07B5  1803               	btfsc	3,0
  2993  07B6  2FCD               	goto	l2607
  2994  07B7                     l2601:	
  2995  07B7  0829               	movf	SIM800LClear@i,w
  2996  07B8  00A5               	movwf	??_SIM800LClear
  2997  07B9  01A6               	clrf	??_SIM800LClear+1
  2998  07BA  307C               	movlw	124
  2999  07BB  00A7               	movwf	??_SIM800LClear+2
  3000  07BC  3020               	movlw	32
  3001  07BD  00A8               	movwf	??_SIM800LClear+3
  3002  07BE  0825               	movf	??_SIM800LClear,w
  3003  07BF  0727               	addwf	??_SIM800LClear+2,w
  3004  07C0  0086               	movwf	6
  3005  07C1  0826               	movf	??_SIM800LClear+1,w
  3006  07C2  3D28               	addwfc	??_SIM800LClear+3,w
  3007  07C3  0087               	movwf	7
  3008  07C4  0181               	clrf	1
  3009  07C5  3001               	movlw	1
  3010  07C6  00A5               	movwf	??_SIM800LClear
  3011  07C7  0825               	movf	??_SIM800LClear,w
  3012  07C8  07A9               	addwf	SIM800LClear@i,f
  3013  07C9  300F               	movlw	15
  3014  07CA  0229               	subwf	SIM800LClear@i,w
  3015  07CB  1C03               	skipc
  3016  07CC  2FB7               	goto	l2601
  3017  07CD                     l2607:	
  3018                           
  3019                           ;sim800l.c: 175: for(i=0;i<64;i++) SIM800L.buffer[i]=0;
  3020  07CD  01A9               	clrf	SIM800LClear@i
  3021  07CE  3040               	movlw	64
  3022  07CF  0229               	subwf	SIM800LClear@i,w
  3023  07D0  1803               	btfsc	3,0
  3024  07D1  2FE8               	goto	l2619
  3025  07D2                     l2613:	
  3026  07D2  0829               	movf	SIM800LClear@i,w
  3027  07D3  00A5               	movwf	??_SIM800LClear
  3028  07D4  01A6               	clrf	??_SIM800LClear+1
  3029  07D5  3092               	movlw	146
  3030  07D6  00A7               	movwf	??_SIM800LClear+2
  3031  07D7  3020               	movlw	32
  3032  07D8  00A8               	movwf	??_SIM800LClear+3
  3033  07D9  0825               	movf	??_SIM800LClear,w
  3034  07DA  0727               	addwf	??_SIM800LClear+2,w
  3035  07DB  0086               	movwf	6
  3036  07DC  0826               	movf	??_SIM800LClear+1,w
  3037  07DD  3D28               	addwfc	??_SIM800LClear+3,w
  3038  07DE  0087               	movwf	7
  3039  07DF  0181               	clrf	1
  3040  07E0  3001               	movlw	1
  3041  07E1  00A5               	movwf	??_SIM800LClear
  3042  07E2  0825               	movf	??_SIM800LClear,w
  3043  07E3  07A9               	addwf	SIM800LClear@i,f
  3044  07E4  3040               	movlw	64
  3045  07E5  0229               	subwf	SIM800LClear@i,w
  3046  07E6  1C03               	skipc
  3047  07E7  2FD2               	goto	l2613
  3048  07E8                     l2619:	
  3049                           
  3050                           ;sim800l.c: 176: for(i=0;i<25;i++) SIM800L.command[i]=0;
  3051  07E8  01A9               	clrf	SIM800LClear@i
  3052  07E9                     L5:	
  3053  07E9  3019               	movlw	25
  3054  07EA  0229               	subwf	SIM800LClear@i,w
  3055  07EB  1803               	btfsc	3,0
  3056  07EC  0008               	return
  3057  07ED  0829               	movf	SIM800LClear@i,w
  3058  07EE  00A5               	movwf	??_SIM800LClear
  3059  07EF  01A6               	clrf	??_SIM800LClear+1
  3060  07F0  30D2               	movlw	210
  3061  07F1  00A7               	movwf	??_SIM800LClear+2
  3062  07F2  3020               	movlw	32
  3063  07F3  00A8               	movwf	??_SIM800LClear+3
  3064  07F4  0825               	movf	??_SIM800LClear,w
  3065  07F5  0727               	addwf	??_SIM800LClear+2,w
  3066  07F6  0086               	movwf	6
  3067  07F7  0826               	movf	??_SIM800LClear+1,w
  3068  07F8  3D28               	addwfc	??_SIM800LClear+3,w
  3069  07F9  0087               	movwf	7
  3070  07FA  0181               	clrf	1
  3071  07FB  3001               	movlw	1
  3072  07FC  00A5               	movwf	??_SIM800LClear
  3073  07FD  0825               	movf	??_SIM800LClear,w
  3074  07FE  07A9               	addwf	SIM800LClear@i,f
  3075  07FF  2FE9               	goto	L5
  3076  0800                     __end_of_SIM800LClear:	
  3077                           
  3078                           	psect	text6
  3079  0D43                     __ptext6:	
  3080 ;; *************** function _SIM800DeleteSms *****************
  3081 ;; Defined at:
  3082 ;;		line 63 in file "sim800l.c"
  3083 ;; Parameters:    Size  Location     Type
  3084 ;;  index           2   10[BANK0 ] PTR const unsigned char 
  3085 ;;		 -> STR_23(2), 
  3086 ;;  flag            2   12[BANK0 ] PTR const unsigned char 
  3087 ;;		 -> STR_24(2), 
  3088 ;; Auto vars:     Size  Location     Type
  3089 ;;		None
  3090 ;; Return value:  Size  Location     Type
  3091 ;;                  1    wreg      unsigned char 
  3092 ;; Registers used:
  3093 ;;		wreg, fsr0l, fsr0h, status,2, status,0, pclath, cstack
  3094 ;; Tracked objects:
  3095 ;;		On entry : 0/0
  3096 ;;		On exit  : 0/0
  3097 ;;		Unchanged: 0/0
  3098 ;; Data sizes:     COMMON   BANK0   BANK1   BANK2
  3099 ;;      Params:         0       4       0       0
  3100 ;;      Locals:         0       0       0       0
  3101 ;;      Temps:          0       3       0       0
  3102 ;;      Totals:         0       7       0       0
  3103 ;;Total ram usage:        7 bytes
  3104 ;; Hardware stack levels used:    1
  3105 ;; Hardware stack levels required when called:    5
  3106 ;; This function calls:
  3107 ;;		_USARTWriteChar
  3108 ;;		_USARTWriteLine
  3109 ;;		_USARTWriteString
  3110 ;; This function is called by:
  3111 ;;		_main
  3112 ;; This function uses a non-reentrant model
  3113 ;;
  3114                           
  3115                           
  3116                           ;psect for function _SIM800DeleteSms
  3117  0D43                     _SIM800DeleteSms:	
  3118                           
  3119                           ;sim800l.c: 67: _delay((unsigned long)((1000)*(8000000/4000.0)));
  3120                           
  3121                           ;incstack = 0
  3122                           ; Regs used in _SIM800DeleteSms: [wreg-fsr0h+status,2+status,0+pclath+cstack]
  3123  0D43  300B               	movlw	11
  3124  0D44  0020               	movlb	0	; select bank0
  3125  0D45  00B0               	movwf	??_SIM800DeleteSms+2
  3126  0D46  3026               	movlw	38
  3127  0D47  00AF               	movwf	??_SIM800DeleteSms+1
  3128  0D48  3066               	movlw	102
  3129  0D49  00AE               	movwf	??_SIM800DeleteSms
  3130  0D4A                     u2907:	
  3131  0D4A  0BAE               	decfsz	??_SIM800DeleteSms,f
  3132  0D4B  2D4A               	goto	u2907
  3133  0D4C  0BAF               	decfsz	??_SIM800DeleteSms+1,f
  3134  0D4D  2D4A               	goto	u2907
  3135  0D4E  0BB0               	decfsz	??_SIM800DeleteSms+2,f
  3136  0D4F  2D4A               	goto	u2907
  3137  0D50  3200               	nop2
  3138                           
  3139                           ;sim800l.c: 68: USARTWriteLine("AT+CMGD=");
  3140  0D51  3099               	movlw	low (STR_12| (0+32768))
  3141  0D52  0020               	movlb	0	; select bank0
  3142  0D53  00A8               	movwf	USARTWriteLine@str
  3143  0D54  3085               	movlw	high (STR_12| (0+32768))
  3144  0D55  00A9               	movwf	USARTWriteLine@str+1
  3145  0D56  3184  24EE  318D   	fcall	_USARTWriteLine
  3146                           
  3147                           ;sim800l.c: 69: USARTWriteString(index);
  3148  0D59  0020               	movlb	0	; select bank0
  3149  0D5A  082B               	movf	SIM800DeleteSms@index+1,w
  3150  0D5B  01A7               	clrf	USARTWriteString@str+1
  3151  0D5C  07A7               	addwf	USARTWriteString@str+1,f
  3152  0D5D  082A               	movf	SIM800DeleteSms@index,w
  3153  0D5E  01A6               	clrf	USARTWriteString@str
  3154  0D5F  07A6               	addwf	USARTWriteString@str,f
  3155  0D60  318B  234B  318D   	fcall	_USARTWriteString
  3156                           
  3157                           ;sim800l.c: 70: USARTWriteChar(',');
  3158  0D63  302C               	movlw	44
  3159  0D64  318B  230A  318D   	fcall	_USARTWriteChar
  3160                           
  3161                           ;sim800l.c: 71: USARTWriteString(flag);
  3162  0D67  0020               	movlb	0	; select bank0
  3163  0D68  082D               	movf	SIM800DeleteSms@flag+1,w
  3164  0D69  01A7               	clrf	USARTWriteString@str+1
  3165  0D6A  07A7               	addwf	USARTWriteString@str+1,f
  3166  0D6B  082C               	movf	SIM800DeleteSms@flag,w
  3167  0D6C  01A6               	clrf	USARTWriteString@str
  3168  0D6D  07A6               	addwf	USARTWriteString@str,f
  3169  0D6E  318B  234B  318D   	fcall	_USARTWriteString
  3170                           
  3171                           ;sim800l.c: 72: USARTWriteString("\r\n");
  3172  0D71  30C8               	movlw	low ((STR_8+1)| (0+32768))
  3173  0D72  0020               	movlb	0	; select bank0
  3174  0D73  00A6               	movwf	USARTWriteString@str
  3175  0D74  3085               	movlw	high ((STR_8+1)| (0+32768))
  3176  0D75  00A7               	movwf	USARTWriteString@str+1
  3177  0D76  318B  234B  318D   	fcall	_USARTWriteString
  3178                           
  3179                           ;sim800l.c: 73: _delay((unsigned long)((2000)*(8000000/4000.0)));
  3180  0D79  3015               	movlw	21
  3181  0D7A  0020               	movlb	0	; select bank0
  3182  0D7B  00B0               	movwf	??_SIM800DeleteSms+2
  3183  0D7C  304B               	movlw	75
  3184  0D7D  00AF               	movwf	??_SIM800DeleteSms+1
  3185  0D7E  30D1               	movlw	209
  3186  0D7F  00AE               	movwf	??_SIM800DeleteSms
  3187  0D80                     u2917:	
  3188  0D80  0BAE               	decfsz	??_SIM800DeleteSms,f
  3189  0D81  2D80               	goto	u2917
  3190  0D82  0BAF               	decfsz	??_SIM800DeleteSms+1,f
  3191  0D83  2D80               	goto	u2917
  3192  0D84  0BB0               	decfsz	??_SIM800DeleteSms+2,f
  3193  0D85  2D80               	goto	u2917
  3194  0D86  0000               	nop
  3195  0D87  0008               	return
  3196  0D88                     __end_of_SIM800DeleteSms:	
  3197                           ;sim800l.c: 74: return 1;
  3198                           ;	Return value of _SIM800DeleteSms is never used
  3199                           
  3200                           
  3201                           	psect	text7
  3202  02C8                     __ptext7:	
  3203 ;; *************** function _SIM800Command *****************
  3204 ;; Defined at:
  3205 ;;		line 111 in file "sim800l.c"
  3206 ;; Parameters:    Size  Location     Type
  3207 ;;		None
  3208 ;; Auto vars:     Size  Location     Type
  3209 ;;  add             1   49[BANK0 ] unsigned char 
  3210 ;; Return value:  Size  Location     Type
  3211 ;;                  1    wreg      unsigned char 
  3212 ;; Registers used:
  3213 ;;		wreg, fsr0l, fsr0h, fsr1l, fsr1h, status,2, status,0, pclath, cstack
  3214 ;; Tracked objects:
  3215 ;;		On entry : 0/0
  3216 ;;		On exit  : 0/0
  3217 ;;		Unchanged: 0/0
  3218 ;; Data sizes:     COMMON   BANK0   BANK1   BANK2
  3219 ;;      Params:         0       0       0       0
  3220 ;;      Locals:         0       1       0       0
  3221 ;;      Temps:          0      11       0       0
  3222 ;;      Totals:         0      12       0       0
  3223 ;;Total ram usage:       12 bytes
  3224 ;; Hardware stack levels used:    1
  3225 ;; Hardware stack levels required when called:    6
  3226 ;; This function calls:
  3227 ;;		_EEPROMAdd
  3228 ;;		_EEPROMCheckPassword
  3229 ;;		_EEPROMDeleteNumber
  3230 ;;		_EEPROMEraseAll
  3231 ;;		_EEPROMSearchNumber
  3232 ;;		_EEPROMUpdatePassword
  3233 ;;		_SIM800SendSms
  3234 ;; This function is called by:
  3235 ;;		_main
  3236 ;; This function uses a non-reentrant model
  3237 ;;
  3238                           
  3239                           
  3240                           ;psect for function _SIM800Command
  3241  02C8                     _SIM800Command:	
  3242                           
  3243                           ;sim800l.c: 113: if(SIM800L.command[0]==':')
  3244                           
  3245                           ;incstack = 0
  3246                           ; Regs used in _SIM800Command: [wreg-fsr1h+status,2+status,0+pclath+cstack]
  3247  02C8  30D2               	movlw	210
  3248  02C9  0086               	movwf	6
  3249  02CA  3020               	movlw	32
  3250  02CB  0087               	movwf	7
  3251  02CC  0801               	movf	1,w
  3252  02CD  3A3A               	xorlw	58
  3253  02CE  1D03               	skipz
  3254  02CF  0008               	return
  3255                           
  3256                           ;sim800l.c: 114: {
  3257                           ;sim800l.c: 115: if(EEPROMCheckPassword(&SIM800L.command[1]))
  3258  02D0  30D3               	movlw	211
  3259  02D1  0020               	movlb	0	; select bank0
  3260  02D2  00B0               	movwf	EEPROMCheckPassword@pass
  3261  02D3  3020               	movlw	32
  3262  02D4  00B1               	movwf	EEPROMCheckPassword@pass+1
  3263  02D5  318E  266E  3182   	fcall	_EEPROMCheckPassword
  3264  02D8  3A00               	xorlw	0
  3265  02D9  1903               	skipnz
  3266  02DA  0008               	return
  3267                           
  3268                           ;sim800l.c: 116: {
  3269                           ;sim800l.c: 117: if(SIM800L.command[6]=='A' && SIM800L.command[7]=='D' && SIM800L.comman
      +                          d[8]=='D' )
  3270  02DB  30D8               	movlw	216
  3271  02DC  0086               	movwf	6
  3272  02DD  3020               	movlw	32
  3273  02DE  0087               	movwf	7
  3274  02DF  0801               	movf	1,w
  3275  02E0  3A41               	xorlw	65
  3276  02E1  1D03               	skipz
  3277  02E2  2B9A               	goto	l2549
  3278  02E3  30D9               	movlw	217
  3279  02E4  0086               	movwf	6
  3280  02E5  3020               	movlw	32
  3281  02E6  0087               	movwf	7
  3282  02E7  0801               	movf	1,w
  3283  02E8  3A44               	xorlw	68
  3284  02E9  1D03               	skipz
  3285  02EA  2B9A               	goto	l2549
  3286  02EB  30DA               	movlw	218
  3287  02EC  0086               	movwf	6
  3288  02ED  3020               	movlw	32
  3289  02EE  0087               	movwf	7
  3290  02EF  0801               	movf	1,w
  3291  02F0  3A44               	xorlw	68
  3292  02F1  1D03               	skipz
  3293  02F2  2B9A               	goto	l2549
  3294                           
  3295                           ;sim800l.c: 118: {
  3296                           ;sim800l.c: 119: i=10;
  3297  02F3  300A               	movlw	10
  3298  02F4  0020               	movlb	0	; select bank0
  3299  02F5  00C6               	movwf	??_SIM800Command
  3300  02F6  0846               	movf	??_SIM800Command,w
  3301  02F7  00DF               	movwf	_i
  3302                           
  3303                           ;sim800l.c: 120: while(SIM800L.command[i]>='0' && SIM800L.command[i]<='9' )
  3304  02F8  2B2C               	goto	l2535
  3305  02F9                     l2529:	
  3306                           
  3307                           ;sim800l.c: 121: {
  3308                           ;sim800l.c: 122: SIM800L.cell[i-10]=SIM800L.command[i];
  3309  02F9  085F               	movf	_i,w
  3310  02FA  00C6               	movwf	??_SIM800Command
  3311  02FB  01C7               	clrf	??_SIM800Command+1
  3312  02FC  30D2               	movlw	210
  3313  02FD  00C8               	movwf	??_SIM800Command+2
  3314  02FE  3020               	movlw	32
  3315  02FF  00C9               	movwf	??_SIM800Command+3
  3316  0300  0846               	movf	??_SIM800Command,w
  3317  0301  0748               	addwf	??_SIM800Command+2,w
  3318  0302  0086               	movwf	6
  3319  0303  0847               	movf	??_SIM800Command+1,w
  3320  0304  3D49               	addwfc	??_SIM800Command+3,w
  3321  0305  0087               	movwf	7
  3322  0306  0801               	movf	1,w
  3323  0307  00CA               	movwf	??_SIM800Command+4
  3324  0308  085F               	movf	_i,w
  3325  0309  3EF6               	addlw	246
  3326  030A  00CB               	movwf	??_SIM800Command+5
  3327  030B  30FF               	movlw	255
  3328  030C  1803               	skipnc
  3329  030D  3000               	movlw	0
  3330  030E  00CC               	movwf	??_SIM800Command+6
  3331  030F  307C               	movlw	124
  3332  0310  00CD               	movwf	??_SIM800Command+7
  3333  0311  3020               	movlw	32
  3334  0312  00CE               	movwf	??_SIM800Command+8
  3335  0313  084B               	movf	??_SIM800Command+5,w
  3336  0314  074D               	addwf	??_SIM800Command+7,w
  3337  0315  00CF               	movwf	??_SIM800Command+9
  3338  0316  084C               	movf	??_SIM800Command+6,w
  3339  0317  3D4E               	addwfc	??_SIM800Command+8,w
  3340  0318  00D0               	movwf	??_SIM800Command+10
  3341  0319  084F               	movf	??_SIM800Command+9,w
  3342  031A  0086               	movwf	6
  3343  031B  0850               	movf	??_SIM800Command+10,w
  3344  031C  0087               	movwf	7
  3345  031D  084A               	movf	??_SIM800Command+4,w
  3346  031E  0081               	movwf	1
  3347                           
  3348                           ;sim800l.c: 123: i++;
  3349  031F  3001               	movlw	1
  3350  0320  00C6               	movwf	??_SIM800Command
  3351  0321  0846               	movf	??_SIM800Command,w
  3352  0322  07DF               	addwf	_i,f
  3353                           
  3354                           ;sim800l.c: 124: SIM800L.cell_lenght++;
  3355  0323  3001               	movlw	1
  3356  0324  00C6               	movwf	??_SIM800Command
  3357  0325  3078               	movlw	120
  3358  0326  0086               	movwf	6
  3359  0327  3020               	movlw	32
  3360  0328  0087               	movwf	7
  3361  0329  3153               	addfsr 1,19
  3362  032A  0846               	movf	??_SIM800Command,w
  3363  032B  0781               	addwf	1,f
  3364  032C                     l2535:	
  3365  032C  085F               	movf	_i,w
  3366  032D  00C6               	movwf	??_SIM800Command
  3367  032E  01C7               	clrf	??_SIM800Command+1
  3368  032F  30D2               	movlw	210
  3369  0330  00C8               	movwf	??_SIM800Command+2
  3370  0331  3020               	movlw	32
  3371  0332  00C9               	movwf	??_SIM800Command+3
  3372  0333  0846               	movf	??_SIM800Command,w
  3373  0334  0748               	addwf	??_SIM800Command+2,w
  3374  0335  0086               	movwf	6
  3375  0336  0847               	movf	??_SIM800Command+1,w
  3376  0337  3D49               	addwfc	??_SIM800Command+3,w
  3377  0338  0087               	movwf	7
  3378  0339  3030               	movlw	48
  3379  033A  0201               	subwf	1,w
  3380  033B  1C03               	skipc
  3381  033C  2B4E               	goto	l2539
  3382  033D  085F               	movf	_i,w
  3383  033E  00C6               	movwf	??_SIM800Command
  3384  033F  01C7               	clrf	??_SIM800Command+1
  3385  0340  30D2               	movlw	210
  3386  0341  00C8               	movwf	??_SIM800Command+2
  3387  0342  3020               	movlw	32
  3388  0343  00C9               	movwf	??_SIM800Command+3
  3389  0344  0846               	movf	??_SIM800Command,w
  3390  0345  0748               	addwf	??_SIM800Command+2,w
  3391  0346  0086               	movwf	6
  3392  0347  0847               	movf	??_SIM800Command+1,w
  3393  0348  3D49               	addwfc	??_SIM800Command+3,w
  3394  0349  0087               	movwf	7
  3395  034A  303A               	movlw	58
  3396  034B  0201               	subwf	1,w
  3397  034C  1C03               	skipc
  3398  034D  2AF9               	goto	l2529
  3399  034E                     l2539:	
  3400                           
  3401                           ;sim800l.c: 125: }
  3402                           ;sim800l.c: 126: SIM800L.cell[i-10]='\0';
  3403  034E  085F               	movf	_i,w
  3404  034F  3EF6               	addlw	246
  3405  0350  00C6               	movwf	??_SIM800Command
  3406  0351  30FF               	movlw	255
  3407  0352  1803               	skipnc
  3408  0353  3000               	movlw	0
  3409  0354  00C7               	movwf	??_SIM800Command+1
  3410  0355  307C               	movlw	124
  3411  0356  00C8               	movwf	??_SIM800Command+2
  3412  0357  3020               	movlw	32
  3413  0358  00C9               	movwf	??_SIM800Command+3
  3414  0359  0846               	movf	??_SIM800Command,w
  3415  035A  0748               	addwf	??_SIM800Command+2,w
  3416  035B  0086               	movwf	6
  3417  035C  0847               	movf	??_SIM800Command+1,w
  3418  035D  3D49               	addwfc	??_SIM800Command+3,w
  3419  035E  0087               	movwf	7
  3420  035F  0181               	clrf	1
  3421                           
  3422                           ;sim800l.c: 127: if(!EEPROMSearchNumber(SIM800L.cell,SIM800L.cell_lenght))
  3423  0360  307C               	movlw	124
  3424  0361  00B0               	movwf	EEPROMSearchNumber@nmbr
  3425  0362  3020               	movlw	32
  3426  0363  00B1               	movwf	EEPROMSearchNumber@nmbr+1
  3427  0364  3078               	movlw	120
  3428  0365  0086               	movwf	6
  3429  0366  3020               	movlw	32
  3430  0367  0087               	movwf	7
  3431  0368  3153               	addfsr 1,19
  3432  0369  0801               	movf	1,w
  3433  036A  00C6               	movwf	??_SIM800Command
  3434  036B  0846               	movf	??_SIM800Command,w
  3435  036C  00B2               	movwf	EEPROMSearchNumber@nmbrLenght
  3436  036D  3186  2693  3182   	fcall	_EEPROMSearchNumber
  3437  0370  0020               	movlb	0	; select bank0
  3438  0371  0831               	movf	?_EEPROMSearchNumber+1,w
  3439  0372  0430               	iorwf	?_EEPROMSearchNumber,w
  3440  0373  1D03               	skipz
  3441  0374  2B8E               	goto	l2547
  3442                           
  3443                           ;sim800l.c: 128: {
  3444                           ;sim800l.c: 129: EEPROMAdd(SIM800L.cell, SIM800L.cell_lenght);
  3445  0375  307C               	movlw	124
  3446  0376  00BD               	movwf	EEPROMAdd@nmbr
  3447  0377  3020               	movlw	32
  3448  0378  00BE               	movwf	EEPROMAdd@nmbr+1
  3449  0379  3078               	movlw	120
  3450  037A  0086               	movwf	6
  3451  037B  3020               	movlw	32
  3452  037C  0087               	movwf	7
  3453  037D  3153               	addfsr 1,19
  3454  037E  0801               	movf	1,w
  3455  037F  00C6               	movwf	??_SIM800Command
  3456  0380  0846               	movf	??_SIM800Command,w
  3457  0381  00BF               	movwf	EEPROMAdd@nmbrLenght
  3458  0382  318E  261F  3182   	fcall	_EEPROMAdd
  3459                           
  3460                           ;sim800l.c: 130: SIM800SendSms(SIM800L.cell, "Your number had been added");
  3461  0385  307C               	movlw	124
  3462  0386  0020               	movlb	0	; select bank0
  3463  0387  00AA               	movwf	SIM800SendSms@nmbr
  3464  0388  3020               	movlw	32
  3465  0389  00AB               	movwf	SIM800SendSms@nmbr+1
  3466  038A  301D               	movlw	low (STR_14| (0+32768))
  3467  038B  00AC               	movwf	SIM800SendSms@msg
  3468  038C  3085               	movlw	high (STR_14| (0+32768))
  3469  038D  2B96               	goto	L6
  3470  038E                     l2547:	
  3471                           ;sim800l.c: 131: }
  3472                           
  3473                           
  3474                           ;sim800l.c: 132: else
  3475                           ;sim800l.c: 133: {
  3476                           ;sim800l.c: 134: SIM800SendSms(SIM800L.cell, "Your number already exist");
  3477  038E  307C               	movlw	124
  3478  038F  0020               	movlb	0	; select bank0
  3479  0390  00AA               	movwf	SIM800SendSms@nmbr
  3480  0391  3020               	movlw	32
  3481  0392  00AB               	movwf	SIM800SendSms@nmbr+1
  3482  0393  3038               	movlw	low (STR_15| (0+32768))
  3483  0394  00AC               	movwf	SIM800SendSms@msg
  3484  0395  3085               	movlw	high (STR_15| (0+32768))
  3485  0396                     L6:	
  3486  0396  00AD               	movwf	SIM800SendSms@msg+1
  3487  0397  318F  2728  3182   	fcall	_SIM800SendSms
  3488  039A                     l2549:	
  3489                           
  3490                           ;sim800l.c: 135: }
  3491                           ;sim800l.c: 137: }
  3492                           ;sim800l.c: 138: if(SIM800L.command[6]=='D' && SIM800L.command[7]=='E' && SIM800L.comman
      +                          d[8]=='L' )
  3493  039A  30D8               	movlw	216
  3494  039B  0086               	movwf	6
  3495  039C  3020               	movlw	32
  3496  039D  0087               	movwf	7
  3497  039E  0801               	movf	1,w
  3498  039F  3A44               	xorlw	68
  3499  03A0  1D03               	skipz
  3500  03A1  2C4E               	goto	l2577
  3501  03A2  30D9               	movlw	217
  3502  03A3  0086               	movwf	6
  3503  03A4  3020               	movlw	32
  3504  03A5  0087               	movwf	7
  3505  03A6  0801               	movf	1,w
  3506  03A7  3A45               	xorlw	69
  3507  03A8  1D03               	skipz
  3508  03A9  2C4E               	goto	l2577
  3509  03AA  30DA               	movlw	218
  3510  03AB  0086               	movwf	6
  3511  03AC  3020               	movlw	32
  3512  03AD  0087               	movwf	7
  3513  03AE  0801               	movf	1,w
  3514  03AF  3A4C               	xorlw	76
  3515  03B0  1D03               	skipz
  3516  03B1  2C4E               	goto	l2577
  3517                           
  3518                           ;sim800l.c: 139: {
  3519                           ;sim800l.c: 140: i=10;
  3520  03B2  300A               	movlw	10
  3521  03B3  0020               	movlb	0	; select bank0
  3522  03B4  00C6               	movwf	??_SIM800Command
  3523  03B5  0846               	movf	??_SIM800Command,w
  3524  03B6  00DF               	movwf	_i
  3525                           
  3526                           ;sim800l.c: 141: while(SIM800L.command[i]>='0' && SIM800L.command[i]<='9' )
  3527  03B7  2BEB               	goto	l2563
  3528  03B8                     l2557:	
  3529                           
  3530                           ;sim800l.c: 142: {
  3531                           ;sim800l.c: 143: SIM800L.cell[i-10]=SIM800L.command[i];
  3532  03B8  085F               	movf	_i,w
  3533  03B9  00C6               	movwf	??_SIM800Command
  3534  03BA  01C7               	clrf	??_SIM800Command+1
  3535  03BB  30D2               	movlw	210
  3536  03BC  00C8               	movwf	??_SIM800Command+2
  3537  03BD  3020               	movlw	32
  3538  03BE  00C9               	movwf	??_SIM800Command+3
  3539  03BF  0846               	movf	??_SIM800Command,w
  3540  03C0  0748               	addwf	??_SIM800Command+2,w
  3541  03C1  0086               	movwf	6
  3542  03C2  0847               	movf	??_SIM800Command+1,w
  3543  03C3  3D49               	addwfc	??_SIM800Command+3,w
  3544  03C4  0087               	movwf	7
  3545  03C5  0801               	movf	1,w
  3546  03C6  00CA               	movwf	??_SIM800Command+4
  3547  03C7  085F               	movf	_i,w
  3548  03C8  3EF6               	addlw	246
  3549  03C9  00CB               	movwf	??_SIM800Command+5
  3550  03CA  30FF               	movlw	255
  3551  03CB  1803               	skipnc
  3552  03CC  3000               	movlw	0
  3553  03CD  00CC               	movwf	??_SIM800Command+6
  3554  03CE  307C               	movlw	124
  3555  03CF  00CD               	movwf	??_SIM800Command+7
  3556  03D0  3020               	movlw	32
  3557  03D1  00CE               	movwf	??_SIM800Command+8
  3558  03D2  084B               	movf	??_SIM800Command+5,w
  3559  03D3  074D               	addwf	??_SIM800Command+7,w
  3560  03D4  00CF               	movwf	??_SIM800Command+9
  3561  03D5  084C               	movf	??_SIM800Command+6,w
  3562  03D6  3D4E               	addwfc	??_SIM800Command+8,w
  3563  03D7  00D0               	movwf	??_SIM800Command+10
  3564  03D8  084F               	movf	??_SIM800Command+9,w
  3565  03D9  0086               	movwf	6
  3566  03DA  0850               	movf	??_SIM800Command+10,w
  3567  03DB  0087               	movwf	7
  3568  03DC  084A               	movf	??_SIM800Command+4,w
  3569  03DD  0081               	movwf	1
  3570                           
  3571                           ;sim800l.c: 144: i++;
  3572  03DE  3001               	movlw	1
  3573  03DF  00C6               	movwf	??_SIM800Command
  3574  03E0  0846               	movf	??_SIM800Command,w
  3575  03E1  07DF               	addwf	_i,f
  3576                           
  3577                           ;sim800l.c: 145: SIM800L.cell_lenght++;
  3578  03E2  3001               	movlw	1
  3579  03E3  00C6               	movwf	??_SIM800Command
  3580  03E4  3078               	movlw	120
  3581  03E5  0086               	movwf	6
  3582  03E6  3020               	movlw	32
  3583  03E7  0087               	movwf	7
  3584  03E8  3153               	addfsr 1,19
  3585  03E9  0846               	movf	??_SIM800Command,w
  3586  03EA  0781               	addwf	1,f
  3587  03EB                     l2563:	
  3588  03EB  085F               	movf	_i,w
  3589  03EC  00C6               	movwf	??_SIM800Command
  3590  03ED  01C7               	clrf	??_SIM800Command+1
  3591  03EE  30D2               	movlw	210
  3592  03EF  00C8               	movwf	??_SIM800Command+2
  3593  03F0  3020               	movlw	32
  3594  03F1  00C9               	movwf	??_SIM800Command+3
  3595  03F2  0846               	movf	??_SIM800Command,w
  3596  03F3  0748               	addwf	??_SIM800Command+2,w
  3597  03F4  0086               	movwf	6
  3598  03F5  0847               	movf	??_SIM800Command+1,w
  3599  03F6  3D49               	addwfc	??_SIM800Command+3,w
  3600  03F7  0087               	movwf	7
  3601  03F8  3030               	movlw	48
  3602  03F9  0201               	subwf	1,w
  3603  03FA  1C03               	skipc
  3604  03FB  2C0D               	goto	l2567
  3605  03FC  085F               	movf	_i,w
  3606  03FD  00C6               	movwf	??_SIM800Command
  3607  03FE  01C7               	clrf	??_SIM800Command+1
  3608  03FF  30D2               	movlw	210
  3609  0400  00C8               	movwf	??_SIM800Command+2
  3610  0401  3020               	movlw	32
  3611  0402  00C9               	movwf	??_SIM800Command+3
  3612  0403  0846               	movf	??_SIM800Command,w
  3613  0404  0748               	addwf	??_SIM800Command+2,w
  3614  0405  0086               	movwf	6
  3615  0406  0847               	movf	??_SIM800Command+1,w
  3616  0407  3D49               	addwfc	??_SIM800Command+3,w
  3617  0408  0087               	movwf	7
  3618  0409  303A               	movlw	58
  3619  040A  0201               	subwf	1,w
  3620  040B  1C03               	skipc
  3621  040C  2BB8               	goto	l2557
  3622  040D                     l2567:	
  3623                           
  3624                           ;sim800l.c: 146: }
  3625                           ;sim800l.c: 147: SIM800L.cell[i-10]='\0';
  3626  040D  085F               	movf	_i,w
  3627  040E  3EF6               	addlw	246
  3628  040F  00C6               	movwf	??_SIM800Command
  3629  0410  30FF               	movlw	255
  3630  0411  1803               	skipnc
  3631  0412  3000               	movlw	0
  3632  0413  00C7               	movwf	??_SIM800Command+1
  3633  0414  307C               	movlw	124
  3634  0415  00C8               	movwf	??_SIM800Command+2
  3635  0416  3020               	movlw	32
  3636  0417  00C9               	movwf	??_SIM800Command+3
  3637  0418  0846               	movf	??_SIM800Command,w
  3638  0419  0748               	addwf	??_SIM800Command+2,w
  3639  041A  0086               	movwf	6
  3640  041B  0847               	movf	??_SIM800Command+1,w
  3641  041C  3D49               	addwfc	??_SIM800Command+3,w
  3642  041D  0087               	movwf	7
  3643  041E  0181               	clrf	1
  3644                           
  3645                           ;sim800l.c: 148: uint8_t add=EEPROMSearchNumber(SIM800L.cell,SIM800L.cell_lenght);
  3646  041F  307C               	movlw	124
  3647  0420  00B0               	movwf	EEPROMSearchNumber@nmbr
  3648  0421  3020               	movlw	32
  3649  0422  00B1               	movwf	EEPROMSearchNumber@nmbr+1
  3650  0423  3078               	movlw	120
  3651  0424  0086               	movwf	6
  3652  0425  3020               	movlw	32
  3653  0426  0087               	movwf	7
  3654  0427  3153               	addfsr 1,19
  3655  0428  0801               	movf	1,w
  3656  0429  00C6               	movwf	??_SIM800Command
  3657  042A  0846               	movf	??_SIM800Command,w
  3658  042B  00B2               	movwf	EEPROMSearchNumber@nmbrLenght
  3659  042C  3186  2693  3182   	fcall	_EEPROMSearchNumber
  3660  042F  0020               	movlb	0	; select bank0
  3661  0430  0830               	movf	?_EEPROMSearchNumber,w
  3662  0431  00C7               	movwf	??_SIM800Command+1
  3663  0432  0847               	movf	??_SIM800Command+1,w
  3664  0433  00D1               	movwf	SIM800Command@add
  3665                           
  3666                           ;sim800l.c: 149: if(add)
  3667  0434  0851               	movf	SIM800Command@add,w
  3668  0435  1903               	btfsc	3,2
  3669  0436  2C4E               	goto	l2577
  3670                           
  3671                           ;sim800l.c: 150: {
  3672                           ;sim800l.c: 151: EEPROMDeleteNumber(add-1);
  3673  0437  0851               	movf	SIM800Command@add,w
  3674  0438  3EFF               	addlw	255
  3675  0439  00AF               	movwf	EEPROMDeleteNumber@position
  3676  043A  30FF               	movlw	255
  3677  043B  1803               	skipnc
  3678  043C  3000               	movlw	0
  3679  043D  00B0               	movwf	EEPROMDeleteNumber@position+1
  3680  043E  318C  24CB  3182   	fcall	_EEPROMDeleteNumber
  3681                           
  3682                           ;sim800l.c: 152: SIM800SendSms(SIM800L.cell, "Your number had been deleted");
  3683  0441  307C               	movlw	124
  3684  0442  0020               	movlb	0	; select bank0
  3685  0443  00AA               	movwf	SIM800SendSms@nmbr
  3686  0444  3020               	movlw	32
  3687  0445  00AB               	movwf	SIM800SendSms@nmbr+1
  3688  0446  3000               	movlw	low (STR_16| (0+32768))
  3689  0447  00AC               	movwf	SIM800SendSms@msg
  3690  0448  3085               	movlw	high (STR_16| (0+32768))
  3691  0449  00AD               	movwf	SIM800SendSms@msg+1
  3692  044A  318F  2728  3182   	fcall	_SIM800SendSms
  3693  044D  0020               	movlb	0	; select bank0
  3694  044E                     l2577:	
  3695                           
  3696                           ;sim800l.c: 153: }
  3697                           ;sim800l.c: 155: }
  3698                           ;sim800l.c: 156: if(SIM800L.command[6]=='F' && SIM800L.command[7]=='A' && SIM800L.comman
      +                          d[8]=='C' )
  3699  044E  30D8               	movlw	216
  3700  044F  0086               	movwf	6
  3701  0450  3020               	movlw	32
  3702  0451  0087               	movwf	7
  3703  0452  0801               	movf	1,w
  3704  0453  3A46               	xorlw	70
  3705  0454  1D03               	skipz
  3706  0455  0008               	return
  3707  0456  30D9               	movlw	217
  3708  0457  0086               	movwf	6
  3709  0458  3020               	movlw	32
  3710  0459  0087               	movwf	7
  3711  045A  0801               	movf	1,w
  3712  045B  3A41               	xorlw	65
  3713  045C  1D03               	skipz
  3714  045D  0008               	return
  3715  045E  30DA               	movlw	218
  3716  045F  0086               	movwf	6
  3717  0460  3020               	movlw	32
  3718  0461  0087               	movwf	7
  3719  0462  0801               	movf	1,w
  3720  0463  3A43               	xorlw	67
  3721  0464  1D03               	skipz
  3722  0465  0008               	return
  3723                           
  3724                           ;sim800l.c: 157: {
  3725                           ;sim800l.c: 158: EEPROMEraseAll();
  3726  0466  318D  2506  3182   	fcall	_EEPROMEraseAll
  3727                           
  3728                           ;sim800l.c: 159: EEPROMUpdatePassword("1234");
  3729  0469  30C2               	movlw	low (STR_17| (0+32768))
  3730  046A  0020               	movlb	0	; select bank0
  3731  046B  00AF               	movwf	EEPROMUpdatePassword@pass
  3732  046C  3085               	movlw	high (STR_17| (0+32768))
  3733  046D  00B0               	movwf	EEPROMUpdatePassword@pass+1
  3734  046E  3187  271B         	fcall	_EEPROMUpdatePassword
  3735  0470  0008               	return
  3736  0471                     __end_of_SIM800Command:	
  3737                           ;sim800l.c: 160: }
  3738                           ;sim800l.c: 162: }
  3739                           ;sim800l.c: 163: }
  3740                           ;sim800l.c: 164: return 1;
  3741                           ;	Return value of _SIM800Command is never used
  3742                           
  3743                           
  3744                           	psect	text8
  3745  0F28                     __ptext8:	
  3746 ;; *************** function _SIM800SendSms *****************
  3747 ;; Defined at:
  3748 ;;		line 36 in file "sim800l.c"
  3749 ;; Parameters:    Size  Location     Type
  3750 ;;  nmbr            2   10[BANK0 ] PTR const unsigned char 
  3751 ;;		 -> STR_19(11), SIM800L.cell(15), SIM800L(120), 
  3752 ;;  msg             2   12[BANK0 ] PTR const unsigned char 
  3753 ;;		 -> STR_20(15), STR_16(29), STR_15(26), STR_14(27), 
  3754 ;; Auto vars:     Size  Location     Type
  3755 ;;		None
  3756 ;; Return value:  Size  Location     Type
  3757 ;;                  1    wreg      unsigned char 
  3758 ;; Registers used:
  3759 ;;		wreg, fsr0l, fsr0h, status,2, status,0, pclath, cstack
  3760 ;; Tracked objects:
  3761 ;;		On entry : 0/0
  3762 ;;		On exit  : 0/0
  3763 ;;		Unchanged: 0/0
  3764 ;; Data sizes:     COMMON   BANK0   BANK1   BANK2
  3765 ;;      Params:         0       4       0       0
  3766 ;;      Locals:         0       0       0       0
  3767 ;;      Temps:          0       3       0       0
  3768 ;;      Totals:         0       7       0       0
  3769 ;;Total ram usage:        7 bytes
  3770 ;; Hardware stack levels used:    1
  3771 ;; Hardware stack levels required when called:    5
  3772 ;; This function calls:
  3773 ;;		_USARTWriteChar
  3774 ;;		_USARTWriteLine
  3775 ;;		_USARTWriteString
  3776 ;; This function is called by:
  3777 ;;		_SIM800Command
  3778 ;;		_main
  3779 ;; This function uses a non-reentrant model
  3780 ;;
  3781                           
  3782                           
  3783                           ;psect for function _SIM800SendSms
  3784  0F28                     _SIM800SendSms:	
  3785                           
  3786                           ;sim800l.c: 38: _delay((unsigned long)((2000)*(8000000/4000.0)));
  3787                           
  3788                           ;incstack = 0
  3789                           ; Regs used in _SIM800SendSms: [wreg-fsr0h+status,2+status,0+pclath+cstack]
  3790  0F28  3015               	movlw	21
  3791  0F29  0020               	movlb	0	; select bank0
  3792  0F2A  00B0               	movwf	??_SIM800SendSms+2
  3793  0F2B  304B               	movlw	75
  3794  0F2C  00AF               	movwf	??_SIM800SendSms+1
  3795  0F2D  30D1               	movlw	209
  3796  0F2E  00AE               	movwf	??_SIM800SendSms
  3797  0F2F                     u2927:	
  3798  0F2F  0BAE               	decfsz	??_SIM800SendSms,f
  3799  0F30  2F2F               	goto	u2927
  3800  0F31  0BAF               	decfsz	??_SIM800SendSms+1,f
  3801  0F32  2F2F               	goto	u2927
  3802  0F33  0BB0               	decfsz	??_SIM800SendSms+2,f
  3803  0F34  2F2F               	goto	u2927
  3804  0F35  0000               	nop
  3805                           
  3806                           ;sim800l.c: 39: USARTWriteLine("AT+CMGF = 1\r\n");
  3807  0F36  3061               	movlw	low (STR_6| (0+32768))
  3808  0F37  0020               	movlb	0	; select bank0
  3809  0F38  00A8               	movwf	USARTWriteLine@str
  3810  0F39  3085               	movlw	high (STR_6| (0+32768))
  3811  0F3A  00A9               	movwf	USARTWriteLine@str+1
  3812  0F3B  3184  24EE  318F   	fcall	_USARTWriteLine
  3813                           
  3814                           ;sim800l.c: 40: _delay((unsigned long)((2000)*(8000000/4000.0)));
  3815  0F3E  3015               	movlw	21
  3816  0F3F  0020               	movlb	0	; select bank0
  3817  0F40  00B0               	movwf	??_SIM800SendSms+2
  3818  0F41  304B               	movlw	75
  3819  0F42  00AF               	movwf	??_SIM800SendSms+1
  3820  0F43  30D1               	movlw	209
  3821  0F44  00AE               	movwf	??_SIM800SendSms
  3822  0F45                     u2937:	
  3823  0F45  0BAE               	decfsz	??_SIM800SendSms,f
  3824  0F46  2F45               	goto	u2937
  3825  0F47  0BAF               	decfsz	??_SIM800SendSms+1,f
  3826  0F48  2F45               	goto	u2937
  3827  0F49  0BB0               	decfsz	??_SIM800SendSms+2,f
  3828  0F4A  2F45               	goto	u2937
  3829  0F4B  0000               	nop
  3830                           
  3831                           ;sim800l.c: 41: USARTWriteLine("AT+CMGS=\"");
  3832  0F4C  3086               	movlw	low (STR_7| (0+32768))
  3833  0F4D  0020               	movlb	0	; select bank0
  3834  0F4E  00A8               	movwf	USARTWriteLine@str
  3835  0F4F  3085               	movlw	high (STR_7| (0+32768))
  3836  0F50  00A9               	movwf	USARTWriteLine@str+1
  3837  0F51  3184  24EE  318F   	fcall	_USARTWriteLine
  3838                           
  3839                           ;sim800l.c: 42: USARTWriteString(nmbr);
  3840  0F54  0020               	movlb	0	; select bank0
  3841  0F55  082B               	movf	SIM800SendSms@nmbr+1,w
  3842  0F56  01A7               	clrf	USARTWriteString@str+1
  3843  0F57  07A7               	addwf	USARTWriteString@str+1,f
  3844  0F58  082A               	movf	SIM800SendSms@nmbr,w
  3845  0F59  01A6               	clrf	USARTWriteString@str
  3846  0F5A  07A6               	addwf	USARTWriteString@str,f
  3847  0F5B  318B  234B  318F   	fcall	_USARTWriteString
  3848                           
  3849                           ;sim800l.c: 43: USARTWriteString("\"\r\n");
  3850  0F5E  30C7               	movlw	low (STR_8| (0+32768))
  3851  0F5F  0020               	movlb	0	; select bank0
  3852  0F60  00A6               	movwf	USARTWriteString@str
  3853  0F61  3085               	movlw	high (STR_8| (0+32768))
  3854  0F62  00A7               	movwf	USARTWriteString@str+1
  3855  0F63  318B  234B  318F   	fcall	_USARTWriteString
  3856                           
  3857                           ;sim800l.c: 45: _delay((unsigned long)((2000)*(8000000/4000.0)));
  3858  0F66  3015               	movlw	21
  3859  0F67  0020               	movlb	0	; select bank0
  3860  0F68  00B0               	movwf	??_SIM800SendSms+2
  3861  0F69  304B               	movlw	75
  3862  0F6A  00AF               	movwf	??_SIM800SendSms+1
  3863  0F6B  30D1               	movlw	209
  3864  0F6C  00AE               	movwf	??_SIM800SendSms
  3865  0F6D                     u2947:	
  3866  0F6D  0BAE               	decfsz	??_SIM800SendSms,f
  3867  0F6E  2F6D               	goto	u2947
  3868  0F6F  0BAF               	decfsz	??_SIM800SendSms+1,f
  3869  0F70  2F6D               	goto	u2947
  3870  0F71  0BB0               	decfsz	??_SIM800SendSms+2,f
  3871  0F72  2F6D               	goto	u2947
  3872  0F73  0000               	nop
  3873                           
  3874                           ;sim800l.c: 46: USARTWriteString(msg);
  3875  0F74  0020               	movlb	0	; select bank0
  3876  0F75  082D               	movf	SIM800SendSms@msg+1,w
  3877  0F76  01A7               	clrf	USARTWriteString@str+1
  3878  0F77  07A7               	addwf	USARTWriteString@str+1,f
  3879  0F78  082C               	movf	SIM800SendSms@msg,w
  3880  0F79  01A6               	clrf	USARTWriteString@str
  3881  0F7A  07A6               	addwf	USARTWriteString@str,f
  3882  0F7B  318B  234B  318F   	fcall	_USARTWriteString
  3883                           
  3884                           ;sim800l.c: 47: USARTWriteChar(0x1A);
  3885  0F7E  301A               	movlw	26
  3886  0F7F  318B  230A  318F   	fcall	_USARTWriteChar
  3887                           
  3888                           ;sim800l.c: 48: _delay((unsigned long)((2000)*(8000000/4000.0)));
  3889  0F82  3015               	movlw	21
  3890  0F83  0020               	movlb	0	; select bank0
  3891  0F84  00B0               	movwf	??_SIM800SendSms+2
  3892  0F85  304B               	movlw	75
  3893  0F86  00AF               	movwf	??_SIM800SendSms+1
  3894  0F87  30D1               	movlw	209
  3895  0F88  00AE               	movwf	??_SIM800SendSms
  3896  0F89                     u2957:	
  3897  0F89  0BAE               	decfsz	??_SIM800SendSms,f
  3898  0F8A  2F89               	goto	u2957
  3899  0F8B  0BAF               	decfsz	??_SIM800SendSms+1,f
  3900  0F8C  2F89               	goto	u2957
  3901  0F8D  0BB0               	decfsz	??_SIM800SendSms+2,f
  3902  0F8E  2F89               	goto	u2957
  3903  0F8F  0000               	nop
  3904  0F90  0008               	return
  3905  0F91                     __end_of_SIM800SendSms:	
  3906                           ;sim800l.c: 50: return 1;
  3907                           ;	Return value of _SIM800SendSms is never used
  3908                           
  3909                           
  3910                           	psect	text9
  3911  04EE                     __ptext9:	
  3912 ;; *************** function _USARTWriteLine *****************
  3913 ;; Defined at:
  3914 ;;		line 66 in file "usart.c"
  3915 ;; Parameters:    Size  Location     Type
  3916 ;;  str             2    8[BANK0 ] PTR const unsigned char 
  3917 ;;		 -> STR_22(6), STR_21(9), STR_12(9), STR_10(9), 
  3918 ;;		 -> STR_9(14), STR_7(10), STR_6(14), STR_5(5), 
  3919 ;;		 -> STR_4(12), STR_3(7), STR_2(5), STR_1(3), 
  3920 ;; Auto vars:     Size  Location     Type
  3921 ;;		None
  3922 ;; Return value:  Size  Location     Type
  3923 ;;		None               void
  3924 ;; Registers used:
  3925 ;;		wreg, fsr0l, fsr0h, status,2, status,0, pclath, cstack
  3926 ;; Tracked objects:
  3927 ;;		On entry : 0/0
  3928 ;;		On exit  : 0/0
  3929 ;;		Unchanged: 0/0
  3930 ;; Data sizes:     COMMON   BANK0   BANK1   BANK2
  3931 ;;      Params:         0       2       0       0
  3932 ;;      Locals:         0       0       0       0
  3933 ;;      Temps:          0       0       0       0
  3934 ;;      Totals:         0       2       0       0
  3935 ;;Total ram usage:        2 bytes
  3936 ;; Hardware stack levels used:    1
  3937 ;; Hardware stack levels required when called:    4
  3938 ;; This function calls:
  3939 ;;		_USARTWriteChar
  3940 ;;		_USARTWriteString
  3941 ;; This function is called by:
  3942 ;;		_SIM800init
  3943 ;;		_SIM800SendSms
  3944 ;;		_SIM800ReadSms
  3945 ;;		_SIM800DeleteSms
  3946 ;;		_main
  3947 ;;		_EEPROMPrint
  3948 ;;		_SIM800sendCommand
  3949 ;; This function uses a non-reentrant model
  3950 ;;
  3951                           
  3952                           
  3953                           ;psect for function _USARTWriteLine
  3954  04EE                     _USARTWriteLine:	
  3955                           
  3956                           ;usart.c: 68: USARTWriteChar('\r');
  3957                           
  3958                           ;incstack = 0
  3959                           ; Regs used in _USARTWriteLine: [wreg-fsr0h+status,2+status,0+pclath+cstack]
  3960  04EE  300D               	movlw	13
  3961  04EF  318B  230A  3184   	fcall	_USARTWriteChar
  3962                           
  3963                           ;usart.c: 69: USARTWriteChar('\n');
  3964  04F2  300A               	movlw	10
  3965  04F3  318B  230A  3184   	fcall	_USARTWriteChar
  3966                           
  3967                           ;usart.c: 70: USARTWriteString(str);
  3968  04F6  0020               	movlb	0	; select bank0
  3969  04F7  0829               	movf	USARTWriteLine@str+1,w
  3970  04F8  01A7               	clrf	USARTWriteString@str+1
  3971  04F9  07A7               	addwf	USARTWriteString@str+1,f
  3972  04FA  0828               	movf	USARTWriteLine@str,w
  3973  04FB  01A6               	clrf	USARTWriteString@str
  3974  04FC  07A6               	addwf	USARTWriteString@str,f
  3975  04FD  318B  234B         	fcall	_USARTWriteString
  3976  04FF  0008               	return
  3977  0500                     __end_of_USARTWriteLine:	
  3978                           
  3979                           	psect	text10
  3980  0B4B                     __ptext10:	
  3981 ;; *************** function _USARTWriteString *****************
  3982 ;; Defined at:
  3983 ;;		line 57 in file "usart.c"
  3984 ;; Parameters:    Size  Location     Type
  3985 ;;  str             2    6[BANK0 ] PTR const unsigned char 
  3986 ;;		 -> STR_24(2), STR_23(2), STR_22(6), STR_21(9), 
  3987 ;;		 -> STR_20(15), STR_19(11), SIM800L.smsmem(5), STR_16(29), 
  3988 ;;		 -> STR_15(26), STR_14(27), SIM800L.cell(15), SIM800L(120), 
  3989 ;;		 -> STR_13(3), STR_12(9), STR_11(3), STR_10(9), 
  3990 ;;		 -> STR_9(14), STR_8(4), STR_7(10), STR_6(14), 
  3991 ;;		 -> STR_5(5), STR_4(12), STR_3(7), STR_2(5), 
  3992 ;;		 -> STR_1(3), 
  3993 ;; Auto vars:     Size  Location     Type
  3994 ;;		None
  3995 ;; Return value:  Size  Location     Type
  3996 ;;		None               void
  3997 ;; Registers used:
  3998 ;;		wreg, fsr0l, fsr0h, status,2, status,0, pclath, cstack
  3999 ;; Tracked objects:
  4000 ;;		On entry : 0/0
  4001 ;;		On exit  : 0/0
  4002 ;;		Unchanged: 0/0
  4003 ;; Data sizes:     COMMON   BANK0   BANK1   BANK2
  4004 ;;      Params:         0       2       0       0
  4005 ;;      Locals:         0       0       0       0
  4006 ;;      Temps:          0       0       0       0
  4007 ;;      Totals:         0       2       0       0
  4008 ;;Total ram usage:        2 bytes
  4009 ;; Hardware stack levels used:    1
  4010 ;; Hardware stack levels required when called:    3
  4011 ;; This function calls:
  4012 ;;		_USARTWriteChar
  4013 ;; This function is called by:
  4014 ;;		_SIM800SendSms
  4015 ;;		_SIM800ReadSms
  4016 ;;		_SIM800DeleteSms
  4017 ;;		_USARTWriteLine
  4018 ;; This function uses a non-reentrant model
  4019 ;;
  4020                           
  4021                           
  4022                           ;psect for function _USARTWriteString
  4023  0B4B                     _USARTWriteString:	
  4024  0B4B                     l2075:	
  4025                           ;usart.c: 59: while(*str!='\0')
  4026                           
  4027                           ;incstack = 0
  4028                           ; Regs used in _USARTWriteString: [wreg-fsr0h+status,2+status,0+pclath+cstack]
  4029                           
  4030  0B4B  0020               	movlb	0	; select bank0
  4031  0B4C  0826               	movf	USARTWriteString@str,w
  4032  0B4D  0084               	movwf	4
  4033  0B4E  0827               	movf	USARTWriteString@str+1,w
  4034  0B4F  0085               	movwf	5
  4035  0B50  0800               	movf	0,w	;code access
  4036  0B51  3800               	iorlw	0
  4037  0B52  1903               	btfsc	3,2
  4038  0B53  0008               	return
  4039                           
  4040                           ;usart.c: 60: {
  4041                           ;usart.c: 61: USARTWriteChar(*str);
  4042  0B54  0020               	movlb	0	; select bank0
  4043  0B55  0826               	movf	USARTWriteString@str,w
  4044  0B56  0084               	movwf	4
  4045  0B57  0827               	movf	USARTWriteString@str+1,w
  4046  0B58  0085               	movwf	5
  4047  0B59  0800               	movf	0,w	;code access
  4048  0B5A  318B  230A  318B   	fcall	_USARTWriteChar
  4049                           
  4050                           ;usart.c: 62: str++;
  4051  0B5D  3001               	movlw	1
  4052  0B5E  0020               	movlb	0	; select bank0
  4053  0B5F  07A6               	addwf	USARTWriteString@str,f
  4054  0B60  3000               	movlw	0
  4055  0B61  3DA7               	addwfc	USARTWriteString@str+1,f
  4056  0B62  2B4B               	goto	l2075
  4057  0B63                     __end_of_USARTWriteString:	
  4058                           
  4059                           	psect	text11
  4060  0B0A                     __ptext11:	
  4061 ;; *************** function _USARTWriteChar *****************
  4062 ;; Defined at:
  4063 ;;		line 51 in file "usart.c"
  4064 ;; Parameters:    Size  Location     Type
  4065 ;;  ch              1    wreg     unsigned char 
  4066 ;; Auto vars:     Size  Location     Type
  4067 ;;  ch              1    5[BANK0 ] unsigned char 
  4068 ;; Return value:  Size  Location     Type
  4069 ;;		None               void
  4070 ;; Registers used:
  4071 ;;		wreg
  4072 ;; Tracked objects:
  4073 ;;		On entry : 0/0
  4074 ;;		On exit  : 0/0
  4075 ;;		Unchanged: 0/0
  4076 ;; Data sizes:     COMMON   BANK0   BANK1   BANK2
  4077 ;;      Params:         0       0       0       0
  4078 ;;      Locals:         0       1       0       0
  4079 ;;      Temps:          0       0       0       0
  4080 ;;      Totals:         0       1       0       0
  4081 ;;Total ram usage:        1 bytes
  4082 ;; Hardware stack levels used:    1
  4083 ;; Hardware stack levels required when called:    2
  4084 ;; This function calls:
  4085 ;;		Nothing
  4086 ;; This function is called by:
  4087 ;;		_SIM800SendSms
  4088 ;;		_SIM800DeleteSms
  4089 ;;		_USARTWriteString
  4090 ;;		_USARTWriteLine
  4091 ;;		_EEPROMPrint
  4092 ;;		_USARTWriteInt
  4093 ;;		_USARTGotoNewLine
  4094 ;; This function uses a non-reentrant model
  4095 ;;
  4096                           
  4097                           
  4098                           ;psect for function _USARTWriteChar
  4099  0B0A                     _USARTWriteChar:	
  4100                           
  4101                           ;incstack = 0
  4102                           ; Regs used in _USARTWriteChar: [wreg]
  4103                           ;USARTWriteChar@ch stored from wreg
  4104  0B0A  0020               	movlb	0	; select bank0
  4105  0B0B  00A5               	movwf	USARTWriteChar@ch
  4106  0B0C                     l324:	
  4107                           ;usart.c: 53: while(!PIR1bits.TXIF);
  4108                           
  4109  0B0C  1E11               	btfss	17,4	;volatile
  4110  0B0D  2B0C               	goto	l324
  4111                           
  4112                           ;usart.c: 54: TXREG=ch;
  4113  0B0E  0825               	movf	USARTWriteChar@ch,w
  4114  0B0F  0023               	movlb	3	; select bank3
  4115  0B10  009A               	movwf	26	;volatile
  4116  0B11  0008               	return
  4117  0B12                     __end_of_USARTWriteChar:	
  4118                           
  4119                           	psect	text12
  4120  071B                     __ptext12:	
  4121 ;; *************** function _EEPROMUpdatePassword *****************
  4122 ;; Defined at:
  4123 ;;		line 205 in file "eeprom.c"
  4124 ;; Parameters:    Size  Location     Type
  4125 ;;  pass            2   15[BANK0 ] PTR const unsigned char 
  4126 ;;		 -> STR_18(5), STR_17(5), 
  4127 ;; Auto vars:     Size  Location     Type
  4128 ;;		None
  4129 ;; Return value:  Size  Location     Type
  4130 ;;		None               void
  4131 ;; Registers used:
  4132 ;;		wreg, fsr0l, fsr0h, status,2, status,0, pclath, cstack
  4133 ;; Tracked objects:
  4134 ;;		On entry : 0/0
  4135 ;;		On exit  : 0/0
  4136 ;;		Unchanged: 0/0
  4137 ;; Data sizes:     COMMON   BANK0   BANK1   BANK2
  4138 ;;      Params:         0       2       0       0
  4139 ;;      Locals:         0       0       0       0
  4140 ;;      Temps:          0       3       0       0
  4141 ;;      Totals:         0       5       0       0
  4142 ;;Total ram usage:        5 bytes
  4143 ;; Hardware stack levels used:    1
  4144 ;; Hardware stack levels required when called:    4
  4145 ;; This function calls:
  4146 ;;		_EepromWrite
  4147 ;; This function is called by:
  4148 ;;		_SIM800Command
  4149 ;;		_main
  4150 ;; This function uses a non-reentrant model
  4151 ;;
  4152                           
  4153                           
  4154                           ;psect for function _EEPROMUpdatePassword
  4155  071B                     _EEPROMUpdatePassword:	
  4156                           
  4157                           ;eeprom.c: 207: EepromWrite(1900,*(pass));
  4158                           
  4159                           ;incstack = 0
  4160                           ; Regs used in _EEPROMUpdatePassword: [wreg-fsr0h+status,2+status,0+pclath+cstack]
  4161  071B  306C               	movlw	108
  4162  071C  0020               	movlb	0	; select bank0
  4163  071D  00AC               	movwf	EepromWrite@address
  4164  071E  3007               	movlw	7
  4165  071F  00AD               	movwf	EepromWrite@address+1
  4166  0720  082F               	movf	EEPROMUpdatePassword@pass,w
  4167  0721  0084               	movwf	4
  4168  0722  0830               	movf	EEPROMUpdatePassword@pass+1,w
  4169  0723  0085               	movwf	5
  4170  0724  0800               	movf	0,w	;code access
  4171  0725  00B1               	movwf	??_EEPROMUpdatePassword
  4172  0726  0831               	movf	??_EEPROMUpdatePassword,w
  4173  0727  00AE               	movwf	EepromWrite@data
  4174  0728  318B  23B9  3187   	fcall	_EepromWrite
  4175                           
  4176                           ;eeprom.c: 208: _delay((unsigned long)((5)*(8000000/4000.0)));
  4177  072B  300D               	movlw	13
  4178  072C  0020               	movlb	0	; select bank0
  4179  072D  00B2               	movwf	??_EEPROMUpdatePassword+1
  4180  072E  30FB               	movlw	251
  4181  072F  00B1               	movwf	??_EEPROMUpdatePassword
  4182  0730                     u2967:	
  4183  0730  0BB1               	decfsz	??_EEPROMUpdatePassword,f
  4184  0731  2F30               	goto	u2967
  4185  0732  0BB2               	decfsz	??_EEPROMUpdatePassword+1,f
  4186  0733  2F30               	goto	u2967
  4187  0734  3200               	nop2
  4188                           
  4189                           ;eeprom.c: 209: EepromWrite(1901,*(pass+1));
  4190  0735  306D               	movlw	109
  4191  0736  0020               	movlb	0	; select bank0
  4192  0737  00AC               	movwf	EepromWrite@address
  4193  0738  3007               	movlw	7
  4194  0739  00AD               	movwf	EepromWrite@address+1
  4195  073A  0830               	movf	EEPROMUpdatePassword@pass+1,w
  4196  073B  00B2               	movwf	??_EEPROMUpdatePassword+1
  4197  073C  082F               	movf	EEPROMUpdatePassword@pass,w
  4198  073D  00B1               	movwf	??_EEPROMUpdatePassword
  4199  073E  3001               	movlw	1
  4200  073F  0731               	addwf	??_EEPROMUpdatePassword,w
  4201  0740  0084               	movwf	4
  4202  0741  0832               	movf	??_EEPROMUpdatePassword+1,w
  4203  0742  1803               	skipnc
  4204  0743  0A32               	incf	??_EEPROMUpdatePassword+1,w
  4205  0744  0085               	movwf	5
  4206  0745  0800               	movf	0,w	;code access
  4207  0746  00B3               	movwf	??_EEPROMUpdatePassword+2
  4208  0747  0833               	movf	??_EEPROMUpdatePassword+2,w
  4209  0748  00AE               	movwf	EepromWrite@data
  4210  0749  318B  23B9  3187   	fcall	_EepromWrite
  4211                           
  4212                           ;eeprom.c: 210: _delay((unsigned long)((5)*(8000000/4000.0)));
  4213  074C  300D               	movlw	13
  4214  074D  0020               	movlb	0	; select bank0
  4215  074E  00B2               	movwf	??_EEPROMUpdatePassword+1
  4216  074F  30FB               	movlw	251
  4217  0750  00B1               	movwf	??_EEPROMUpdatePassword
  4218  0751                     u2977:	
  4219  0751  0BB1               	decfsz	??_EEPROMUpdatePassword,f
  4220  0752  2F51               	goto	u2977
  4221  0753  0BB2               	decfsz	??_EEPROMUpdatePassword+1,f
  4222  0754  2F51               	goto	u2977
  4223  0755  3200               	nop2
  4224                           
  4225                           ;eeprom.c: 211: EepromWrite(1902,*(pass+2));
  4226  0756  306E               	movlw	110
  4227  0757  0020               	movlb	0	; select bank0
  4228  0758  00AC               	movwf	EepromWrite@address
  4229  0759  3007               	movlw	7
  4230  075A  00AD               	movwf	EepromWrite@address+1
  4231  075B  0830               	movf	EEPROMUpdatePassword@pass+1,w
  4232  075C  00B2               	movwf	??_EEPROMUpdatePassword+1
  4233  075D  082F               	movf	EEPROMUpdatePassword@pass,w
  4234  075E  00B1               	movwf	??_EEPROMUpdatePassword
  4235  075F  3002               	movlw	2
  4236  0760  0731               	addwf	??_EEPROMUpdatePassword,w
  4237  0761  0084               	movwf	4
  4238  0762  0832               	movf	??_EEPROMUpdatePassword+1,w
  4239  0763  1803               	skipnc
  4240  0764  0A32               	incf	??_EEPROMUpdatePassword+1,w
  4241  0765  0085               	movwf	5
  4242  0766  0800               	movf	0,w	;code access
  4243  0767  00B3               	movwf	??_EEPROMUpdatePassword+2
  4244  0768  0833               	movf	??_EEPROMUpdatePassword+2,w
  4245  0769  00AE               	movwf	EepromWrite@data
  4246  076A  318B  23B9  3187   	fcall	_EepromWrite
  4247                           
  4248                           ;eeprom.c: 212: _delay((unsigned long)((5)*(8000000/4000.0)));
  4249  076D  300D               	movlw	13
  4250  076E  0020               	movlb	0	; select bank0
  4251  076F  00B2               	movwf	??_EEPROMUpdatePassword+1
  4252  0770  30FB               	movlw	251
  4253  0771  00B1               	movwf	??_EEPROMUpdatePassword
  4254  0772                     u2987:	
  4255  0772  0BB1               	decfsz	??_EEPROMUpdatePassword,f
  4256  0773  2F72               	goto	u2987
  4257  0774  0BB2               	decfsz	??_EEPROMUpdatePassword+1,f
  4258  0775  2F72               	goto	u2987
  4259  0776  3200               	nop2
  4260                           
  4261                           ;eeprom.c: 213: EepromWrite(1903,*(pass+3));
  4262  0777  306F               	movlw	111
  4263  0778  0020               	movlb	0	; select bank0
  4264  0779  00AC               	movwf	EepromWrite@address
  4265  077A  3007               	movlw	7
  4266  077B  00AD               	movwf	EepromWrite@address+1
  4267  077C  0830               	movf	EEPROMUpdatePassword@pass+1,w
  4268  077D  00B2               	movwf	??_EEPROMUpdatePassword+1
  4269  077E  082F               	movf	EEPROMUpdatePassword@pass,w
  4270  077F  00B1               	movwf	??_EEPROMUpdatePassword
  4271  0780  3003               	movlw	3
  4272  0781  0731               	addwf	??_EEPROMUpdatePassword,w
  4273  0782  0084               	movwf	4
  4274  0783  0832               	movf	??_EEPROMUpdatePassword+1,w
  4275  0784  1803               	skipnc
  4276  0785  0A32               	incf	??_EEPROMUpdatePassword+1,w
  4277  0786  0085               	movwf	5
  4278  0787  0800               	movf	0,w	;code access
  4279  0788  00B3               	movwf	??_EEPROMUpdatePassword+2
  4280  0789  0833               	movf	??_EEPROMUpdatePassword+2,w
  4281  078A  00AE               	movwf	EepromWrite@data
  4282  078B  318B  23B9  3187   	fcall	_EepromWrite
  4283                           
  4284                           ;eeprom.c: 214: _delay((unsigned long)((5)*(8000000/4000.0)));
  4285  078E  300D               	movlw	13
  4286  078F  0020               	movlb	0	; select bank0
  4287  0790  00B2               	movwf	??_EEPROMUpdatePassword+1
  4288  0791  30FB               	movlw	251
  4289  0792  00B1               	movwf	??_EEPROMUpdatePassword
  4290  0793                     u2997:	
  4291  0793  0BB1               	decfsz	??_EEPROMUpdatePassword,f
  4292  0794  2F93               	goto	u2997
  4293  0795  0BB2               	decfsz	??_EEPROMUpdatePassword+1,f
  4294  0796  2F93               	goto	u2997
  4295  0797  3200               	nop2
  4296  0798  0008               	return
  4297  0799                     __end_of_EEPROMUpdatePassword:	
  4298                           
  4299                           	psect	text13
  4300  0693                     __ptext13:	
  4301 ;; *************** function _EEPROMSearchNumber *****************
  4302 ;; Defined at:
  4303 ;;		line 146 in file "eeprom.c"
  4304 ;; Parameters:    Size  Location     Type
  4305 ;;  nmbr            2   16[BANK0 ] PTR const unsigned char 
  4306 ;;		 -> SIM800L.cell(15), SIM800L(120), 
  4307 ;;  nmbrLenght      1   18[BANK0 ] unsigned char 
  4308 ;; Auto vars:     Size  Location     Type
  4309 ;;  aux             2   29[BANK0 ] unsigned int 
  4310 ;;  result          2   27[BANK0 ] unsigned int 
  4311 ;;  count           2   25[BANK0 ] unsigned int 
  4312 ;; Return value:  Size  Location     Type
  4313 ;;                  2   16[BANK0 ] unsigned int 
  4314 ;; Registers used:
  4315 ;;		wreg, fsr1l, fsr1h, status,2, status,0, pclath, cstack
  4316 ;; Tracked objects:
  4317 ;;		On entry : 0/0
  4318 ;;		On exit  : 0/0
  4319 ;;		Unchanged: 0/0
  4320 ;; Data sizes:     COMMON   BANK0   BANK1   BANK2
  4321 ;;      Params:         0       3       0       0
  4322 ;;      Locals:         0       6       0       0
  4323 ;;      Temps:          0       6       0       0
  4324 ;;      Totals:         0      15       0       0
  4325 ;;Total ram usage:       15 bytes
  4326 ;; Hardware stack levels used:    1
  4327 ;; Hardware stack levels required when called:    4
  4328 ;; This function calls:
  4329 ;;		_EepromRead
  4330 ;;		___lwdiv
  4331 ;; This function is called by:
  4332 ;;		_SIM800Command
  4333 ;;		_main
  4334 ;; This function uses a non-reentrant model
  4335 ;;
  4336                           
  4337                           
  4338                           ;psect for function _EEPROMSearchNumber
  4339  0693                     _EEPROMSearchNumber:	
  4340                           
  4341                           ;eeprom.c: 148: uint16_t aux=0;
  4342                           
  4343                           ;incstack = 0
  4344                           ; Regs used in _EEPROMSearchNumber: [wreg+fsr1l+fsr1h+status,2+status,0+pclath+cstack]
  4345  0693  0020               	movlb	0	; select bank0
  4346  0694  01BD               	clrf	EEPROMSearchNumber@aux
  4347  0695  01BE               	clrf	EEPROMSearchNumber@aux+1
  4348                           
  4349                           ;eeprom.c: 149: uint16_t count=0, result=0;
  4350  0696  01B9               	clrf	EEPROMSearchNumber@count
  4351  0697  01BA               	clrf	EEPROMSearchNumber@count+1
  4352  0698  01BB               	clrf	EEPROMSearchNumber@result
  4353  0699  01BC               	clrf	EEPROMSearchNumber@result+1
  4354                           
  4355                           ;eeprom.c: 151: aux=10-1;
  4356  069A  3009               	movlw	9
  4357  069B  00BD               	movwf	EEPROMSearchNumber@aux
  4358  069C  3000               	movlw	0
  4359  069D  00BE               	movwf	EEPROMSearchNumber@aux+1
  4360                           
  4361                           ;eeprom.c: 152: if(nmbrLenght>10) nmbrLenght=10;
  4362  069E  300B               	movlw	11
  4363  069F  0232               	subwf	EEPROMSearchNumber@nmbrLenght,w
  4364  06A0  1C03               	skipc
  4365  06A1  2EF4               	goto	l2211
  4366  06A2  300A               	movlw	10
  4367  06A3  00B3               	movwf	??_EEPROMSearchNumber
  4368  06A4  0833               	movf	??_EEPROMSearchNumber,w
  4369  06A5  00B2               	movwf	EEPROMSearchNumber@nmbrLenght
  4370                           
  4371                           ;eeprom.c: 154: while(!result && aux<((180*10)-10))
  4372  06A6  2EF4               	goto	l2211
  4373  06A7                     l2195:	
  4374                           
  4375                           ;eeprom.c: 155: {
  4376                           ;eeprom.c: 156: count=0;
  4377  06A7  01B9               	clrf	EEPROMSearchNumber@count
  4378  06A8  01BA               	clrf	EEPROMSearchNumber@count+1
  4379  06A9                     l2197:	
  4380                           ;eeprom.c: 157: do{
  4381                           
  4382                           
  4383                           ;eeprom.c: 158: if(EepromRead(aux-count)==*(nmbr+10-(count+1)))
  4384  06A9  0839               	movf	EEPROMSearchNumber@count,w
  4385  06AA  3E01               	addlw	1
  4386  06AB  00B3               	movwf	??_EEPROMSearchNumber
  4387  06AC  3000               	movlw	0
  4388  06AD  3D3A               	addwfc	EEPROMSearchNumber@count+1,w
  4389  06AE  00B4               	movwf	??_EEPROMSearchNumber+1
  4390  06AF  09B3               	comf	??_EEPROMSearchNumber,f
  4391  06B0  09B4               	comf	??_EEPROMSearchNumber+1,f
  4392  06B1  0AB3               	incf	??_EEPROMSearchNumber,f
  4393  06B2  1903               	skipnz
  4394  06B3  0AB4               	incf	??_EEPROMSearchNumber+1,f
  4395  06B4  0833               	movf	??_EEPROMSearchNumber,w
  4396  06B5  0730               	addwf	EEPROMSearchNumber@nmbr,w
  4397  06B6  00B5               	movwf	??_EEPROMSearchNumber+2
  4398  06B7  0834               	movf	??_EEPROMSearchNumber+1,w
  4399  06B8  3D31               	addwfc	EEPROMSearchNumber@nmbr+1,w
  4400  06B9  00B6               	movwf	??_EEPROMSearchNumber+3
  4401  06BA  0835               	movf	??_EEPROMSearchNumber+2,w
  4402  06BB  0086               	movwf	6
  4403  06BC  0836               	movf	??_EEPROMSearchNumber+3,w
  4404  06BD  0087               	movwf	7
  4405  06BE  314A               	addfsr 1,10
  4406  06BF  0939               	comf	EEPROMSearchNumber@count,w
  4407  06C0  00B7               	movwf	??_EEPROMSearchNumber+4
  4408  06C1  093A               	comf	EEPROMSearchNumber@count+1,w
  4409  06C2  00B8               	movwf	??_EEPROMSearchNumber+5
  4410  06C3  0AB7               	incf	??_EEPROMSearchNumber+4,f
  4411  06C4  1903               	skipnz
  4412  06C5  0AB8               	incf	??_EEPROMSearchNumber+5,f
  4413  06C6  083D               	movf	EEPROMSearchNumber@aux,w
  4414  06C7  0737               	addwf	??_EEPROMSearchNumber+4,w
  4415  06C8  00AC               	movwf	EepromRead@address
  4416  06C9  083E               	movf	EEPROMSearchNumber@aux+1,w
  4417  06CA  3D38               	addwfc	??_EEPROMSearchNumber+5,w
  4418  06CB  00AD               	movwf	EepromRead@address+1
  4419  06CC  318B  2363  3186   	fcall	_EepromRead
  4420  06CF  0601               	xorwf	1,w
  4421  06D0  1D03               	skipz
  4422  06D1  2ED8               	goto	l2201
  4423                           
  4424                           ;eeprom.c: 159: {result=1;}
  4425  06D2  3001               	movlw	1
  4426  06D3  0020               	movlb	0	; select bank0
  4427  06D4  00BB               	movwf	EEPROMSearchNumber@result
  4428  06D5  3000               	movlw	0
  4429  06D6  00BC               	movwf	EEPROMSearchNumber@result+1
  4430  06D7  2EDB               	goto	l2203
  4431  06D8                     l2201:	
  4432                           
  4433                           ;eeprom.c: 160: else
  4434                           ;eeprom.c: 161: {result=0;}
  4435  06D8  0020               	movlb	0	; select bank0
  4436  06D9  01BB               	clrf	EEPROMSearchNumber@result
  4437  06DA  01BC               	clrf	EEPROMSearchNumber@result+1
  4438  06DB                     l2203:	
  4439                           
  4440                           ;eeprom.c: 162: count++;
  4441  06DB  3001               	movlw	1
  4442  06DC  07B9               	addwf	EEPROMSearchNumber@count,f
  4443  06DD  3000               	movlw	0
  4444  06DE  3DBA               	addwfc	EEPROMSearchNumber@count+1,f
  4445                           
  4446                           ;eeprom.c: 163: }while(result && count<nmbrLenght);
  4447  06DF  083C               	movf	EEPROMSearchNumber@result+1,w
  4448  06E0  043B               	iorwf	EEPROMSearchNumber@result,w
  4449  06E1  1903               	skipnz
  4450  06E2  2EEE               	goto	l2209
  4451  06E3  0832               	movf	EEPROMSearchNumber@nmbrLenght,w
  4452  06E4  00B3               	movwf	??_EEPROMSearchNumber
  4453  06E5  01B4               	clrf	??_EEPROMSearchNumber+1
  4454  06E6  0834               	movf	??_EEPROMSearchNumber+1,w
  4455  06E7  023A               	subwf	EEPROMSearchNumber@count+1,w
  4456  06E8  1D03               	skipz
  4457  06E9  2EEC               	goto	u1625
  4458  06EA  0833               	movf	??_EEPROMSearchNumber,w
  4459  06EB  0239               	subwf	EEPROMSearchNumber@count,w
  4460  06EC                     u1625:	
  4461  06EC  1C03               	skipc
  4462  06ED  2EA9               	goto	l2197
  4463  06EE                     l2209:	
  4464                           
  4465                           ;eeprom.c: 164: aux=aux+10;
  4466  06EE  083D               	movf	EEPROMSearchNumber@aux,w
  4467  06EF  3E0A               	addlw	10
  4468  06F0  00BD               	movwf	EEPROMSearchNumber@aux
  4469  06F1  3000               	movlw	0
  4470  06F2  3D3E               	addwfc	EEPROMSearchNumber@aux+1,w
  4471  06F3  00BE               	movwf	EEPROMSearchNumber@aux+1
  4472  06F4                     l2211:	
  4473  06F4  083C               	movf	EEPROMSearchNumber@result+1,w
  4474  06F5  043B               	iorwf	EEPROMSearchNumber@result,w
  4475  06F6  1D03               	skipz
  4476  06F7  2EFF               	goto	l2215
  4477  06F8  3006               	movlw	6
  4478  06F9  023E               	subwf	EEPROMSearchNumber@aux+1,w
  4479  06FA  30FE               	movlw	254
  4480  06FB  1903               	skipnz
  4481  06FC  023D               	subwf	EEPROMSearchNumber@aux,w
  4482  06FD  1C03               	skipc
  4483  06FE  2EA7               	goto	l2195
  4484  06FF                     l2215:	
  4485                           
  4486                           ;eeprom.c: 165: }
  4487                           ;eeprom.c: 166: if(result==1)
  4488  06FF  3001               	movlw	1
  4489  0700  063B               	xorwf	EEPROMSearchNumber@result,w
  4490  0701  043C               	iorwf	EEPROMSearchNumber@result+1,w
  4491  0702  1D03               	skipz
  4492  0703  2F18               	goto	l2223
  4493                           
  4494                           ;eeprom.c: 167: {
  4495                           ;eeprom.c: 168: return (aux/10);
  4496  0704  300A               	movlw	10
  4497  0705  00A5               	movwf	___lwdiv@divisor
  4498  0706  3000               	movlw	0
  4499  0707  00A6               	movwf	___lwdiv@divisor+1
  4500  0708  083E               	movf	EEPROMSearchNumber@aux+1,w
  4501  0709  01A8               	clrf	___lwdiv@dividend+1
  4502  070A  07A8               	addwf	___lwdiv@dividend+1,f
  4503  070B  083D               	movf	EEPROMSearchNumber@aux,w
  4504  070C  01A7               	clrf	___lwdiv@dividend
  4505  070D  07A7               	addwf	___lwdiv@dividend,f
  4506  070E  318C  2494         	fcall	___lwdiv
  4507  0710  0020               	movlb	0	; select bank0
  4508  0711  0826               	movf	?___lwdiv+1,w
  4509  0712  01B1               	clrf	?_EEPROMSearchNumber+1
  4510  0713  07B1               	addwf	?_EEPROMSearchNumber+1,f
  4511  0714  0825               	movf	?___lwdiv,w
  4512  0715  01B0               	clrf	?_EEPROMSearchNumber
  4513  0716  07B0               	addwf	?_EEPROMSearchNumber,f
  4514                           
  4515                           ;eeprom.c: 169: }
  4516  0717  0008               	return
  4517  0718                     l2223:	
  4518                           
  4519                           ;eeprom.c: 170: else return 0;
  4520  0718  01B0               	clrf	?_EEPROMSearchNumber
  4521  0719  01B1               	clrf	?_EEPROMSearchNumber+1
  4522  071A  0008               	return
  4523  071B                     __end_of_EEPROMSearchNumber:	
  4524                           
  4525                           	psect	text14
  4526  0C94                     __ptext14:	
  4527 ;; *************** function ___lwdiv *****************
  4528 ;; Defined at:
  4529 ;;		line 6 in file "C:\Program Files (x86)\Microchip\xc8\v1.33\sources\common\lwdiv.c"
  4530 ;; Parameters:    Size  Location     Type
  4531 ;;  divisor         2    5[BANK0 ] unsigned int 
  4532 ;;  dividend        2    7[BANK0 ] unsigned int 
  4533 ;; Auto vars:     Size  Location     Type
  4534 ;;  quotient        2   10[BANK0 ] unsigned int 
  4535 ;;  counter         1   12[BANK0 ] unsigned char 
  4536 ;; Return value:  Size  Location     Type
  4537 ;;                  2    5[BANK0 ] unsigned int 
  4538 ;; Registers used:
  4539 ;;		wreg, status,2, status,0
  4540 ;; Tracked objects:
  4541 ;;		On entry : 0/0
  4542 ;;		On exit  : 0/0
  4543 ;;		Unchanged: 0/0
  4544 ;; Data sizes:     COMMON   BANK0   BANK1   BANK2
  4545 ;;      Params:         0       4       0       0
  4546 ;;      Locals:         0       3       0       0
  4547 ;;      Temps:          0       1       0       0
  4548 ;;      Totals:         0       8       0       0
  4549 ;;Total ram usage:        8 bytes
  4550 ;; Hardware stack levels used:    1
  4551 ;; Hardware stack levels required when called:    2
  4552 ;; This function calls:
  4553 ;;		Nothing
  4554 ;; This function is called by:
  4555 ;;		_EEPROMSearchNumber
  4556 ;; This function uses a non-reentrant model
  4557 ;;
  4558                           
  4559                           
  4560                           ;psect for function ___lwdiv
  4561  0C94                     ___lwdiv:	
  4562                           
  4563                           ;incstack = 0
  4564                           ; Regs used in ___lwdiv: [wreg+status,2+status,0]
  4565  0C94  0020               	movlb	0	; select bank0
  4566  0C95  01AA               	clrf	___lwdiv@quotient
  4567  0C96  01AB               	clrf	___lwdiv@quotient+1
  4568  0C97  0826               	movf	___lwdiv@divisor+1,w
  4569  0C98  0425               	iorwf	___lwdiv@divisor,w
  4570  0C99  1903               	skipnz
  4571  0C9A  2CC4               	goto	l2165
  4572  0C9B  01AC               	clrf	___lwdiv@counter
  4573  0C9C  0AAC               	incf	___lwdiv@counter,f
  4574  0C9D                     l2153:	
  4575  0C9D  1BA6               	btfsc	___lwdiv@divisor+1,7
  4576  0C9E  2CA9               	goto	l2155
  4577  0C9F  3001               	movlw	1
  4578  0CA0                     u1515:	
  4579  0CA0  35A5               	lslf	___lwdiv@divisor,f
  4580  0CA1  0DA6               	rlf	___lwdiv@divisor+1,f
  4581  0CA2  0B89               	decfsz	9,f
  4582  0CA3  2CA0               	goto	u1515
  4583  0CA4  3001               	movlw	1
  4584  0CA5  00A9               	movwf	??___lwdiv
  4585  0CA6  0829               	movf	??___lwdiv,w
  4586  0CA7  07AC               	addwf	___lwdiv@counter,f
  4587  0CA8  2C9D               	goto	l2153
  4588  0CA9                     l2155:	
  4589  0CA9  3001               	movlw	1
  4590  0CAA                     u1535:	
  4591  0CAA  35AA               	lslf	___lwdiv@quotient,f
  4592  0CAB  0DAB               	rlf	___lwdiv@quotient+1,f
  4593  0CAC  0B89               	decfsz	9,f
  4594  0CAD  2CAA               	goto	u1535
  4595  0CAE  0826               	movf	___lwdiv@divisor+1,w
  4596  0CAF  0228               	subwf	___lwdiv@dividend+1,w
  4597  0CB0  1D03               	skipz
  4598  0CB1  2CB4               	goto	u1545
  4599  0CB2  0825               	movf	___lwdiv@divisor,w
  4600  0CB3  0227               	subwf	___lwdiv@dividend,w
  4601  0CB4                     u1545:	
  4602  0CB4  1C03               	skipc
  4603  0CB5  2CBB               	goto	l2161
  4604  0CB6  0825               	movf	___lwdiv@divisor,w
  4605  0CB7  02A7               	subwf	___lwdiv@dividend,f
  4606  0CB8  0826               	movf	___lwdiv@divisor+1,w
  4607  0CB9  3BA8               	subwfb	___lwdiv@dividend+1,f
  4608  0CBA  142A               	bsf	___lwdiv@quotient,0
  4609  0CBB                     l2161:	
  4610  0CBB  3001               	movlw	1
  4611  0CBC                     u1555:	
  4612  0CBC  36A6               	lsrf	___lwdiv@divisor+1,f
  4613  0CBD  0CA5               	rrf	___lwdiv@divisor,f
  4614  0CBE  0B89               	decfsz	9,f
  4615  0CBF  2CBC               	goto	u1555
  4616  0CC0  3001               	movlw	1
  4617  0CC1  02AC               	subwf	___lwdiv@counter,f
  4618  0CC2  1D03               	btfss	3,2
  4619  0CC3  2CA9               	goto	l2155
  4620  0CC4                     l2165:	
  4621  0CC4  082B               	movf	___lwdiv@quotient+1,w
  4622  0CC5  01A6               	clrf	?___lwdiv+1
  4623  0CC6  07A6               	addwf	?___lwdiv+1,f
  4624  0CC7  082A               	movf	___lwdiv@quotient,w
  4625  0CC8  01A5               	clrf	?___lwdiv
  4626  0CC9  07A5               	addwf	?___lwdiv,f
  4627  0CCA  0008               	return
  4628  0CCB                     __end_of___lwdiv:	
  4629                           
  4630                           	psect	text15
  4631  0D06                     __ptext15:	
  4632 ;; *************** function _EEPROMEraseAll *****************
  4633 ;; Defined at:
  4634 ;;		line 173 in file "eeprom.c"
  4635 ;; Parameters:    Size  Location     Type
  4636 ;;		None
  4637 ;; Auto vars:     Size  Location     Type
  4638 ;;		None
  4639 ;; Return value:  Size  Location     Type
  4640 ;;		None               void
  4641 ;; Registers used:
  4642 ;;		wreg, status,2, status,0, pclath, cstack
  4643 ;; Tracked objects:
  4644 ;;		On entry : 0/0
  4645 ;;		On exit  : 0/0
  4646 ;;		Unchanged: 0/0
  4647 ;; Data sizes:     COMMON   BANK0   BANK1   BANK2
  4648 ;;      Params:         0       0       0       0
  4649 ;;      Locals:         0       0       0       0
  4650 ;;      Temps:          0       3       0       0
  4651 ;;      Totals:         0       3       0       0
  4652 ;;Total ram usage:        3 bytes
  4653 ;; Hardware stack levels used:    1
  4654 ;; Hardware stack levels required when called:    3
  4655 ;; This function calls:
  4656 ;;		_EepromEnd
  4657 ;;		_EepromOpCode
  4658 ;;		_EepromStart
  4659 ;; This function is called by:
  4660 ;;		_SIM800Command
  4661 ;; This function uses a non-reentrant model
  4662 ;;
  4663                           
  4664                           
  4665                           ;psect for function _EEPROMEraseAll
  4666  0D06                     _EEPROMEraseAll:	
  4667                           
  4668                           ;eeprom.c: 175: LATBbits.LATB7=0;
  4669                           
  4670                           ;incstack = 0
  4671                           ; Regs used in _EEPROMEraseAll: [wreg+status,2+status,0+pclath+cstack]
  4672  0D06  0022               	movlb	2	; select bank2
  4673  0D07  138D               	bcf	13,7	;volatile
  4674                           
  4675                           ;eeprom.c: 176: _delay((unsigned long)((100)*(8000000/4000.0)));
  4676  0D08  3002               	movlw	2
  4677  0D09  0020               	movlb	0	; select bank0
  4678  0D0A  00AE               	movwf	??_EEPROMEraseAll+2
  4679  0D0B  3004               	movlw	4
  4680  0D0C  00AD               	movwf	??_EEPROMEraseAll+1
  4681  0D0D  30BA               	movlw	186
  4682  0D0E  00AC               	movwf	??_EEPROMEraseAll
  4683  0D0F                     u3007:	
  4684  0D0F  0BAC               	decfsz	??_EEPROMEraseAll,f
  4685  0D10  2D0F               	goto	u3007
  4686  0D11  0BAD               	decfsz	??_EEPROMEraseAll+1,f
  4687  0D12  2D0F               	goto	u3007
  4688  0D13  0BAE               	decfsz	??_EEPROMEraseAll+2,f
  4689  0D14  2D0F               	goto	u3007
  4690  0D15  0000               	nop
  4691                           
  4692                           ;eeprom.c: 177: EepromStart();
  4693  0D16  318B  2338  318D   	fcall	_EepromStart
  4694                           
  4695                           ;eeprom.c: 178: EepromOpCode(0b00000100, 0x600);
  4696  0D19  3000               	movlw	0
  4697  0D1A  0020               	movlb	0	; select bank0
  4698  0D1B  00A5               	movwf	EepromOpCode@address
  4699  0D1C  3006               	movlw	6
  4700  0D1D  00A6               	movwf	EepromOpCode@address+1
  4701  0D1E  3004               	movlw	4
  4702  0D1F  318E  26C2  318D   	fcall	_EepromOpCode
  4703                           
  4704                           ;eeprom.c: 179: EepromEnd();
  4705  0D22  318B  2312  318D   	fcall	_EepromEnd
  4706                           
  4707                           ;eeprom.c: 181: EepromStart();
  4708  0D25  318B  2338  318D   	fcall	_EepromStart
  4709                           
  4710                           ;eeprom.c: 182: EepromOpCode(0b00000100, 0x400);
  4711  0D28  3000               	movlw	0
  4712  0D29  0020               	movlb	0	; select bank0
  4713  0D2A  00A5               	movwf	EepromOpCode@address
  4714  0D2B  3004               	movlw	4
  4715  0D2C  00A6               	movwf	EepromOpCode@address+1
  4716  0D2D  3004               	movlw	4
  4717  0D2E  318E  26C2  318D   	fcall	_EepromOpCode
  4718                           
  4719                           ;eeprom.c: 183: EepromEnd();
  4720  0D31  318B  2312  318D   	fcall	_EepromEnd
  4721                           
  4722                           ;eeprom.c: 184: _delay((unsigned long)((500)*(8000000/4000.0)));
  4723  0D34  3006               	movlw	6
  4724  0D35  0020               	movlb	0	; select bank0
  4725  0D36  00AE               	movwf	??_EEPROMEraseAll+2
  4726  0D37  3013               	movlw	19
  4727  0D38  00AD               	movwf	??_EEPROMEraseAll+1
  4728  0D39  30B1               	movlw	177
  4729  0D3A  00AC               	movwf	??_EEPROMEraseAll
  4730  0D3B                     u3017:	
  4731  0D3B  0BAC               	decfsz	??_EEPROMEraseAll,f
  4732  0D3C  2D3B               	goto	u3017
  4733  0D3D  0BAD               	decfsz	??_EEPROMEraseAll+1,f
  4734  0D3E  2D3B               	goto	u3017
  4735  0D3F  0BAE               	decfsz	??_EEPROMEraseAll+2,f
  4736  0D40  2D3B               	goto	u3017
  4737  0D41  3200               	nop2
  4738  0D42  0008               	return
  4739  0D43                     __end_of_EEPROMEraseAll:	
  4740                           
  4741                           	psect	text16
  4742  0CCB                     __ptext16:	
  4743 ;; *************** function _EEPROMDeleteNumber *****************
  4744 ;; Defined at:
  4745 ;;		line 133 in file "eeprom.c"
  4746 ;; Parameters:    Size  Location     Type
  4747 ;;  position        2   15[BANK0 ] unsigned int 
  4748 ;; Auto vars:     Size  Location     Type
  4749 ;;  address         2   19[BANK0 ] unsigned int 
  4750 ;;  count           1   21[BANK0 ] unsigned char 
  4751 ;; Return value:  Size  Location     Type
  4752 ;;                  1    wreg      unsigned char 
  4753 ;; Registers used:
  4754 ;;		wreg, status,2, status,0, pclath, cstack
  4755 ;; Tracked objects:
  4756 ;;		On entry : 0/0
  4757 ;;		On exit  : 0/0
  4758 ;;		Unchanged: 0/0
  4759 ;; Data sizes:     COMMON   BANK0   BANK1   BANK2
  4760 ;;      Params:         0       2       0       0
  4761 ;;      Locals:         0       3       0       0
  4762 ;;      Temps:          0       2       0       0
  4763 ;;      Totals:         0       7       0       0
  4764 ;;Total ram usage:        7 bytes
  4765 ;; Hardware stack levels used:    1
  4766 ;; Hardware stack levels required when called:    4
  4767 ;; This function calls:
  4768 ;;		_EepromWrite
  4769 ;;		___wmul
  4770 ;; This function is called by:
  4771 ;;		_SIM800Command
  4772 ;; This function uses a non-reentrant model
  4773 ;;
  4774                           
  4775                           
  4776                           ;psect for function _EEPROMDeleteNumber
  4777  0CCB                     _EEPROMDeleteNumber:	
  4778                           
  4779                           ;eeprom.c: 135: uint8_t count=0;
  4780                           
  4781                           ;incstack = 0
  4782                           ; Regs used in _EEPROMDeleteNumber: [wreg+status,2+status,0+pclath+cstack]
  4783  0CCB  0020               	movlb	0	; select bank0
  4784  0CCC  01B5               	clrf	EEPROMDeleteNumber@count
  4785                           
  4786                           ;eeprom.c: 136: uint16_t address=0;
  4787  0CCD  01B3               	clrf	EEPROMDeleteNumber@address
  4788  0CCE  01B4               	clrf	EEPROMDeleteNumber@address+1
  4789                           
  4790                           ;eeprom.c: 137: address=position*10;
  4791  0CCF  0830               	movf	EEPROMDeleteNumber@position+1,w
  4792  0CD0  01A6               	clrf	___wmul@multiplier+1
  4793  0CD1  07A6               	addwf	___wmul@multiplier+1,f
  4794  0CD2  082F               	movf	EEPROMDeleteNumber@position,w
  4795  0CD3  01A5               	clrf	___wmul@multiplier
  4796  0CD4  07A5               	addwf	___wmul@multiplier,f
  4797  0CD5  300A               	movlw	10
  4798  0CD6  00A7               	movwf	___wmul@multiplicand
  4799  0CD7  3000               	movlw	0
  4800  0CD8  00A8               	movwf	___wmul@multiplicand+1
  4801  0CD9  318B  239B  318C   	fcall	___wmul
  4802  0CDC  0020               	movlb	0	; select bank0
  4803  0CDD  0826               	movf	?___wmul+1,w
  4804  0CDE  01B4               	clrf	EEPROMDeleteNumber@address+1
  4805  0CDF  07B4               	addwf	EEPROMDeleteNumber@address+1,f
  4806  0CE0  0825               	movf	?___wmul,w
  4807  0CE1  01B3               	clrf	EEPROMDeleteNumber@address
  4808  0CE2  07B3               	addwf	EEPROMDeleteNumber@address,f
  4809                           
  4810                           ;eeprom.c: 139: for(count=0;count<10;count++)
  4811  0CE3  01B5               	clrf	EEPROMDeleteNumber@count
  4812  0CE4                     L7:	
  4813  0CE4  300A               	movlw	10
  4814  0CE5  0235               	subwf	EEPROMDeleteNumber@count,w
  4815  0CE6  1803               	btfsc	3,0
  4816  0CE7  0008               	return
  4817                           
  4818                           ;eeprom.c: 140: {
  4819                           ;eeprom.c: 141: EepromWrite(address+count,0xFF);
  4820  0CE8  0835               	movf	EEPROMDeleteNumber@count,w
  4821  0CE9  0733               	addwf	EEPROMDeleteNumber@address,w
  4822  0CEA  00AC               	movwf	EepromWrite@address
  4823  0CEB  0834               	movf	EEPROMDeleteNumber@address+1,w
  4824  0CEC  1803               	skipnc
  4825  0CED  0A34               	incf	EEPROMDeleteNumber@address+1,w
  4826  0CEE  00AD               	movwf	EepromWrite@address+1
  4827  0CEF  30FF               	movlw	255
  4828  0CF0  00B1               	movwf	??_EEPROMDeleteNumber
  4829  0CF1  0831               	movf	??_EEPROMDeleteNumber,w
  4830  0CF2  00AE               	movwf	EepromWrite@data
  4831  0CF3  318B  23B9  318C   	fcall	_EepromWrite
  4832                           
  4833                           ;eeprom.c: 142: _delay((unsigned long)((5)*(8000000/4000.0)));
  4834  0CF6  300D               	movlw	13
  4835  0CF7  0020               	movlb	0	; select bank0
  4836  0CF8  00B2               	movwf	??_EEPROMDeleteNumber+1
  4837  0CF9  30FB               	movlw	251
  4838  0CFA  00B1               	movwf	??_EEPROMDeleteNumber
  4839  0CFB                     u3027:	
  4840  0CFB  0BB1               	decfsz	??_EEPROMDeleteNumber,f
  4841  0CFC  2CFB               	goto	u3027
  4842  0CFD  0BB2               	decfsz	??_EEPROMDeleteNumber+1,f
  4843  0CFE  2CFB               	goto	u3027
  4844  0CFF  3200               	nop2
  4845  0D00  3001               	movlw	1
  4846  0D01  0020               	movlb	0	; select bank0
  4847  0D02  00B1               	movwf	??_EEPROMDeleteNumber
  4848  0D03  0831               	movf	??_EEPROMDeleteNumber,w
  4849  0D04  07B5               	addwf	EEPROMDeleteNumber@count,f
  4850  0D05  2CE4               	goto	L7
  4851  0D06                     __end_of_EEPROMDeleteNumber:	
  4852                           ;eeprom.c: 143: }
  4853                           ;eeprom.c: 144: return 1;
  4854                           ;	Return value of _EEPROMDeleteNumber is never used
  4855                           
  4856                           
  4857                           	psect	text17
  4858  0E6E                     __ptext17:	
  4859 ;; *************** function _EEPROMCheckPassword *****************
  4860 ;; Defined at:
  4861 ;;		line 217 in file "eeprom.c"
  4862 ;; Parameters:    Size  Location     Type
  4863 ;;  pass            2   16[BANK0 ] PTR const unsigned char 
  4864 ;;		 -> SIM800L.command(25), SIM800L(120), 
  4865 ;; Auto vars:     Size  Location     Type
  4866 ;;		None
  4867 ;; Return value:  Size  Location     Type
  4868 ;;                  1    wreg      unsigned char 
  4869 ;; Registers used:
  4870 ;;		wreg, fsr1l, fsr1h, status,2, status,0, pclath, cstack
  4871 ;; Tracked objects:
  4872 ;;		On entry : 0/0
  4873 ;;		On exit  : 0/0
  4874 ;;		Unchanged: 0/0
  4875 ;; Data sizes:     COMMON   BANK0   BANK1   BANK2
  4876 ;;      Params:         0       2       0       0
  4877 ;;      Locals:         0       0       0       0
  4878 ;;      Temps:          0       1       0       0
  4879 ;;      Totals:         0       3       0       0
  4880 ;;Total ram usage:        3 bytes
  4881 ;; Hardware stack levels used:    1
  4882 ;; Hardware stack levels required when called:    4
  4883 ;; This function calls:
  4884 ;;		_EepromRead
  4885 ;; This function is called by:
  4886 ;;		_SIM800Command
  4887 ;; This function uses a non-reentrant model
  4888 ;;
  4889                           
  4890                           
  4891                           ;psect for function _EEPROMCheckPassword
  4892  0E6E                     _EEPROMCheckPassword:	
  4893                           
  4894                           ;eeprom.c: 219: password[0]=EepromRead(1900);
  4895                           
  4896                           ;incstack = 0
  4897                           ; Regs used in _EEPROMCheckPassword: [wreg+fsr1l+fsr1h+status,2+status,0+pclath+cstack]
  4898  0E6E  306C               	movlw	108
  4899  0E6F  0020               	movlb	0	; select bank0
  4900  0E70  00AC               	movwf	EepromRead@address
  4901  0E71  3007               	movlw	7
  4902  0E72  00AD               	movwf	EepromRead@address+1
  4903  0E73  318B  2363  318E   	fcall	_EepromRead
  4904  0E76  0020               	movlb	0	; select bank0
  4905  0E77  00B2               	movwf	??_EEPROMCheckPassword
  4906  0E78  0832               	movf	??_EEPROMCheckPassword,w
  4907  0E79  00DA               	movwf	_password
  4908                           
  4909                           ;eeprom.c: 220: password[1]=EepromRead(1901);
  4910  0E7A  306D               	movlw	109
  4911  0E7B  00AC               	movwf	EepromRead@address
  4912  0E7C  3007               	movlw	7
  4913  0E7D  00AD               	movwf	EepromRead@address+1
  4914  0E7E  318B  2363  318E   	fcall	_EepromRead
  4915  0E81  0020               	movlb	0	; select bank0
  4916  0E82  00B2               	movwf	??_EEPROMCheckPassword
  4917  0E83  0832               	movf	??_EEPROMCheckPassword,w
  4918  0E84  00DB               	movwf	_password+1
  4919                           
  4920                           ;eeprom.c: 221: password[2]=EepromRead(1902);
  4921  0E85  306E               	movlw	110
  4922  0E86  00AC               	movwf	EepromRead@address
  4923  0E87  3007               	movlw	7
  4924  0E88  00AD               	movwf	EepromRead@address+1
  4925  0E89  318B  2363  318E   	fcall	_EepromRead
  4926  0E8C  0020               	movlb	0	; select bank0
  4927  0E8D  00B2               	movwf	??_EEPROMCheckPassword
  4928  0E8E  0832               	movf	??_EEPROMCheckPassword,w
  4929  0E8F  00DC               	movwf	_password+2
  4930                           
  4931                           ;eeprom.c: 222: password[3]=EepromRead(1903);
  4932  0E90  306F               	movlw	111
  4933  0E91  00AC               	movwf	EepromRead@address
  4934  0E92  3007               	movlw	7
  4935  0E93  00AD               	movwf	EepromRead@address+1
  4936  0E94  318B  2363  318E   	fcall	_EepromRead
  4937  0E97  0020               	movlb	0	; select bank0
  4938  0E98  00B2               	movwf	??_EEPROMCheckPassword
  4939  0E99  0832               	movf	??_EEPROMCheckPassword,w
  4940  0E9A  00DD               	movwf	_password+3
  4941                           
  4942                           ;eeprom.c: 223: if(*(pass)==password[0] && *(pass+1)==password[1] && *(pass+2)==password
      +                          [2] && *(pass+3)==password[3])
  4943  0E9B  0830               	movf	EEPROMCheckPassword@pass,w
  4944  0E9C  0086               	movwf	6
  4945  0E9D  0831               	movf	EEPROMCheckPassword@pass+1,w
  4946  0E9E  0087               	movwf	7
  4947  0E9F  0801               	movf	1,w
  4948  0EA0  065A               	xorwf	_password,w
  4949  0EA1  1D03               	skipz
  4950  0EA2  2EC0               	goto	l2289
  4951  0EA3  0830               	movf	EEPROMCheckPassword@pass,w
  4952  0EA4  0086               	movwf	6
  4953  0EA5  0831               	movf	EEPROMCheckPassword@pass+1,w
  4954  0EA6  0087               	movwf	7
  4955  0EA7  3141               	addfsr 1,1
  4956  0EA8  0801               	movf	1,w
  4957  0EA9  065B               	xorwf	_password+1,w
  4958  0EAA  1D03               	skipz
  4959  0EAB  2EC0               	goto	l2289
  4960  0EAC  0830               	movf	EEPROMCheckPassword@pass,w
  4961  0EAD  0086               	movwf	6
  4962  0EAE  0831               	movf	EEPROMCheckPassword@pass+1,w
  4963  0EAF  0087               	movwf	7
  4964  0EB0  3142               	addfsr 1,2
  4965  0EB1  0801               	movf	1,w
  4966  0EB2  065C               	xorwf	_password+2,w
  4967  0EB3  1D03               	skipz
  4968  0EB4  2EC0               	goto	l2289
  4969  0EB5  0830               	movf	EEPROMCheckPassword@pass,w
  4970  0EB6  0086               	movwf	6
  4971  0EB7  0831               	movf	EEPROMCheckPassword@pass+1,w
  4972  0EB8  0087               	movwf	7
  4973  0EB9  3143               	addfsr 1,3
  4974  0EBA  0801               	movf	1,w
  4975  0EBB  065D               	xorwf	_password+3,w
  4976  0EBC  1D03               	skipz
  4977  0EBD  2EC0               	goto	l2289
  4978                           
  4979                           ;eeprom.c: 224: {
  4980                           ;eeprom.c: 225: return 1;
  4981  0EBE  3001               	movlw	1
  4982                           
  4983                           ;eeprom.c: 226: }
  4984  0EBF  0008               	return
  4985  0EC0                     l2289:	
  4986                           
  4987                           ;eeprom.c: 227: else
  4988                           ;eeprom.c: 228: {
  4989                           ;eeprom.c: 229: return 0;
  4990  0EC0  3000               	movlw	0
  4991  0EC1  0008               	return
  4992  0EC2                     __end_of_EEPROMCheckPassword:	
  4993                           
  4994                           	psect	text18
  4995  0E1F                     __ptext18:	
  4996 ;; *************** function _EEPROMAdd *****************
  4997 ;; Defined at:
  4998 ;;		line 188 in file "eeprom.c"
  4999 ;; Parameters:    Size  Location     Type
  5000 ;;  nmbr            2   29[BANK0 ] PTR const unsigned char 
  5001 ;;		 -> SIM800L.cell(15), SIM800L(120), 
  5002 ;;  nmbrLenght      1   31[BANK0 ] unsigned char 
  5003 ;; Auto vars:     Size  Location     Type
  5004 ;;  empty           2   36[BANK0 ] unsigned int 
  5005 ;;  found           2   33[BANK0 ] unsigned int 
  5006 ;;  aux             1   35[BANK0 ] unsigned char 
  5007 ;; Return value:  Size  Location     Type
  5008 ;;                  1    wreg      unsigned char 
  5009 ;; Registers used:
  5010 ;;		wreg, fsr1l, fsr1h, status,2, status,0, pclath, cstack
  5011 ;; Tracked objects:
  5012 ;;		On entry : 0/0
  5013 ;;		On exit  : 0/0
  5014 ;;		Unchanged: 0/0
  5015 ;; Data sizes:     COMMON   BANK0   BANK1   BANK2
  5016 ;;      Params:         0       3       0       0
  5017 ;;      Locals:         0       5       0       0
  5018 ;;      Temps:          0       1       0       0
  5019 ;;      Totals:         0       9       0       0
  5020 ;;Total ram usage:        9 bytes
  5021 ;; Hardware stack levels used:    1
  5022 ;; Hardware stack levels required when called:    5
  5023 ;; This function calls:
  5024 ;;		_EEPROMSaveNumber
  5025 ;;		_EepromRead
  5026 ;;		___wmul
  5027 ;; This function is called by:
  5028 ;;		_SIM800Command
  5029 ;; This function uses a non-reentrant model
  5030 ;;
  5031                           
  5032                           
  5033                           ;psect for function _EEPROMAdd
  5034  0E1F                     _EEPROMAdd:	
  5035                           
  5036                           ;eeprom.c: 190: uint16_t empty=0,found=0;
  5037                           
  5038                           ;incstack = 0
  5039                           ; Regs used in _EEPROMAdd: [wreg+fsr1l+fsr1h+status,2+status,0+pclath+cstack]
  5040  0E1F  0020               	movlb	0	; select bank0
  5041  0E20  01C4               	clrf	EEPROMAdd@empty
  5042  0E21  01C5               	clrf	EEPROMAdd@empty+1
  5043  0E22  01C1               	clrf	EEPROMAdd@found
  5044  0E23  01C2               	clrf	EEPROMAdd@found+1
  5045                           
  5046                           ;eeprom.c: 191: char aux=0;
  5047  0E24  01C3               	clrf	EEPROMAdd@aux
  5048  0E25                     l2245:	
  5049                           ;eeprom.c: 192: do
  5050                           
  5051                           
  5052                           ;eeprom.c: 193: {
  5053                           ;eeprom.c: 194: aux=EepromRead((empty*10));
  5054  0E25  0845               	movf	EEPROMAdd@empty+1,w
  5055  0E26  01A6               	clrf	___wmul@multiplier+1
  5056  0E27  07A6               	addwf	___wmul@multiplier+1,f
  5057  0E28  0844               	movf	EEPROMAdd@empty,w
  5058  0E29  01A5               	clrf	___wmul@multiplier
  5059  0E2A  07A5               	addwf	___wmul@multiplier,f
  5060  0E2B  300A               	movlw	10
  5061  0E2C  00A7               	movwf	___wmul@multiplicand
  5062  0E2D  3000               	movlw	0
  5063  0E2E  00A8               	movwf	___wmul@multiplicand+1
  5064  0E2F  318B  239B  318E   	fcall	___wmul
  5065  0E32  0020               	movlb	0	; select bank0
  5066  0E33  0826               	movf	?___wmul+1,w
  5067  0E34  01AD               	clrf	EepromRead@address+1
  5068  0E35  07AD               	addwf	EepromRead@address+1,f
  5069  0E36  0825               	movf	?___wmul,w
  5070  0E37  01AC               	clrf	EepromRead@address
  5071  0E38  07AC               	addwf	EepromRead@address,f
  5072  0E39  318B  2363  318E   	fcall	_EepromRead
  5073  0E3C  0020               	movlb	0	; select bank0
  5074  0E3D  00C0               	movwf	??_EEPROMAdd
  5075  0E3E  0840               	movf	??_EEPROMAdd,w
  5076  0E3F  00C3               	movwf	EEPROMAdd@aux
  5077                           
  5078                           ;eeprom.c: 195: if(aux<'0' || aux>'9')
  5079  0E40  3030               	movlw	48
  5080  0E41  0243               	subwf	EEPROMAdd@aux,w
  5081  0E42  1C03               	skipc
  5082  0E43  2E48               	goto	l2251
  5083  0E44  303A               	movlw	58
  5084  0E45  0243               	subwf	EEPROMAdd@aux,w
  5085  0E46  1C03               	skipc
  5086  0E47  2E4C               	goto	l84
  5087  0E48                     l2251:	
  5088                           
  5089                           ;eeprom.c: 196: {
  5090                           ;eeprom.c: 197: found=1;
  5091  0E48  3001               	movlw	1
  5092  0E49  00C1               	movwf	EEPROMAdd@found
  5093  0E4A  3000               	movlw	0
  5094  0E4B  00C2               	movwf	EEPROMAdd@found+1
  5095  0E4C                     l84:	
  5096                           
  5097                           ;eeprom.c: 198: }
  5098                           ;eeprom.c: 199: empty++;
  5099  0E4C  3001               	movlw	1
  5100  0E4D  07C4               	addwf	EEPROMAdd@empty,f
  5101  0E4E  3000               	movlw	0
  5102  0E4F  3DC5               	addwfc	EEPROMAdd@empty+1,f
  5103                           
  5104                           ;eeprom.c: 200: }while(!found&& empty<180);
  5105  0E50  0842               	movf	EEPROMAdd@found+1,w
  5106  0E51  0441               	iorwf	EEPROMAdd@found,w
  5107  0E52  1D03               	skipz
  5108  0E53  2E5B               	goto	l2257
  5109  0E54  3000               	movlw	0
  5110  0E55  0245               	subwf	EEPROMAdd@empty+1,w
  5111  0E56  30B4               	movlw	180
  5112  0E57  1903               	skipnz
  5113  0E58  0244               	subwf	EEPROMAdd@empty,w
  5114  0E59  1C03               	skipc
  5115  0E5A  2E25               	goto	l2245
  5116  0E5B                     l2257:	
  5117                           
  5118                           ;eeprom.c: 201: EEPROMSaveNumber(nmbr,nmbrLenght,(empty-1));
  5119  0E5B  083E               	movf	EEPROMAdd@nmbr+1,w
  5120  0E5C  01B0               	clrf	EEPROMSaveNumber@nmbr+1
  5121  0E5D  07B0               	addwf	EEPROMSaveNumber@nmbr+1,f
  5122  0E5E  083D               	movf	EEPROMAdd@nmbr,w
  5123  0E5F  01AF               	clrf	EEPROMSaveNumber@nmbr
  5124  0E60  07AF               	addwf	EEPROMSaveNumber@nmbr,f
  5125  0E61  083F               	movf	EEPROMAdd@nmbrLenght,w
  5126  0E62  00C0               	movwf	??_EEPROMAdd
  5127  0E63  0840               	movf	??_EEPROMAdd,w
  5128  0E64  00B1               	movwf	EEPROMSaveNumber@nmbrLenght
  5129  0E65  0844               	movf	EEPROMAdd@empty,w
  5130  0E66  3EFF               	addlw	255
  5131  0E67  00B2               	movwf	EEPROMSaveNumber@position
  5132  0E68  30FF               	movlw	255
  5133  0E69  3D45               	addwfc	EEPROMAdd@empty+1,w
  5134  0E6A  00B3               	movwf	EEPROMSaveNumber@position+1
  5135  0E6B  3184  2471         	fcall	_EEPROMSaveNumber
  5136  0E6D  0008               	return
  5137  0E6E                     __end_of_EEPROMAdd:	
  5138                           ;eeprom.c: 203: return 1;
  5139                           ;	Return value of _EEPROMAdd is never used
  5140                           
  5141                           
  5142                           	psect	text19
  5143  0B63                     __ptext19:	
  5144 ;; *************** function _EepromRead *****************
  5145 ;; Defined at:
  5146 ;;		line 95 in file "eeprom.c"
  5147 ;; Parameters:    Size  Location     Type
  5148 ;;  address         2   12[BANK0 ] unsigned int 
  5149 ;; Auto vars:     Size  Location     Type
  5150 ;;  data            1   15[BANK0 ] unsigned char 
  5151 ;; Return value:  Size  Location     Type
  5152 ;;                  1    wreg      unsigned char 
  5153 ;; Registers used:
  5154 ;;		wreg, status,2, status,0, pclath, cstack
  5155 ;; Tracked objects:
  5156 ;;		On entry : 0/0
  5157 ;;		On exit  : 0/0
  5158 ;;		Unchanged: 0/0
  5159 ;; Data sizes:     COMMON   BANK0   BANK1   BANK2
  5160 ;;      Params:         0       2       0       0
  5161 ;;      Locals:         0       1       0       0
  5162 ;;      Temps:          0       1       0       0
  5163 ;;      Totals:         0       4       0       0
  5164 ;;Total ram usage:        4 bytes
  5165 ;; Hardware stack levels used:    1
  5166 ;; Hardware stack levels required when called:    3
  5167 ;; This function calls:
  5168 ;;		_EepromEnd
  5169 ;;		_EepromOpCode
  5170 ;;		_EepromReceive
  5171 ;;		_EepromStart
  5172 ;; This function is called by:
  5173 ;;		_EEPROMSearchNumber
  5174 ;;		_EEPROMAdd
  5175 ;;		_EEPROMCheckPassword
  5176 ;;		_EEPROMPrint
  5177 ;; This function uses a non-reentrant model
  5178 ;;
  5179                           
  5180                           
  5181                           ;psect for function _EepromRead
  5182  0B63                     _EepromRead:	
  5183                           
  5184                           ;eeprom.c: 97: uint8_t data=0;
  5185                           
  5186                           ;incstack = 0
  5187                           ; Regs used in _EepromRead: [wreg+status,2+status,0+pclath+cstack]
  5188  0B63  0020               	movlb	0	; select bank0
  5189  0B64  01AF               	clrf	EepromRead@data
  5190                           
  5191                           ;eeprom.c: 99: EepromStart();
  5192  0B65  318B  2338  318B   	fcall	_EepromStart
  5193                           
  5194                           ;eeprom.c: 100: EepromOpCode(0b00000110, address);
  5195  0B68  0020               	movlb	0	; select bank0
  5196  0B69  082D               	movf	EepromRead@address+1,w
  5197  0B6A  01A6               	clrf	EepromOpCode@address+1
  5198  0B6B  07A6               	addwf	EepromOpCode@address+1,f
  5199  0B6C  082C               	movf	EepromRead@address,w
  5200  0B6D  01A5               	clrf	EepromOpCode@address
  5201  0B6E  07A5               	addwf	EepromOpCode@address,f
  5202  0B6F  3006               	movlw	6
  5203  0B70  318E  26C2  318B   	fcall	_EepromOpCode
  5204                           
  5205                           ;eeprom.c: 101: data=EepromReceive();
  5206  0B73  318B  23DE  318B   	fcall	_EepromReceive
  5207  0B76  0020               	movlb	0	; select bank0
  5208  0B77  00AE               	movwf	??_EepromRead
  5209  0B78  082E               	movf	??_EepromRead,w
  5210  0B79  00AF               	movwf	EepromRead@data
  5211                           
  5212                           ;eeprom.c: 102: EepromEnd();
  5213  0B7A  318B  2312         	fcall	_EepromEnd
  5214                           
  5215                           ;eeprom.c: 103: return data;
  5216  0B7C  0020               	movlb	0	; select bank0
  5217  0B7D  082F               	movf	EepromRead@data,w
  5218  0B7E  0008               	return
  5219  0B7F                     __end_of_EepromRead:	
  5220                           
  5221                           	psect	text20
  5222  0BDE                     __ptext20:	
  5223 ;; *************** function _EepromReceive *****************
  5224 ;; Defined at:
  5225 ;;		line 40 in file "eeprom.c"
  5226 ;; Parameters:    Size  Location     Type
  5227 ;;		None
  5228 ;; Auto vars:     Size  Location     Type
  5229 ;;  i               1    8[BANK0 ] char 
  5230 ;;  b               1    7[BANK0 ] unsigned char 
  5231 ;; Return value:  Size  Location     Type
  5232 ;;                  1    wreg      unsigned char 
  5233 ;; Registers used:
  5234 ;;		wreg, status,2, status,0
  5235 ;; Tracked objects:
  5236 ;;		On entry : 0/0
  5237 ;;		On exit  : 0/0
  5238 ;;		Unchanged: 0/0
  5239 ;; Data sizes:     COMMON   BANK0   BANK1   BANK2
  5240 ;;      Params:         0       0       0       0
  5241 ;;      Locals:         0       2       0       0
  5242 ;;      Temps:          0       2       0       0
  5243 ;;      Totals:         0       4       0       0
  5244 ;;Total ram usage:        4 bytes
  5245 ;; Hardware stack levels used:    1
  5246 ;; Hardware stack levels required when called:    2
  5247 ;; This function calls:
  5248 ;;		Nothing
  5249 ;; This function is called by:
  5250 ;;		_EepromRead
  5251 ;; This function uses a non-reentrant model
  5252 ;;
  5253                           
  5254                           
  5255                           ;psect for function _EepromReceive
  5256  0BDE                     _EepromReceive:	
  5257                           
  5258                           ;eeprom.c: 42: uint8_t b=0;
  5259                           
  5260                           ;incstack = 0
  5261                           ; Regs used in _EepromReceive: [wreg+status,2+status,0]
  5262  0BDE  0020               	movlb	0	; select bank0
  5263  0BDF  01A7               	clrf	EepromReceive@b
  5264                           
  5265                           ;eeprom.c: 43: int8_t i=0;
  5266  0BE0  01A8               	clrf	EepromReceive@i
  5267                           
  5268                           ;eeprom.c: 44: for(i=7;i>=0;i--)
  5269  0BE1  3007               	movlw	7
  5270  0BE2  00A5               	movwf	??_EepromReceive
  5271  0BE3  0825               	movf	??_EepromReceive,w
  5272  0BE4  00A8               	movwf	EepromReceive@i
  5273  0BE5  1BA8               	btfsc	EepromReceive@i,7
  5274  0BE6  2C08               	goto	l2063
  5275  0BE7                     l34:	
  5276                           
  5277                           ;eeprom.c: 45: {
  5278                           ;eeprom.c: 46: _delay((unsigned long)((4/2)*(8000000/4000000.0)));
  5279  0BE7  3200               	nop2	;2 cycle nop
  5280  0BE8  3200               	nop2	;2 cycle nop
  5281                           
  5282                           ;eeprom.c: 47: LATBbits.LATB6=1;
  5283  0BE9  0022               	movlb	2	; select bank2
  5284  0BEA  170D               	bsf	13,6	;volatile
  5285                           
  5286                           ;eeprom.c: 48: _delay((unsigned long)((4/2)*(8000000/4000000.0)));
  5287  0BEB  3200               	nop2	;2 cycle nop
  5288  0BEC  3200               	nop2	;2 cycle nop
  5289                           
  5290                           ;eeprom.c: 49: b=b+(PORTBbits.RB4<<i);
  5291  0BED  0020               	movlb	0	; select bank0
  5292  0BEE  0E0D               	swapf	13,w	;volatile
  5293  0BEF  3901               	andlw	1
  5294  0BF0  00A5               	movwf	??_EepromReceive
  5295  0BF1  0A28               	incf	EepromReceive@i,w
  5296  0BF2  2BF4               	goto	u1384
  5297  0BF3                     u1385:	
  5298  0BF3  35A5               	lslf	??_EepromReceive,f
  5299  0BF4                     u1384:	
  5300  0BF4  0B89               	decfsz	9,f
  5301  0BF5  2BF3               	goto	u1385
  5302  0BF6  0825               	movf	??_EepromReceive,w
  5303  0BF7  0727               	addwf	EepromReceive@b,w
  5304  0BF8  00A6               	movwf	??_EepromReceive+1
  5305  0BF9  0826               	movf	??_EepromReceive+1,w
  5306  0BFA  00A7               	movwf	EepromReceive@b
  5307                           
  5308                           ;eeprom.c: 50: _delay((unsigned long)((4/2)*(8000000/4000000.0)));
  5309  0BFB  3200               	nop2	;2 cycle nop
  5310  0BFC  3200               	nop2	;2 cycle nop
  5311                           
  5312                           ;eeprom.c: 51: LATBbits.LATB6=0;
  5313  0BFD  0022               	movlb	2	; select bank2
  5314  0BFE  130D               	bcf	13,6	;volatile
  5315                           
  5316                           ;eeprom.c: 52: _delay((unsigned long)((4/2)*(8000000/4000000.0)));
  5317  0BFF  3200               	nop2	;2 cycle nop
  5318  0C00  3200               	nop2	;2 cycle nop
  5319  0C01  30FF               	movlw	-1
  5320  0C02  0020               	movlb	0	; select bank0
  5321  0C03  00A5               	movwf	??_EepromReceive
  5322  0C04  0825               	movf	??_EepromReceive,w
  5323  0C05  07A8               	addwf	EepromReceive@i,f
  5324  0C06  1FA8               	btfss	EepromReceive@i,7
  5325  0C07  2BE7               	goto	l34
  5326  0C08                     l2063:	
  5327                           
  5328                           ;eeprom.c: 53: }
  5329                           ;eeprom.c: 54: return b;
  5330  0C08  0827               	movf	EepromReceive@b,w
  5331  0C09  0008               	return
  5332  0C0A                     __end_of_EepromReceive:	
  5333                           
  5334                           	psect	text21
  5335  0471                     __ptext21:	
  5336 ;; *************** function _EEPROMSaveNumber *****************
  5337 ;; Defined at:
  5338 ;;		line 106 in file "eeprom.c"
  5339 ;; Parameters:    Size  Location     Type
  5340 ;;  nmbr            2   15[BANK0 ] PTR const unsigned char 
  5341 ;;		 -> SIM800L.cell(15), SIM800L(120), 
  5342 ;;  nmbrLenght      1   17[BANK0 ] unsigned char 
  5343 ;;  position        2   18[BANK0 ] unsigned int 
  5344 ;; Auto vars:     Size  Location     Type
  5345 ;;  address         2   27[BANK0 ] unsigned int 
  5346 ;;  count           2   25[BANK0 ] unsigned int 
  5347 ;;  result          2   23[BANK0 ] unsigned int 
  5348 ;; Return value:  Size  Location     Type
  5349 ;;                  1    wreg      unsigned char 
  5350 ;; Registers used:
  5351 ;;		wreg, fsr1l, fsr1h, status,2, status,0, pclath, cstack
  5352 ;; Tracked objects:
  5353 ;;		On entry : 0/0
  5354 ;;		On exit  : 0/0
  5355 ;;		Unchanged: 0/0
  5356 ;; Data sizes:     COMMON   BANK0   BANK1   BANK2
  5357 ;;      Params:         0       5       0       0
  5358 ;;      Locals:         0       6       0       0
  5359 ;;      Temps:          0       3       0       0
  5360 ;;      Totals:         0      14       0       0
  5361 ;;Total ram usage:       14 bytes
  5362 ;; Hardware stack levels used:    1
  5363 ;; Hardware stack levels required when called:    4
  5364 ;; This function calls:
  5365 ;;		_EepromWrite
  5366 ;;		___wmul
  5367 ;; This function is called by:
  5368 ;;		_EEPROMAdd
  5369 ;; This function uses a non-reentrant model
  5370 ;;
  5371                           
  5372                           
  5373                           ;psect for function _EEPROMSaveNumber
  5374  0471                     _EEPROMSaveNumber:	
  5375                           
  5376                           ;eeprom.c: 108: uint16_t count=0,result=1;
  5377                           
  5378                           ;incstack = 0
  5379                           ; Regs used in _EEPROMSaveNumber: [wreg+fsr1l+fsr1h+status,2+status,0+pclath+cstack]
  5380  0471  0020               	movlb	0	; select bank0
  5381  0472  01B9               	clrf	EEPROMSaveNumber@count
  5382  0473  01BA               	clrf	EEPROMSaveNumber@count+1
  5383  0474  3001               	movlw	1
  5384  0475  00B7               	movwf	EEPROMSaveNumber@result
  5385  0476  3000               	movlw	0
  5386  0477  00B8               	movwf	EEPROMSaveNumber@result+1
  5387                           
  5388                           ;eeprom.c: 109: uint16_t address=0;
  5389  0478  01BB               	clrf	EEPROMSaveNumber@address
  5390  0479  01BC               	clrf	EEPROMSaveNumber@address+1
  5391                           
  5392                           ;eeprom.c: 110: address=position*10;
  5393  047A  0833               	movf	EEPROMSaveNumber@position+1,w
  5394  047B  01A6               	clrf	___wmul@multiplier+1
  5395  047C  07A6               	addwf	___wmul@multiplier+1,f
  5396  047D  0832               	movf	EEPROMSaveNumber@position,w
  5397  047E  01A5               	clrf	___wmul@multiplier
  5398  047F  07A5               	addwf	___wmul@multiplier,f
  5399  0480  300A               	movlw	10
  5400  0481  00A7               	movwf	___wmul@multiplicand
  5401  0482  3000               	movlw	0
  5402  0483  00A8               	movwf	___wmul@multiplicand+1
  5403  0484  318B  239B  3184   	fcall	___wmul
  5404  0487  0020               	movlb	0	; select bank0
  5405  0488  0826               	movf	?___wmul+1,w
  5406  0489  01BC               	clrf	EEPROMSaveNumber@address+1
  5407  048A  07BC               	addwf	EEPROMSaveNumber@address+1,f
  5408  048B  0825               	movf	?___wmul,w
  5409  048C  01BB               	clrf	EEPROMSaveNumber@address
  5410  048D  07BB               	addwf	EEPROMSaveNumber@address,f
  5411                           
  5412                           ;eeprom.c: 111: address=address+(10-1);
  5413  048E  083B               	movf	EEPROMSaveNumber@address,w
  5414  048F  3E09               	addlw	9
  5415  0490  00BB               	movwf	EEPROMSaveNumber@address
  5416  0491  3000               	movlw	0
  5417  0492  3D3C               	addwfc	EEPROMSaveNumber@address+1,w
  5418  0493  00BC               	movwf	EEPROMSaveNumber@address+1
  5419                           
  5420                           ;eeprom.c: 113: for(count=10;count>0;count--)
  5421  0494  300A               	movlw	10
  5422  0495  00B9               	movwf	EEPROMSaveNumber@count
  5423  0496  3000               	movlw	0
  5424  0497  00BA               	movwf	EEPROMSaveNumber@count+1
  5425  0498                     L9:	
  5426  0498  083A               	movf	EEPROMSaveNumber@count+1,w
  5427  0499  0439               	iorwf	EEPROMSaveNumber@count,w
  5428  049A  1903               	btfsc	3,2
  5429  049B  0008               	return
  5430                           
  5431                           ;eeprom.c: 114: {
  5432                           ;eeprom.c: 115: if(nmbrLenght)
  5433  049C  0831               	movf	EEPROMSaveNumber@nmbrLenght,w
  5434  049D  1903               	btfsc	3,2
  5435  049E  2CCF               	goto	l2129
  5436                           
  5437                           ;eeprom.c: 116: {
  5438                           ;eeprom.c: 117: nmbrLenght--;
  5439  049F  3001               	movlw	1
  5440  04A0  02B1               	subwf	EEPROMSaveNumber@nmbrLenght,f
  5441                           
  5442                           ;eeprom.c: 118: if(*(nmbr+nmbrLenght)>='0' && *(nmbr+nmbrLenght)<='9')
  5443  04A1  0831               	movf	EEPROMSaveNumber@nmbrLenght,w
  5444  04A2  00B4               	movwf	??_EEPROMSaveNumber
  5445  04A3  01B5               	clrf	??_EEPROMSaveNumber+1
  5446  04A4  0834               	movf	??_EEPROMSaveNumber,w
  5447  04A5  072F               	addwf	EEPROMSaveNumber@nmbr,w
  5448  04A6  0086               	movwf	6
  5449  04A7  0835               	movf	??_EEPROMSaveNumber+1,w
  5450  04A8  3D30               	addwfc	EEPROMSaveNumber@nmbr+1,w
  5451  04A9  0087               	movwf	7
  5452  04AA  3030               	movlw	48
  5453  04AB  0201               	subwf	1,w
  5454  04AC  1C03               	skipc
  5455  04AD  2CDA               	goto	l2131
  5456  04AE  0831               	movf	EEPROMSaveNumber@nmbrLenght,w
  5457  04AF  00B4               	movwf	??_EEPROMSaveNumber
  5458  04B0  01B5               	clrf	??_EEPROMSaveNumber+1
  5459  04B1  0834               	movf	??_EEPROMSaveNumber,w
  5460  04B2  072F               	addwf	EEPROMSaveNumber@nmbr,w
  5461  04B3  0086               	movwf	6
  5462  04B4  0835               	movf	??_EEPROMSaveNumber+1,w
  5463  04B5  3D30               	addwfc	EEPROMSaveNumber@nmbr+1,w
  5464  04B6  0087               	movwf	7
  5465  04B7  303A               	movlw	58
  5466  04B8  0201               	subwf	1,w
  5467  04B9  1803               	skipnc
  5468  04BA  2CDA               	goto	l2131
  5469                           
  5470                           ;eeprom.c: 119: {
  5471                           ;eeprom.c: 120: EepromWrite(address,*(nmbr+nmbrLenght));
  5472  04BB  083C               	movf	EEPROMSaveNumber@address+1,w
  5473  04BC  01AD               	clrf	EepromWrite@address+1
  5474  04BD  07AD               	addwf	EepromWrite@address+1,f
  5475  04BE  083B               	movf	EEPROMSaveNumber@address,w
  5476  04BF  01AC               	clrf	EepromWrite@address
  5477  04C0  07AC               	addwf	EepromWrite@address,f
  5478  04C1  0831               	movf	EEPROMSaveNumber@nmbrLenght,w
  5479  04C2  00B4               	movwf	??_EEPROMSaveNumber
  5480  04C3  01B5               	clrf	??_EEPROMSaveNumber+1
  5481  04C4  0834               	movf	??_EEPROMSaveNumber,w
  5482  04C5  072F               	addwf	EEPROMSaveNumber@nmbr,w
  5483  04C6  0086               	movwf	6
  5484  04C7  0835               	movf	??_EEPROMSaveNumber+1,w
  5485  04C8  3D30               	addwfc	EEPROMSaveNumber@nmbr+1,w
  5486  04C9  0087               	movwf	7
  5487  04CA  0801               	movf	1,w
  5488  04CB  00B6               	movwf	??_EEPROMSaveNumber+2
  5489  04CC  0836               	movf	??_EEPROMSaveNumber+2,w
  5490  04CD  00AE               	movwf	EepromWrite@data
  5491  04CE  2CD7               	goto	L8
  5492  04CF                     l2129:	
  5493                           ;eeprom.c: 121: }
  5494                           ;eeprom.c: 122: }
  5495                           
  5496                           
  5497                           ;eeprom.c: 123: else
  5498                           ;eeprom.c: 124: {
  5499                           ;eeprom.c: 125: EepromWrite(address,'\0');
  5500  04CF  0020               	movlb	0	; select bank0
  5501  04D0  083C               	movf	EEPROMSaveNumber@address+1,w
  5502  04D1  01AD               	clrf	EepromWrite@address+1
  5503  04D2  07AD               	addwf	EepromWrite@address+1,f
  5504  04D3  083B               	movf	EEPROMSaveNumber@address,w
  5505  04D4  01AC               	clrf	EepromWrite@address
  5506  04D5  07AC               	addwf	EepromWrite@address,f
  5507  04D6  01AE               	clrf	EepromWrite@data
  5508  04D7                     L8:	
  5509  04D7  318B  23B9  3184   	fcall	_EepromWrite
  5510  04DA                     l2131:	
  5511                           
  5512                           ;eeprom.c: 126: }
  5513                           ;eeprom.c: 127: address--;
  5514  04DA  3001               	movlw	1
  5515  04DB  0020               	movlb	0	; select bank0
  5516  04DC  02BB               	subwf	EEPROMSaveNumber@address,f
  5517  04DD  3000               	movlw	0
  5518  04DE  3BBC               	subwfb	EEPROMSaveNumber@address+1,f
  5519                           
  5520                           ;eeprom.c: 128: _delay((unsigned long)((5)*(8000000/4000.0)));
  5521  04DF  300D               	movlw	13
  5522  04E0  00B5               	movwf	??_EEPROMSaveNumber+1
  5523  04E1  30FB               	movlw	251
  5524  04E2  00B4               	movwf	??_EEPROMSaveNumber
  5525  04E3                     u3037:	
  5526  04E3  0BB4               	decfsz	??_EEPROMSaveNumber,f
  5527  04E4  2CE3               	goto	u3037
  5528  04E5  0BB5               	decfsz	??_EEPROMSaveNumber+1,f
  5529  04E6  2CE3               	goto	u3037
  5530  04E7  3200               	nop2
  5531  04E8  3001               	movlw	1
  5532  04E9  0020               	movlb	0	; select bank0
  5533  04EA  02B9               	subwf	EEPROMSaveNumber@count,f
  5534  04EB  3000               	movlw	0
  5535  04EC  3BBA               	subwfb	EEPROMSaveNumber@count+1,f
  5536  04ED  2C98               	goto	L9
  5537  04EE                     __end_of_EEPROMSaveNumber:	
  5538                           ;eeprom.c: 129: }
  5539                           ;eeprom.c: 130: return result;
  5540                           ;	Return value of _EEPROMSaveNumber is never used
  5541                           
  5542                           
  5543                           	psect	text22
  5544  0B9B                     __ptext22:	
  5545 ;; *************** function ___wmul *****************
  5546 ;; Defined at:
  5547 ;;		line 15 in file "C:\Program Files (x86)\Microchip\xc8\v1.33\sources\common\Umul16.c"
  5548 ;; Parameters:    Size  Location     Type
  5549 ;;  multiplier      2    5[BANK0 ] unsigned int 
  5550 ;;  multiplicand    2    7[BANK0 ] unsigned int 
  5551 ;; Auto vars:     Size  Location     Type
  5552 ;;  product         2    9[BANK0 ] unsigned int 
  5553 ;; Return value:  Size  Location     Type
  5554 ;;                  2    5[BANK0 ] unsigned int 
  5555 ;; Registers used:
  5556 ;;		wreg, status,2, status,0
  5557 ;; Tracked objects:
  5558 ;;		On entry : 0/0
  5559 ;;		On exit  : 0/0
  5560 ;;		Unchanged: 0/0
  5561 ;; Data sizes:     COMMON   BANK0   BANK1   BANK2
  5562 ;;      Params:         0       4       0       0
  5563 ;;      Locals:         0       2       0       0
  5564 ;;      Temps:          0       0       0       0
  5565 ;;      Totals:         0       6       0       0
  5566 ;;Total ram usage:        6 bytes
  5567 ;; Hardware stack levels used:    1
  5568 ;; Hardware stack levels required when called:    2
  5569 ;; This function calls:
  5570 ;;		Nothing
  5571 ;; This function is called by:
  5572 ;;		_EEPROMSaveNumber
  5573 ;;		_EEPROMDeleteNumber
  5574 ;;		_EEPROMAdd
  5575 ;;		_EEPROMPrint
  5576 ;; This function uses a non-reentrant model
  5577 ;;
  5578                           
  5579                           
  5580                           ;psect for function ___wmul
  5581  0B9B                     ___wmul:	
  5582                           
  5583                           ;incstack = 0
  5584                           ; Regs used in ___wmul: [wreg+status,2+status,0]
  5585  0B9B  0020               	movlb	0	; select bank0
  5586  0B9C  01A9               	clrf	___wmul@product
  5587  0B9D  01AA               	clrf	___wmul@product+1
  5588  0B9E                     l2079:	
  5589  0B9E  1C25               	btfss	___wmul@multiplier,0
  5590  0B9F  2BA4               	goto	l546
  5591  0BA0  0827               	movf	___wmul@multiplicand,w
  5592  0BA1  07A9               	addwf	___wmul@product,f
  5593  0BA2  0828               	movf	___wmul@multiplicand+1,w
  5594  0BA3  3DAA               	addwfc	___wmul@product+1,f
  5595  0BA4                     l546:	
  5596  0BA4  3001               	movlw	1
  5597  0BA5                     u1425:	
  5598  0BA5  35A7               	lslf	___wmul@multiplicand,f
  5599  0BA6  0DA8               	rlf	___wmul@multiplicand+1,f
  5600  0BA7  0B89               	decfsz	9,f
  5601  0BA8  2BA5               	goto	u1425
  5602  0BA9  3001               	movlw	1
  5603  0BAA                     u1435:	
  5604  0BAA  36A6               	lsrf	___wmul@multiplier+1,f
  5605  0BAB  0CA5               	rrf	___wmul@multiplier,f
  5606  0BAC  0B89               	decfsz	9,f
  5607  0BAD  2BAA               	goto	u1435
  5608  0BAE  0826               	movf	___wmul@multiplier+1,w
  5609  0BAF  0425               	iorwf	___wmul@multiplier,w
  5610  0BB0  1D03               	skipz
  5611  0BB1  2B9E               	goto	l2079
  5612  0BB2  082A               	movf	___wmul@product+1,w
  5613  0BB3  01A6               	clrf	?___wmul+1
  5614  0BB4  07A6               	addwf	?___wmul+1,f
  5615  0BB5  0829               	movf	___wmul@product,w
  5616  0BB6  01A5               	clrf	?___wmul
  5617  0BB7  07A5               	addwf	?___wmul,f
  5618  0BB8  0008               	return
  5619  0BB9                     __end_of___wmul:	
  5620                           
  5621                           	psect	text23
  5622  0BB9                     __ptext23:	
  5623 ;; *************** function _EepromWrite *****************
  5624 ;; Defined at:
  5625 ;;		line 83 in file "eeprom.c"
  5626 ;; Parameters:    Size  Location     Type
  5627 ;;  address         2   12[BANK0 ] unsigned int 
  5628 ;;  data            1   14[BANK0 ] unsigned char 
  5629 ;; Auto vars:     Size  Location     Type
  5630 ;;		None
  5631 ;; Return value:  Size  Location     Type
  5632 ;;		None               void
  5633 ;; Registers used:
  5634 ;;		wreg, status,2, status,0, pclath, cstack
  5635 ;; Tracked objects:
  5636 ;;		On entry : 0/0
  5637 ;;		On exit  : 0/0
  5638 ;;		Unchanged: 0/0
  5639 ;; Data sizes:     COMMON   BANK0   BANK1   BANK2
  5640 ;;      Params:         0       3       0       0
  5641 ;;      Locals:         0       0       0       0
  5642 ;;      Temps:          0       0       0       0
  5643 ;;      Totals:         0       3       0       0
  5644 ;;Total ram usage:        3 bytes
  5645 ;; Hardware stack levels used:    1
  5646 ;; Hardware stack levels required when called:    3
  5647 ;; This function calls:
  5648 ;;		_EepromEnd
  5649 ;;		_EepromOpCode
  5650 ;;		_EepromSend
  5651 ;;		_EepromStart
  5652 ;; This function is called by:
  5653 ;;		_EEPROMSaveNumber
  5654 ;;		_EEPROMDeleteNumber
  5655 ;;		_EEPROMUpdatePassword
  5656 ;; This function uses a non-reentrant model
  5657 ;;
  5658                           
  5659                           
  5660                           ;psect for function _EepromWrite
  5661  0BB9                     _EepromWrite:	
  5662                           
  5663                           ;eeprom.c: 85: EepromStart();
  5664                           
  5665                           ;incstack = 0
  5666                           ; Regs used in _EepromWrite: [wreg+status,2+status,0+pclath+cstack]
  5667  0BB9  318B  2338  318B   	fcall	_EepromStart
  5668                           
  5669                           ;eeprom.c: 86: EepromOpCode(0b00000100, 0x600);
  5670  0BBC  3000               	movlw	0
  5671  0BBD  0020               	movlb	0	; select bank0
  5672  0BBE  00A5               	movwf	EepromOpCode@address
  5673  0BBF  3006               	movlw	6
  5674  0BC0  00A6               	movwf	EepromOpCode@address+1
  5675  0BC1  3004               	movlw	4
  5676  0BC2  318E  26C2  318B   	fcall	_EepromOpCode
  5677                           
  5678                           ;eeprom.c: 87: EepromEnd();
  5679  0BC5  318B  2312  318B   	fcall	_EepromEnd
  5680                           
  5681                           ;eeprom.c: 89: EepromStart();
  5682  0BC8  318B  2338  318B   	fcall	_EepromStart
  5683                           
  5684                           ;eeprom.c: 90: EepromOpCode(0b00000101, address);
  5685  0BCB  0020               	movlb	0	; select bank0
  5686  0BCC  082D               	movf	EepromWrite@address+1,w
  5687  0BCD  01A6               	clrf	EepromOpCode@address+1
  5688  0BCE  07A6               	addwf	EepromOpCode@address+1,f
  5689  0BCF  082C               	movf	EepromWrite@address,w
  5690  0BD0  01A5               	clrf	EepromOpCode@address
  5691  0BD1  07A5               	addwf	EepromOpCode@address,f
  5692  0BD2  3005               	movlw	5
  5693  0BD3  318E  26C2  318B   	fcall	_EepromOpCode
  5694                           
  5695                           ;eeprom.c: 91: EepromSend(data);
  5696  0BD6  0020               	movlb	0	; select bank0
  5697  0BD7  082E               	movf	EepromWrite@data,w
  5698  0BD8  318C  2466  318B   	fcall	_EepromSend
  5699                           
  5700                           ;eeprom.c: 92: EepromEnd();
  5701  0BDB  318B  2312         	fcall	_EepromEnd
  5702  0BDD  0008               	return
  5703  0BDE                     __end_of_EepromWrite:	
  5704                           
  5705                           	psect	text24
  5706  0B38                     __ptext24:	
  5707 ;; *************** function _EepromStart *****************
  5708 ;; Defined at:
  5709 ;;		line 6 in file "eeprom.c"
  5710 ;; Parameters:    Size  Location     Type
  5711 ;;		None
  5712 ;; Auto vars:     Size  Location     Type
  5713 ;;		None
  5714 ;; Return value:  Size  Location     Type
  5715 ;;		None               void
  5716 ;; Registers used:
  5717 ;;		wreg
  5718 ;; Tracked objects:
  5719 ;;		On entry : 0/0
  5720 ;;		On exit  : 0/0
  5721 ;;		Unchanged: 0/0
  5722 ;; Data sizes:     COMMON   BANK0   BANK1   BANK2
  5723 ;;      Params:         0       0       0       0
  5724 ;;      Locals:         0       0       0       0
  5725 ;;      Temps:          0       1       0       0
  5726 ;;      Totals:         0       1       0       0
  5727 ;;Total ram usage:        1 bytes
  5728 ;; Hardware stack levels used:    1
  5729 ;; Hardware stack levels required when called:    2
  5730 ;; This function calls:
  5731 ;;		Nothing
  5732 ;; This function is called by:
  5733 ;;		_EepromWrite
  5734 ;;		_EepromRead
  5735 ;;		_EEPROMEraseAll
  5736 ;; This function uses a non-reentrant model
  5737 ;;
  5738                           
  5739                           
  5740                           ;psect for function _EepromStart
  5741  0B38                     _EepromStart:	
  5742                           
  5743                           ;eeprom.c: 11: LATBbits.LATB6=0;
  5744                           
  5745                           ;incstack = 0
  5746                           ; Regs used in _EepromStart: [wreg]
  5747  0B38  0022               	movlb	2	; select bank2
  5748  0B39  130D               	bcf	13,6	;volatile
  5749                           
  5750                           ;eeprom.c: 12: LATBbits.LATB7=1;
  5751  0B3A  178D               	bsf	13,7	;volatile
  5752                           
  5753                           ;eeprom.c: 13: LATCbits.LATC7=1;
  5754  0B3B  178E               	bsf	14,7	;volatile
  5755                           
  5756                           ;eeprom.c: 14: _delay((unsigned long)((4)*(8000000/4000000.0)));
  5757  0B3C  3200               	nop2	;2 cycle nop
  5758  0B3D  3200               	nop2	;2 cycle nop
  5759  0B3E  3200               	nop2	;2 cycle nop
  5760  0B3F  3200               	nop2	;2 cycle nop
  5761                           
  5762                           ;eeprom.c: 15: LATBbits.LATB6=1;
  5763  0B40  0022               	movlb	2	; select bank2
  5764  0B41  170D               	bsf	13,6	;volatile
  5765                           
  5766                           ;eeprom.c: 16: _delay((unsigned long)((4)*(8000000/4000000.0)));
  5767  0B42  3200               	nop2	;2 cycle nop
  5768  0B43  3200               	nop2	;2 cycle nop
  5769  0B44  3200               	nop2	;2 cycle nop
  5770  0B45  3200               	nop2	;2 cycle nop
  5771                           
  5772                           ;eeprom.c: 17: LATBbits.LATB6=0;
  5773  0B46  0022               	movlb	2	; select bank2
  5774  0B47  130D               	bcf	13,6	;volatile
  5775                           
  5776                           ;eeprom.c: 18: _delay((unsigned long)((4/2)*(8000000/4000000.0)));
  5777  0B48  3200               	nop2	;2 cycle nop
  5778  0B49  3200               	nop2	;2 cycle nop
  5779  0B4A  0008               	return
  5780  0B4B                     __end_of_EepromStart:	
  5781                           
  5782                           	psect	text25
  5783  0C66                     __ptext25:	
  5784 ;; *************** function _EepromSend *****************
  5785 ;; Defined at:
  5786 ;;		line 27 in file "eeprom.c"
  5787 ;; Parameters:    Size  Location     Type
  5788 ;;  b               1    wreg     unsigned char 
  5789 ;; Auto vars:     Size  Location     Type
  5790 ;;  b               1    7[BANK0 ] unsigned char 
  5791 ;;  i               1    8[BANK0 ] char 
  5792 ;; Return value:  Size  Location     Type
  5793 ;;		None               void
  5794 ;; Registers used:
  5795 ;;		wreg, status,2, status,0
  5796 ;; Tracked objects:
  5797 ;;		On entry : 0/0
  5798 ;;		On exit  : 0/0
  5799 ;;		Unchanged: 0/0
  5800 ;; Data sizes:     COMMON   BANK0   BANK1   BANK2
  5801 ;;      Params:         0       0       0       0
  5802 ;;      Locals:         0       2       0       0
  5803 ;;      Temps:          0       2       0       0
  5804 ;;      Totals:         0       4       0       0
  5805 ;;Total ram usage:        4 bytes
  5806 ;; Hardware stack levels used:    1
  5807 ;; Hardware stack levels required when called:    2
  5808 ;; This function calls:
  5809 ;;		Nothing
  5810 ;; This function is called by:
  5811 ;;		_EepromWrite
  5812 ;; This function uses a non-reentrant model
  5813 ;;
  5814                           
  5815                           
  5816                           ;psect for function _EepromSend
  5817  0C66                     _EepromSend:	
  5818                           
  5819                           ;incstack = 0
  5820                           ; Regs used in _EepromSend: [wreg+status,2+status,0]
  5821                           ;EepromSend@b stored from wreg
  5822  0C66  0020               	movlb	0	; select bank0
  5823  0C67  00A7               	movwf	EepromSend@b
  5824                           
  5825                           ;eeprom.c: 29: int8_t i=0;
  5826  0C68  01A8               	clrf	EepromSend@i
  5827                           
  5828                           ;eeprom.c: 30: for(i=7;i>=0;i--)
  5829  0C69  3007               	movlw	7
  5830  0C6A  00A5               	movwf	??_EepromSend
  5831  0C6B  0825               	movf	??_EepromSend,w
  5832  0C6C  00A8               	movwf	EepromSend@i
  5833  0C6D                     L10:	
  5834  0C6D  1BA8               	btfsc	EepromSend@i,7
  5835  0C6E  0008               	return
  5836                           
  5837                           ;eeprom.c: 31: {
  5838                           ;eeprom.c: 32: LATCbits.LATC7=b>>i;
  5839  0C6F  0827               	movf	EepromSend@b,w
  5840  0C70  00A5               	movwf	??_EepromSend
  5841  0C71  0A28               	incf	EepromSend@i,w
  5842  0C72  2C74               	goto	u1314
  5843  0C73                     u1315:	
  5844  0C73  36A5               	lsrf	??_EepromSend,f
  5845  0C74                     u1314:	
  5846  0C74  0B89               	decfsz	9,f
  5847  0C75  2C73               	goto	u1315
  5848  0C76  0825               	movf	??_EepromSend,w
  5849  0C77  00A6               	movwf	??_EepromSend+1
  5850  0C78  0CA6               	rrf	??_EepromSend+1,f
  5851  0C79  0CA6               	rrf	??_EepromSend+1,f
  5852  0C7A  0022               	movlb	2	; select bank2
  5853  0C7B  080E               	movf	14,w	;volatile
  5854  0C7C  0020               	movlb	0	; select bank0
  5855  0C7D  0626               	xorwf	??_EepromSend+1,w
  5856  0C7E  397F               	andlw	-129
  5857  0C7F  0626               	xorwf	??_EepromSend+1,w
  5858  0C80  0022               	movlb	2	; select bank2
  5859  0C81  008E               	movwf	14	;volatile
  5860                           
  5861                           ;eeprom.c: 33: _delay((unsigned long)((4/2)*(8000000/4000000.0)));
  5862  0C82  3200               	nop2	;2 cycle nop
  5863  0C83  3200               	nop2	;2 cycle nop
  5864                           
  5865                           ;eeprom.c: 34: LATBbits.LATB6=1;
  5866  0C84  0022               	movlb	2	; select bank2
  5867  0C85  170D               	bsf	13,6	;volatile
  5868                           
  5869                           ;eeprom.c: 35: _delay((unsigned long)((4)*(8000000/4000000.0)));
  5870  0C86  3200               	nop2	;2 cycle nop
  5871  0C87  3200               	nop2	;2 cycle nop
  5872  0C88  3200               	nop2	;2 cycle nop
  5873  0C89  3200               	nop2	;2 cycle nop
  5874                           
  5875                           ;eeprom.c: 36: LATBbits.LATB6=0;
  5876  0C8A  0022               	movlb	2	; select bank2
  5877  0C8B  130D               	bcf	13,6	;volatile
  5878                           
  5879                           ;eeprom.c: 37: _delay((unsigned long)((4/2)*(8000000/4000000.0)));
  5880  0C8C  3200               	nop2	;2 cycle nop
  5881  0C8D  3200               	nop2	;2 cycle nop
  5882  0C8E  30FF               	movlw	-1
  5883  0C8F  0020               	movlb	0	; select bank0
  5884  0C90  00A5               	movwf	??_EepromSend
  5885  0C91  0825               	movf	??_EepromSend,w
  5886  0C92  07A8               	addwf	EepromSend@i,f
  5887  0C93  2C6D               	goto	L10
  5888  0C94                     __end_of_EepromSend:	
  5889                           
  5890                           	psect	text26
  5891  0EC2                     __ptext26:	
  5892 ;; *************** function _EepromOpCode *****************
  5893 ;; Defined at:
  5894 ;;		line 56 in file "eeprom.c"
  5895 ;; Parameters:    Size  Location     Type
  5896 ;;  opcode          1    wreg     unsigned char 
  5897 ;;  address         2    5[BANK0 ] unsigned int 
  5898 ;; Auto vars:     Size  Location     Type
  5899 ;;  opcode          1   10[BANK0 ] unsigned char 
  5900 ;;  i               1   11[BANK0 ] char 
  5901 ;; Return value:  Size  Location     Type
  5902 ;;		None               void
  5903 ;; Registers used:
  5904 ;;		wreg, status,2, status,0
  5905 ;; Tracked objects:
  5906 ;;		On entry : 0/0
  5907 ;;		On exit  : 0/0
  5908 ;;		Unchanged: 0/0
  5909 ;; Data sizes:     COMMON   BANK0   BANK1   BANK2
  5910 ;;      Params:         0       2       0       0
  5911 ;;      Locals:         0       2       0       0
  5912 ;;      Temps:          0       3       0       0
  5913 ;;      Totals:         0       7       0       0
  5914 ;;Total ram usage:        7 bytes
  5915 ;; Hardware stack levels used:    1
  5916 ;; Hardware stack levels required when called:    2
  5917 ;; This function calls:
  5918 ;;		Nothing
  5919 ;; This function is called by:
  5920 ;;		_EepromWrite
  5921 ;;		_EepromRead
  5922 ;;		_EEPROMEraseAll
  5923 ;; This function uses a non-reentrant model
  5924 ;;
  5925                           
  5926                           
  5927                           ;psect for function _EepromOpCode
  5928  0EC2                     _EepromOpCode:	
  5929                           
  5930                           ;incstack = 0
  5931                           ; Regs used in _EepromOpCode: [wreg+status,2+status,0]
  5932                           ;EepromOpCode@opcode stored from wreg
  5933  0EC2  0020               	movlb	0	; select bank0
  5934  0EC3  00AA               	movwf	EepromOpCode@opcode
  5935                           
  5936                           ;eeprom.c: 58: int8_t i=0;
  5937  0EC4  01AB               	clrf	EepromOpCode@i
  5938                           
  5939                           ;eeprom.c: 59: LATCbits.LATC7=opcode>>1&0b00000001;
  5940  0EC5  362A               	lsrf	EepromOpCode@opcode,w
  5941  0EC6  3901               	andlw	1
  5942  0EC7  00A7               	movwf	??_EepromOpCode
  5943  0EC8  0CA7               	rrf	??_EepromOpCode,f
  5944  0EC9  0CA7               	rrf	??_EepromOpCode,f
  5945  0ECA  0022               	movlb	2	; select bank2
  5946  0ECB  080E               	movf	14,w	;volatile
  5947  0ECC  0020               	movlb	0	; select bank0
  5948  0ECD  0627               	xorwf	??_EepromOpCode,w
  5949  0ECE  397F               	andlw	-129
  5950  0ECF  0627               	xorwf	??_EepromOpCode,w
  5951  0ED0  0022               	movlb	2	; select bank2
  5952  0ED1  008E               	movwf	14	;volatile
  5953                           
  5954                           ;eeprom.c: 60: _delay((unsigned long)((4/2)*(8000000/4000000.0)));
  5955  0ED2  3200               	nop2	;2 cycle nop
  5956  0ED3  3200               	nop2	;2 cycle nop
  5957                           
  5958                           ;eeprom.c: 61: LATBbits.LATB6=1;
  5959  0ED4  0022               	movlb	2	; select bank2
  5960  0ED5  170D               	bsf	13,6	;volatile
  5961                           
  5962                           ;eeprom.c: 62: _delay((unsigned long)((4)*(8000000/4000000.0)));
  5963  0ED6  3200               	nop2	;2 cycle nop
  5964  0ED7  3200               	nop2	;2 cycle nop
  5965  0ED8  3200               	nop2	;2 cycle nop
  5966  0ED9  3200               	nop2	;2 cycle nop
  5967                           
  5968                           ;eeprom.c: 63: LATBbits.LATB6=0;
  5969  0EDA  0022               	movlb	2	; select bank2
  5970  0EDB  130D               	bcf	13,6	;volatile
  5971                           
  5972                           ;eeprom.c: 64: _delay((unsigned long)((4/2)*(8000000/4000000.0)));
  5973  0EDC  3200               	nop2	;2 cycle nop
  5974  0EDD  3200               	nop2	;2 cycle nop
  5975                           
  5976                           ;eeprom.c: 66: LATCbits.LATC7=opcode&0b00000001;
  5977  0EDE  0020               	movlb	0	; select bank0
  5978  0EDF  082A               	movf	EepromOpCode@opcode,w
  5979  0EE0  3901               	andlw	1
  5980  0EE1  00A7               	movwf	??_EepromOpCode
  5981  0EE2  0CA7               	rrf	??_EepromOpCode,f
  5982  0EE3  0CA7               	rrf	??_EepromOpCode,f
  5983  0EE4  0022               	movlb	2	; select bank2
  5984  0EE5  080E               	movf	14,w	;volatile
  5985  0EE6  0020               	movlb	0	; select bank0
  5986  0EE7  0627               	xorwf	??_EepromOpCode,w
  5987  0EE8  397F               	andlw	-129
  5988  0EE9  0627               	xorwf	??_EepromOpCode,w
  5989  0EEA  0022               	movlb	2	; select bank2
  5990  0EEB  008E               	movwf	14	;volatile
  5991                           
  5992                           ;eeprom.c: 67: _delay((unsigned long)((4/2)*(8000000/4000000.0)));
  5993  0EEC  3200               	nop2	;2 cycle nop
  5994  0EED  3200               	nop2	;2 cycle nop
  5995                           
  5996                           ;eeprom.c: 68: LATBbits.LATB6=1;
  5997  0EEE  0022               	movlb	2	; select bank2
  5998  0EEF  170D               	bsf	13,6	;volatile
  5999                           
  6000                           ;eeprom.c: 69: _delay((unsigned long)((4)*(8000000/4000000.0)));
  6001  0EF0  3200               	nop2	;2 cycle nop
  6002  0EF1  3200               	nop2	;2 cycle nop
  6003  0EF2  3200               	nop2	;2 cycle nop
  6004  0EF3  3200               	nop2	;2 cycle nop
  6005                           
  6006                           ;eeprom.c: 70: LATBbits.LATB6=0;
  6007  0EF4  0022               	movlb	2	; select bank2
  6008  0EF5  130D               	bcf	13,6	;volatile
  6009                           
  6010                           ;eeprom.c: 71: _delay((unsigned long)((4/2)*(8000000/4000000.0)));
  6011  0EF6  3200               	nop2	;2 cycle nop
  6012  0EF7  3200               	nop2	;2 cycle nop
  6013                           
  6014                           ;eeprom.c: 73: for(i=10;i>=0;i--)
  6015  0EF8  300A               	movlw	10
  6016  0EF9  0020               	movlb	0	; select bank0
  6017  0EFA  00A7               	movwf	??_EepromOpCode
  6018  0EFB  0827               	movf	??_EepromOpCode,w
  6019  0EFC  00AB               	movwf	EepromOpCode@i
  6020  0EFD                     L11:	
  6021  0EFD  1BAB               	btfsc	EepromOpCode@i,7
  6022  0EFE  0008               	return
  6023                           
  6024                           ;eeprom.c: 74: {
  6025                           ;eeprom.c: 75: LATCbits.LATC7=address>>i&0b00000001;
  6026  0EFF  0826               	movf	EepromOpCode@address+1,w
  6027  0F00  00A8               	movwf	??_EepromOpCode+1
  6028  0F01  0825               	movf	EepromOpCode@address,w
  6029  0F02  00A7               	movwf	??_EepromOpCode
  6030  0F03  0A2B               	incf	EepromOpCode@i,w
  6031  0F04  2F07               	goto	u1344
  6032  0F05                     u1345:	
  6033  0F05  36A8               	lsrf	??_EepromOpCode+1,f
  6034  0F06  0CA7               	rrf	??_EepromOpCode,f
  6035  0F07                     u1344:	
  6036  0F07  0B89               	decfsz	9,f
  6037  0F08  2F05               	goto	u1345
  6038  0F09  0827               	movf	??_EepromOpCode,w
  6039  0F0A  3901               	andlw	1
  6040  0F0B  00A9               	movwf	??_EepromOpCode+2
  6041  0F0C  0CA9               	rrf	??_EepromOpCode+2,f
  6042  0F0D  0CA9               	rrf	??_EepromOpCode+2,f
  6043  0F0E  0022               	movlb	2	; select bank2
  6044  0F0F  080E               	movf	14,w	;volatile
  6045  0F10  0020               	movlb	0	; select bank0
  6046  0F11  0629               	xorwf	??_EepromOpCode+2,w
  6047  0F12  397F               	andlw	-129
  6048  0F13  0629               	xorwf	??_EepromOpCode+2,w
  6049  0F14  0022               	movlb	2	; select bank2
  6050  0F15  008E               	movwf	14	;volatile
  6051                           
  6052                           ;eeprom.c: 76: _delay((unsigned long)((4/2)*(8000000/4000000.0)));
  6053  0F16  3200               	nop2	;2 cycle nop
  6054  0F17  3200               	nop2	;2 cycle nop
  6055                           
  6056                           ;eeprom.c: 77: LATBbits.LATB6=1;
  6057  0F18  0022               	movlb	2	; select bank2
  6058  0F19  170D               	bsf	13,6	;volatile
  6059                           
  6060                           ;eeprom.c: 78: _delay((unsigned long)((4)*(8000000/4000000.0)));
  6061  0F1A  3200               	nop2	;2 cycle nop
  6062  0F1B  3200               	nop2	;2 cycle nop
  6063  0F1C  3200               	nop2	;2 cycle nop
  6064  0F1D  3200               	nop2	;2 cycle nop
  6065                           
  6066                           ;eeprom.c: 79: LATBbits.LATB6=0;
  6067  0F1E  0022               	movlb	2	; select bank2
  6068  0F1F  130D               	bcf	13,6	;volatile
  6069                           
  6070                           ;eeprom.c: 80: _delay((unsigned long)((4/2)*(8000000/4000000.0)));
  6071  0F20  3200               	nop2	;2 cycle nop
  6072  0F21  3200               	nop2	;2 cycle nop
  6073  0F22  30FF               	movlw	-1
  6074  0F23  0020               	movlb	0	; select bank0
  6075  0F24  00A7               	movwf	??_EepromOpCode
  6076  0F25  0827               	movf	??_EepromOpCode,w
  6077  0F26  07AB               	addwf	EepromOpCode@i,f
  6078  0F27  2EFD               	goto	L11
  6079  0F28                     __end_of_EepromOpCode:	
  6080                           
  6081                           	psect	text27
  6082  0B12                     __ptext27:	
  6083 ;; *************** function _EepromEnd *****************
  6084 ;; Defined at:
  6085 ;;		line 20 in file "eeprom.c"
  6086 ;; Parameters:    Size  Location     Type
  6087 ;;		None
  6088 ;; Auto vars:     Size  Location     Type
  6089 ;;		None
  6090 ;; Return value:  Size  Location     Type
  6091 ;;		None               void
  6092 ;; Registers used:
  6093 ;;		wreg
  6094 ;; Tracked objects:
  6095 ;;		On entry : 0/0
  6096 ;;		On exit  : 0/0
  6097 ;;		Unchanged: 0/0
  6098 ;; Data sizes:     COMMON   BANK0   BANK1   BANK2
  6099 ;;      Params:         0       0       0       0
  6100 ;;      Locals:         0       0       0       0
  6101 ;;      Temps:          0       1       0       0
  6102 ;;      Totals:         0       1       0       0
  6103 ;;Total ram usage:        1 bytes
  6104 ;; Hardware stack levels used:    1
  6105 ;; Hardware stack levels required when called:    2
  6106 ;; This function calls:
  6107 ;;		Nothing
  6108 ;; This function is called by:
  6109 ;;		_EepromWrite
  6110 ;;		_EepromRead
  6111 ;;		_EEPROMEraseAll
  6112 ;; This function uses a non-reentrant model
  6113 ;;
  6114                           
  6115                           
  6116                           ;psect for function _EepromEnd
  6117  0B12                     _EepromEnd:	
  6118                           
  6119                           ;eeprom.c: 22: LATBbits.LATB6=0;
  6120                           
  6121                           ;incstack = 0
  6122                           ; Regs used in _EepromEnd: [wreg]
  6123  0B12  0022               	movlb	2	; select bank2
  6124  0B13  130D               	bcf	13,6	;volatile
  6125                           
  6126                           ;eeprom.c: 23: LATBbits.LATB7=0;
  6127  0B14  138D               	bcf	13,7	;volatile
  6128                           
  6129                           ;eeprom.c: 24: LATCbits.LATC7=0;
  6130  0B15  138E               	bcf	14,7	;volatile
  6131                           
  6132                           ;eeprom.c: 25: _delay((unsigned long)((4)*(8000000/4000000.0)));
  6133  0B16  3200               	nop2	;2 cycle nop
  6134  0B17  3200               	nop2	;2 cycle nop
  6135  0B18  3200               	nop2	;2 cycle nop
  6136  0B19  3200               	nop2	;2 cycle nop
  6137  0B1A  0008               	return
  6138  0B1B                     __end_of_EepromEnd:	
  6139                           
  6140                           	psect	text28
  6141  0C38                     __ptext28:	
  6142 ;; *************** function _GPIORedLedBlink *****************
  6143 ;; Defined at:
  6144 ;;		line 27 in file "gpio.c"
  6145 ;; Parameters:    Size  Location     Type
  6146 ;;  times           1    wreg     unsigned char 
  6147 ;; Auto vars:     Size  Location     Type
  6148 ;;  times           1    8[BANK0 ] unsigned char 
  6149 ;;  i               1    9[BANK0 ] unsigned char 
  6150 ;; Return value:  Size  Location     Type
  6151 ;;		None               void
  6152 ;; Registers used:
  6153 ;;		wreg, status,2, status,0
  6154 ;; Tracked objects:
  6155 ;;		On entry : 0/0
  6156 ;;		On exit  : 0/0
  6157 ;;		Unchanged: 0/0
  6158 ;; Data sizes:     COMMON   BANK0   BANK1   BANK2
  6159 ;;      Params:         0       0       0       0
  6160 ;;      Locals:         0       2       0       0
  6161 ;;      Temps:          0       3       0       0
  6162 ;;      Totals:         0       5       0       0
  6163 ;;Total ram usage:        5 bytes
  6164 ;; Hardware stack levels used:    1
  6165 ;; Hardware stack levels required when called:    2
  6166 ;; This function calls:
  6167 ;;		Nothing
  6168 ;; This function is called by:
  6169 ;;		_main
  6170 ;; This function uses a non-reentrant model
  6171 ;;
  6172                           
  6173                           
  6174                           ;psect for function _GPIORedLedBlink
  6175  0C38                     _GPIORedLedBlink:	
  6176                           
  6177                           ;incstack = 0
  6178                           ; Regs used in _GPIORedLedBlink: [wreg+status,2+status,0]
  6179                           ;GPIORedLedBlink@times stored from wreg
  6180  0C38  0020               	movlb	0	; select bank0
  6181  0C39  00A8               	movwf	GPIORedLedBlink@times
  6182                           
  6183                           ;gpio.c: 29: uint8_t i=0;
  6184  0C3A  01A9               	clrf	GPIORedLedBlink@i
  6185                           
  6186                           ;gpio.c: 30: for(i=0;i<times;i++)
  6187  0C3B  01A9               	clrf	GPIORedLedBlink@i
  6188  0C3C                     l2337:	
  6189  0C3C  0828               	movf	GPIORedLedBlink@times,w
  6190  0C3D  0229               	subwf	GPIORedLedBlink@i,w
  6191  0C3E  1803               	btfsc	3,0
  6192  0C3F  0008               	return
  6193                           
  6194                           ;gpio.c: 31: {
  6195                           ;gpio.c: 32: LATCbits.LATC1=1;
  6196  0C40  0022               	movlb	2	; select bank2
  6197  0C41  148E               	bsf	14,1	;volatile
  6198                           
  6199                           ;gpio.c: 33: _delay((unsigned long)((100)*(8000000/4000.0)));
  6200  0C42  3002               	movlw	2
  6201  0C43  0020               	movlb	0	; select bank0
  6202  0C44  00A7               	movwf	??_GPIORedLedBlink+2
  6203  0C45  3004               	movlw	4
  6204  0C46  00A6               	movwf	??_GPIORedLedBlink+1
  6205  0C47  30BA               	movlw	186
  6206  0C48  00A5               	movwf	??_GPIORedLedBlink
  6207  0C49                     u3047:	
  6208  0C49  0BA5               	decfsz	??_GPIORedLedBlink,f
  6209  0C4A  2C49               	goto	u3047
  6210  0C4B  0BA6               	decfsz	??_GPIORedLedBlink+1,f
  6211  0C4C  2C49               	goto	u3047
  6212  0C4D  0BA7               	decfsz	??_GPIORedLedBlink+2,f
  6213  0C4E  2C49               	goto	u3047
  6214  0C4F  0000               	nop
  6215                           
  6216                           ;gpio.c: 34: LATCbits.LATC1=0;
  6217  0C50  0022               	movlb	2	; select bank2
  6218  0C51  108E               	bcf	14,1	;volatile
  6219                           
  6220                           ;gpio.c: 35: _delay((unsigned long)((100)*(8000000/4000.0)));
  6221  0C52  3002               	movlw	2
  6222  0C53  0020               	movlb	0	; select bank0
  6223  0C54  00A7               	movwf	??_GPIORedLedBlink+2
  6224  0C55  3004               	movlw	4
  6225  0C56  00A6               	movwf	??_GPIORedLedBlink+1
  6226  0C57  30BA               	movlw	186
  6227  0C58  00A5               	movwf	??_GPIORedLedBlink
  6228  0C59                     u3057:	
  6229  0C59  0BA5               	decfsz	??_GPIORedLedBlink,f
  6230  0C5A  2C59               	goto	u3057
  6231  0C5B  0BA6               	decfsz	??_GPIORedLedBlink+1,f
  6232  0C5C  2C59               	goto	u3057
  6233  0C5D  0BA7               	decfsz	??_GPIORedLedBlink+2,f
  6234  0C5E  2C59               	goto	u3057
  6235  0C5F  0000               	nop
  6236  0C60  3001               	movlw	1
  6237  0C61  0020               	movlb	0	; select bank0
  6238  0C62  00A5               	movwf	??_GPIORedLedBlink
  6239  0C63  0825               	movf	??_GPIORedLedBlink,w
  6240  0C64  07A9               	addwf	GPIORedLedBlink@i,f
  6241  0C65  2C3C               	goto	l2337
  6242  0C66                     __end_of_GPIORedLedBlink:	
  6243                           
  6244                           	psect	text29
  6245  0B27                     __ptext29:	
  6246 ;; *************** function _GPIOPortInit *****************
  6247 ;; Defined at:
  6248 ;;		line 5 in file "gpio.c"
  6249 ;; Parameters:    Size  Location     Type
  6250 ;;		None
  6251 ;; Auto vars:     Size  Location     Type
  6252 ;;		None
  6253 ;; Return value:  Size  Location     Type
  6254 ;;		None               void
  6255 ;; Registers used:
  6256 ;;		status,2
  6257 ;; Tracked objects:
  6258 ;;		On entry : 0/0
  6259 ;;		On exit  : 0/0
  6260 ;;		Unchanged: 0/0
  6261 ;; Data sizes:     COMMON   BANK0   BANK1   BANK2
  6262 ;;      Params:         0       0       0       0
  6263 ;;      Locals:         0       0       0       0
  6264 ;;      Temps:          0       0       0       0
  6265 ;;      Totals:         0       0       0       0
  6266 ;;Total ram usage:        0 bytes
  6267 ;; Hardware stack levels used:    1
  6268 ;; Hardware stack levels required when called:    2
  6269 ;; This function calls:
  6270 ;;		Nothing
  6271 ;; This function is called by:
  6272 ;;		_main
  6273 ;; This function uses a non-reentrant model
  6274 ;;
  6275                           
  6276                           
  6277                           ;psect for function _GPIOPortInit
  6278  0B27                     _GPIOPortInit:	
  6279                           
  6280                           ;gpio.c: 8: TRISB7=0;
  6281                           
  6282                           ;incstack = 0
  6283                           ; Regs used in _GPIOPortInit: [status,2]
  6284  0B27  0021               	movlb	1	; select bank1
  6285  0B28  138D               	bcf	13,7	;volatile
  6286                           
  6287                           ;gpio.c: 9: TRISB6=0;
  6288  0B29  130D               	bcf	13,6	;volatile
  6289                           
  6290                           ;gpio.c: 10: TRISC7=0;
  6291  0B2A  138E               	bcf	14,7	;volatile
  6292                           
  6293                           ;gpio.c: 11: TRISB4=1;
  6294  0B2B  160D               	bsf	13,4	;volatile
  6295                           
  6296                           ;gpio.c: 12: ANSELB=0x00;
  6297  0B2C  0023               	movlb	3	; select bank3
  6298  0B2D  018D               	clrf	13	;volatile
  6299                           
  6300                           ;gpio.c: 14: TRISC0=0;
  6301  0B2E  0021               	movlb	1	; select bank1
  6302  0B2F  100E               	bcf	14,0	;volatile
  6303                           
  6304                           ;gpio.c: 15: TRISC1=0;
  6305  0B30  108E               	bcf	14,1	;volatile
  6306                           
  6307                           ;gpio.c: 16: TRISC2=0;
  6308  0B31  110E               	bcf	14,2	;volatile
  6309                           
  6310                           ;gpio.c: 18: TRISC4=0;
  6311  0B32  120E               	bcf	14,4	;volatile
  6312                           
  6313                           ;gpio.c: 19: TRISC5=1;
  6314  0B33  168E               	bsf	14,5	;volatile
  6315                           
  6316                           ;gpio.c: 21: TRISC6=0;
  6317  0B34  130E               	bcf	14,6	;volatile
  6318                           
  6319                           ;gpio.c: 23: TRISA4=0;
  6320  0B35  120C               	bcf	12,4	;volatile
  6321                           
  6322                           ;gpio.c: 24: TRISA5=0;
  6323  0B36  128C               	bcf	12,5	;volatile
  6324  0B37  0008               	return
  6325  0B38                     __end_of_GPIOPortInit:	
  6326                           
  6327                           	psect	text30
  6328  0C0A                     __ptext30:	
  6329 ;; *************** function _GPIOBlueLedBlink *****************
  6330 ;; Defined at:
  6331 ;;		line 39 in file "gpio.c"
  6332 ;; Parameters:    Size  Location     Type
  6333 ;;  times           1    wreg     unsigned char 
  6334 ;; Auto vars:     Size  Location     Type
  6335 ;;  times           1    8[BANK0 ] unsigned char 
  6336 ;;  i               1    9[BANK0 ] unsigned char 
  6337 ;; Return value:  Size  Location     Type
  6338 ;;		None               void
  6339 ;; Registers used:
  6340 ;;		wreg, status,2, status,0
  6341 ;; Tracked objects:
  6342 ;;		On entry : 0/0
  6343 ;;		On exit  : 0/0
  6344 ;;		Unchanged: 0/0
  6345 ;; Data sizes:     COMMON   BANK0   BANK1   BANK2
  6346 ;;      Params:         0       0       0       0
  6347 ;;      Locals:         0       2       0       0
  6348 ;;      Temps:          0       3       0       0
  6349 ;;      Totals:         0       5       0       0
  6350 ;;Total ram usage:        5 bytes
  6351 ;; Hardware stack levels used:    1
  6352 ;; Hardware stack levels required when called:    2
  6353 ;; This function calls:
  6354 ;;		Nothing
  6355 ;; This function is called by:
  6356 ;;		_main
  6357 ;; This function uses a non-reentrant model
  6358 ;;
  6359                           
  6360                           
  6361                           ;psect for function _GPIOBlueLedBlink
  6362  0C0A                     _GPIOBlueLedBlink:	
  6363                           
  6364                           ;incstack = 0
  6365                           ; Regs used in _GPIOBlueLedBlink: [wreg+status,2+status,0]
  6366                           ;GPIOBlueLedBlink@times stored from wreg
  6367  0C0A  0020               	movlb	0	; select bank0
  6368  0C0B  00A8               	movwf	GPIOBlueLedBlink@times
  6369                           
  6370                           ;gpio.c: 41: uint8_t i=0;
  6371  0C0C  01A9               	clrf	GPIOBlueLedBlink@i
  6372                           
  6373                           ;gpio.c: 42: for(i=0;i<times;i++)
  6374  0C0D  01A9               	clrf	GPIOBlueLedBlink@i
  6375  0C0E                     l2347:	
  6376  0C0E  0828               	movf	GPIOBlueLedBlink@times,w
  6377  0C0F  0229               	subwf	GPIOBlueLedBlink@i,w
  6378  0C10  1803               	btfsc	3,0
  6379  0C11  0008               	return
  6380                           
  6381                           ;gpio.c: 43: {
  6382                           ;gpio.c: 44: LATCbits.LATC0=1;
  6383  0C12  0022               	movlb	2	; select bank2
  6384  0C13  140E               	bsf	14,0	;volatile
  6385                           
  6386                           ;gpio.c: 45: _delay((unsigned long)((100)*(8000000/4000.0)));
  6387  0C14  3002               	movlw	2
  6388  0C15  0020               	movlb	0	; select bank0
  6389  0C16  00A7               	movwf	??_GPIOBlueLedBlink+2
  6390  0C17  3004               	movlw	4
  6391  0C18  00A6               	movwf	??_GPIOBlueLedBlink+1
  6392  0C19  30BA               	movlw	186
  6393  0C1A  00A5               	movwf	??_GPIOBlueLedBlink
  6394  0C1B                     u3067:	
  6395  0C1B  0BA5               	decfsz	??_GPIOBlueLedBlink,f
  6396  0C1C  2C1B               	goto	u3067
  6397  0C1D  0BA6               	decfsz	??_GPIOBlueLedBlink+1,f
  6398  0C1E  2C1B               	goto	u3067
  6399  0C1F  0BA7               	decfsz	??_GPIOBlueLedBlink+2,f
  6400  0C20  2C1B               	goto	u3067
  6401  0C21  0000               	nop
  6402                           
  6403                           ;gpio.c: 46: LATCbits.LATC0=0;
  6404  0C22  0022               	movlb	2	; select bank2
  6405  0C23  100E               	bcf	14,0	;volatile
  6406                           
  6407                           ;gpio.c: 47: _delay((unsigned long)((100)*(8000000/4000.0)));
  6408  0C24  3002               	movlw	2
  6409  0C25  0020               	movlb	0	; select bank0
  6410  0C26  00A7               	movwf	??_GPIOBlueLedBlink+2
  6411  0C27  3004               	movlw	4
  6412  0C28  00A6               	movwf	??_GPIOBlueLedBlink+1
  6413  0C29  30BA               	movlw	186
  6414  0C2A  00A5               	movwf	??_GPIOBlueLedBlink
  6415  0C2B                     u3077:	
  6416  0C2B  0BA5               	decfsz	??_GPIOBlueLedBlink,f
  6417  0C2C  2C2B               	goto	u3077
  6418  0C2D  0BA6               	decfsz	??_GPIOBlueLedBlink+1,f
  6419  0C2E  2C2B               	goto	u3077
  6420  0C2F  0BA7               	decfsz	??_GPIOBlueLedBlink+2,f
  6421  0C30  2C2B               	goto	u3077
  6422  0C31  0000               	nop
  6423  0C32  3001               	movlw	1
  6424  0C33  0020               	movlb	0	; select bank0
  6425  0C34  00A5               	movwf	??_GPIOBlueLedBlink
  6426  0C35  0825               	movf	??_GPIOBlueLedBlink,w
  6427  0C36  07A9               	addwf	GPIOBlueLedBlink@i,f
  6428  0C37  2C0E               	goto	l2347
  6429  0C38                     __end_of_GPIOBlueLedBlink:	
  6430                           
  6431                           	psect	intentry
  6432  0004                     __pintentry:	
  6433 ;; *************** function _ISR *****************
  6434 ;; Defined at:
  6435 ;;		line 6 in file "isr.c"
  6436 ;; Parameters:    Size  Location     Type
  6437 ;;		None
  6438 ;; Auto vars:     Size  Location     Type
  6439 ;;		None
  6440 ;; Return value:  Size  Location     Type
  6441 ;;		None               void
  6442 ;; Registers used:
  6443 ;;		wreg, fsr0l, fsr0h, fsr1l, fsr1h, status,2, status,0, pclath, cstack
  6444 ;; Tracked objects:
  6445 ;;		On entry : 0/0
  6446 ;;		On exit  : 0/0
  6447 ;;		Unchanged: 0/0
  6448 ;; Data sizes:     COMMON   BANK0   BANK1   BANK2
  6449 ;;      Params:         0       0       0       0
  6450 ;;      Locals:         0       0       0       0
  6451 ;;      Temps:          1       0       0       0
  6452 ;;      Totals:         1       0       0       0
  6453 ;;Total ram usage:        1 bytes
  6454 ;; Hardware stack levels used:    1
  6455 ;; Hardware stack levels required when called:    1
  6456 ;; This function calls:
  6457 ;;		_USARTHandleRxInt
  6458 ;; This function is called by:
  6459 ;;		Interrupt level 1
  6460 ;; This function uses a non-reentrant model
  6461 ;;
  6462                           
  6463  0004                     _ISR:	
  6464                           
  6465                           ;incstack = 0
  6466                           ; Regs used in _ISR: [wreg-fsr1h+status,2+status,0+pclath+cstack]
  6467  0004  147E               	bsf	126,0	;set compiler interrupt flag
  6468  0005  3180               	pagesel	$
  6469  0006  0020               	movlb	0	; select bank0
  6470  0007  087F               	movf	127,w
  6471  0008  00FB               	movwf	??_ISR
  6472                           
  6473                           ;isr.c: 8: if (RCIE && RCIF) {
  6474  0009  0021               	movlb	1	; select bank1
  6475  000A  1E91               	btfss	17,5	;volatile
  6476  000B  2811               	goto	i1l166
  6477  000C  0020               	movlb	0	; select bank0
  6478  000D  1E91               	btfss	17,5	;volatile
  6479  000E  2811               	goto	i1l166
  6480                           
  6481                           ;isr.c: 9: USARTHandleRxInt();
  6482  000F  3180  2031         	fcall	_USARTHandleRxInt
  6483  0011                     i1l166:	
  6484                           ;isr.c: 10: return;
  6485                           
  6486  0011  087B               	movf	??_ISR,w
  6487  0012  0020               	movlb	0	; select bank0
  6488  0013  00FF               	movwf	127
  6489  0014  107E               	bcf	126,0	;clear compiler interrupt flag
  6490  0015  0009               	retfie
  6491  0016                     __end_of_ISR:	
  6492                           
  6493                           	psect	text32
  6494  0031                     __ptext32:	
  6495 ;; *************** function _USARTHandleRxInt *****************
  6496 ;; Defined at:
  6497 ;;		line 73 in file "usart.c"
  6498 ;; Parameters:    Size  Location     Type
  6499 ;;		None
  6500 ;; Auto vars:     Size  Location     Type
  6501 ;;  ci              1    1[BANK0 ] unsigned char 
  6502 ;;  ci              1    4[BANK0 ] unsigned char 
  6503 ;;  ci              1    3[BANK0 ] unsigned char 
  6504 ;;  ci              1    2[BANK0 ] unsigned char 
  6505 ;;  data            1    0[BANK0 ] unsigned char 
  6506 ;; Return value:  Size  Location     Type
  6507 ;;		None               void
  6508 ;; Registers used:
  6509 ;;		wreg, fsr0l, fsr0h, fsr1l, fsr1h, status,2, status,0
  6510 ;; Tracked objects:
  6511 ;;		On entry : 0/0
  6512 ;;		On exit  : 0/0
  6513 ;;		Unchanged: 0/0
  6514 ;; Data sizes:     COMMON   BANK0   BANK1   BANK2
  6515 ;;      Params:         0       0       0       0
  6516 ;;      Locals:         0       5       0       0
  6517 ;;      Temps:         11       0       0       0
  6518 ;;      Totals:        11       5       0       0
  6519 ;;Total ram usage:       16 bytes
  6520 ;; Hardware stack levels used:    1
  6521 ;; This function calls:
  6522 ;;		Nothing
  6523 ;; This function is called by:
  6524 ;;		_ISR
  6525 ;; This function uses a non-reentrant model
  6526 ;;
  6527                           
  6528                           
  6529                           ;psect for function _USARTHandleRxInt
  6530  0031                     _USARTHandleRxInt:	
  6531                           
  6532                           ;usart.c: 75: LATCbits.LATC0=1;
  6533                           
  6534                           ;incstack = 0
  6535                           ; Regs used in _USARTHandleRxInt: [wreg-fsr1h+status,2+status,0]
  6536  0031  0022               	movlb	2	; select bank2
  6537  0032  140E               	bsf	14,0	;volatile
  6538                           
  6539                           ;usart.c: 77: char data=RCREG;
  6540  0033  0023               	movlb	3	; select bank3
  6541  0034  0819               	movf	25,w	;volatile
  6542  0035  00F0               	movwf	??_USARTHandleRxInt
  6543  0036  0870               	movf	??_USARTHandleRxInt,w
  6544  0037  0020               	movlb	0	; select bank0
  6545  0038  00A0               	movwf	USARTHandleRxInt@data
  6546                           
  6547                           ;usart.c: 78: SIM800L.busy=1;
  6548  0039  3078               	movlw	120
  6549  003A  0086               	movwf	6
  6550  003B  3020               	movlw	32
  6551  003C  0087               	movwf	7
  6552  003D  3001               	movlw	1
  6553  003E  3FC0               	movwi [0]fsr1
  6554                           
  6555                           ;usart.c: 79: switch(data)
  6556  003F  2ABD               	goto	i1l2471
  6557  0040                     i1l2355:	
  6558                           ;usart.c: 80: {
  6559                           ;usart.c: 81: case '\r':
  6560                           
  6561                           
  6562                           ;usart.c: 82: if(SIM800L.uncomplete==1 && bufque==0){SIM800L.uncomplete=0;}
  6563  0040  3078               	movlw	120
  6564  0041  0086               	movwf	6
  6565  0042  3020               	movlw	32
  6566  0043  0087               	movwf	7
  6567  0044  3141               	addfsr 1,1
  6568  0045  0801               	movf	1,w
  6569  0046  3A01               	xorlw	1
  6570  0047  1D03               	skipz
  6571  0048  2AC5               	goto	i1l342
  6572  0049  08DE               	movf	_bufque,f
  6573  004A  1D03               	skipz
  6574  004B  2AC5               	goto	i1l342
  6575  004C  3078               	movlw	120
  6576  004D  0086               	movwf	6
  6577  004E  3020               	movlw	32
  6578  004F  0087               	movwf	7
  6579  0050  3141               	addfsr 1,1
  6580  0051  0181               	clrf	1
  6581                           
  6582                           ;usart.c: 83: break;
  6583  0052  2AC5               	goto	i1l342
  6584  0053                     i1l2361:	
  6585                           ;usart.c: 84: case '\n':
  6586                           
  6587                           
  6588                           ;usart.c: 85: if(SIM800L.uncomplete==0) SIM800L.uncomplete=1;
  6589  0053  3078               	movlw	120
  6590  0054  0086               	movwf	6
  6591  0055  3020               	movlw	32
  6592  0056  0087               	movwf	7
  6593  0057  3141               	addfsr 1,1
  6594  0058  0801               	movf	1,w
  6595  0059  1D03               	skipz
  6596  005A  2862               	goto	i1l2365
  6597  005B  3079               	movlw	121
  6598  005C  0086               	movwf	6
  6599  005D  3020               	movlw	32
  6600  005E  0087               	movwf	7
  6601  005F  3001               	movlw	1
  6602  0060  0081               	movwf	1
  6603  0061  2A9A               	goto	i1l2461
  6604  0062                     i1l2365:	
  6605                           
  6606                           ;usart.c: 86: else
  6607                           ;usart.c: 87: {
  6608                           ;usart.c: 88: SIM800L.buffer[bufque]=0;
  6609  0062  085E               	movf	_bufque,w
  6610  0063  00F0               	movwf	??_USARTHandleRxInt
  6611  0064  01F1               	clrf	??_USARTHandleRxInt+1
  6612  0065  3092               	movlw	146
  6613  0066  00F2               	movwf	??_USARTHandleRxInt+2
  6614  0067  3020               	movlw	32
  6615  0068  00F3               	movwf	??_USARTHandleRxInt+3
  6616  0069  0870               	movf	??_USARTHandleRxInt,w
  6617  006A  0772               	addwf	??_USARTHandleRxInt+2,w
  6618  006B  0086               	movwf	6
  6619  006C  0871               	movf	??_USARTHandleRxInt+1,w
  6620  006D  3D73               	addwfc	??_USARTHandleRxInt+3,w
  6621  006E  0087               	movwf	7
  6622  006F  0181               	clrf	1
  6623                           
  6624                           ;usart.c: 89: SIM800L.uncomplete=0;
  6625  0070  3078               	movlw	120
  6626  0071  0086               	movwf	6
  6627  0072  3020               	movlw	32
  6628  0073  0087               	movwf	7
  6629  0074  3141               	addfsr 1,1
  6630  0075  0181               	clrf	1
  6631                           
  6632                           ;usart.c: 91: if(SIM800L.buffer[0]=='+')
  6633  0076  3078               	movlw	120
  6634  0077  0086               	movwf	6
  6635  0078  3020               	movlw	32
  6636  0079  0087               	movwf	7
  6637  007A  315A               	addfsr 1,26
  6638  007B  0801               	movf	1,w
  6639  007C  3A2B               	xorlw	43
  6640  007D  1D03               	skipz
  6641  007E  2A81               	goto	i1l2453
  6642                           
  6643                           ;usart.c: 92: {
  6644                           ;usart.c: 93: if(SIM800L.buffer[1]=='C' && SIM800L.buffer[2]=='L' && SIM800L.buffer[3]==
      +                          'I' )
  6645  007F  3078               	movlw	120
  6646  0080  0086               	movwf	6
  6647  0081  3020               	movlw	32
  6648  0082  0087               	movwf	7
  6649  0083  315B               	addfsr 1,27
  6650  0084  0801               	movf	1,w
  6651  0085  3A43               	xorlw	67
  6652  0086  1D03               	skipz
  6653  0087  290B               	goto	i1l2393
  6654  0088  3078               	movlw	120
  6655  0089  0086               	movwf	6
  6656  008A  3020               	movlw	32
  6657  008B  0087               	movwf	7
  6658  008C  315C               	addfsr 1,28
  6659  008D  0801               	movf	1,w
  6660  008E  3A4C               	xorlw	76
  6661  008F  1D03               	skipz
  6662  0090  290B               	goto	i1l2393
  6663  0091  3078               	movlw	120
  6664  0092  0086               	movwf	6
  6665  0093  3020               	movlw	32
  6666  0094  0087               	movwf	7
  6667  0095  315D               	addfsr 1,29
  6668  0096  0801               	movf	1,w
  6669  0097  3A49               	xorlw	73
  6670  0098  1D03               	skipz
  6671  0099  290B               	goto	i1l2393
  6672                           
  6673                           ;usart.c: 94: {
  6674                           ;usart.c: 95: uint8_t ci=8;
  6675  009A  3008               	movlw	8
  6676  009B  00F0               	movwf	??_USARTHandleRxInt
  6677  009C  0870               	movf	??_USARTHandleRxInt,w
  6678  009D  00A2               	movwf	USARTHandleRxInt@ci
  6679                           
  6680                           ;usart.c: 96: while(SIM800L.buffer[ci]!='\"' && (ci-8)<15)
  6681  009E  28D3               	goto	i1l2385
  6682  009F                     i1l2379:	
  6683                           
  6684                           ;usart.c: 97: {
  6685                           ;usart.c: 98: SIM800L.cell[ci-8]=SIM800L.buffer[ci];
  6686  009F  0020               	movlb	0	; select bank0
  6687  00A0  0822               	movf	USARTHandleRxInt@ci,w
  6688  00A1  00F0               	movwf	??_USARTHandleRxInt
  6689  00A2  01F1               	clrf	??_USARTHandleRxInt+1
  6690  00A3  3092               	movlw	146
  6691  00A4  00F2               	movwf	??_USARTHandleRxInt+2
  6692  00A5  3020               	movlw	32
  6693  00A6  00F3               	movwf	??_USARTHandleRxInt+3
  6694  00A7  0870               	movf	??_USARTHandleRxInt,w
  6695  00A8  0772               	addwf	??_USARTHandleRxInt+2,w
  6696  00A9  0086               	movwf	6
  6697  00AA  0871               	movf	??_USARTHandleRxInt+1,w
  6698  00AB  3D73               	addwfc	??_USARTHandleRxInt+3,w
  6699  00AC  0087               	movwf	7
  6700  00AD  0801               	movf	1,w
  6701  00AE  00F4               	movwf	??_USARTHandleRxInt+4
  6702  00AF  0822               	movf	USARTHandleRxInt@ci,w
  6703  00B0  3EF8               	addlw	248
  6704  00B1  00F5               	movwf	??_USARTHandleRxInt+5
  6705  00B2  30FF               	movlw	255
  6706  00B3  1803               	skipnc
  6707  00B4  3000               	movlw	0
  6708  00B5  00F6               	movwf	??_USARTHandleRxInt+6
  6709  00B6  307C               	movlw	124
  6710  00B7  00F7               	movwf	??_USARTHandleRxInt+7
  6711  00B8  3020               	movlw	32
  6712  00B9  00F8               	movwf	??_USARTHandleRxInt+8
  6713  00BA  0875               	movf	??_USARTHandleRxInt+5,w
  6714  00BB  0777               	addwf	??_USARTHandleRxInt+7,w
  6715  00BC  00F9               	movwf	??_USARTHandleRxInt+9
  6716  00BD  0876               	movf	??_USARTHandleRxInt+6,w
  6717  00BE  3D78               	addwfc	??_USARTHandleRxInt+8,w
  6718  00BF  00FA               	movwf	??_USARTHandleRxInt+10
  6719  00C0  0879               	movf	??_USARTHandleRxInt+9,w
  6720  00C1  0086               	movwf	6
  6721  00C2  087A               	movf	??_USARTHandleRxInt+10,w
  6722  00C3  0087               	movwf	7
  6723  00C4  0874               	movf	??_USARTHandleRxInt+4,w
  6724  00C5  0081               	movwf	1
  6725                           
  6726                           ;usart.c: 99: ci++;
  6727  00C6  3001               	movlw	1
  6728  00C7  00F0               	movwf	??_USARTHandleRxInt
  6729  00C8  0870               	movf	??_USARTHandleRxInt,w
  6730  00C9  07A2               	addwf	USARTHandleRxInt@ci,f
  6731                           
  6732                           ;usart.c: 100: SIM800L.cell_lenght++;
  6733  00CA  3001               	movlw	1
  6734  00CB  00F0               	movwf	??_USARTHandleRxInt
  6735  00CC  3078               	movlw	120
  6736  00CD  0086               	movwf	6
  6737  00CE  3020               	movlw	32
  6738  00CF  0087               	movwf	7
  6739  00D0  3153               	addfsr 1,19
  6740  00D1  0870               	movf	??_USARTHandleRxInt,w
  6741  00D2  0781               	addwf	1,f
  6742  00D3                     i1l2385:	
  6743  00D3  0822               	movf	USARTHandleRxInt@ci,w
  6744  00D4  00F0               	movwf	??_USARTHandleRxInt
  6745  00D5  01F1               	clrf	??_USARTHandleRxInt+1
  6746  00D6  3092               	movlw	146
  6747  00D7  00F2               	movwf	??_USARTHandleRxInt+2
  6748  00D8  3020               	movlw	32
  6749  00D9  00F3               	movwf	??_USARTHandleRxInt+3
  6750  00DA  0870               	movf	??_USARTHandleRxInt,w
  6751  00DB  0772               	addwf	??_USARTHandleRxInt+2,w
  6752  00DC  0086               	movwf	6
  6753  00DD  0871               	movf	??_USARTHandleRxInt+1,w
  6754  00DE  3D73               	addwfc	??_USARTHandleRxInt+3,w
  6755  00DF  0087               	movwf	7
  6756  00E0  0801               	movf	1,w
  6757  00E1  3A22               	xorlw	34
  6758  00E2  1903               	skipnz
  6759  00E3  28F6               	goto	i1l2389
  6760  00E4  0822               	movf	USARTHandleRxInt@ci,w
  6761  00E5  3EF8               	addlw	248
  6762  00E6  00F0               	movwf	??_USARTHandleRxInt
  6763  00E7  30FF               	movlw	255
  6764  00E8  1803               	skipnc
  6765  00E9  3000               	movlw	0
  6766  00EA  00F1               	movwf	??_USARTHandleRxInt+1
  6767  00EB  0871               	movf	??_USARTHandleRxInt+1,w
  6768  00EC  3A80               	xorlw	128
  6769  00ED  00F2               	movwf	??_USARTHandleRxInt+2
  6770  00EE  3080               	movlw	128
  6771  00EF  0272               	subwf	??_USARTHandleRxInt+2,w
  6772  00F0  1D03               	skipz
  6773  00F1  28F4               	goto	u184_25
  6774  00F2  300F               	movlw	15
  6775  00F3  0270               	subwf	??_USARTHandleRxInt,w
  6776  00F4                     u184_25:	
  6777  00F4  1C03               	skipc
  6778  00F5  289F               	goto	i1l2379
  6779  00F6                     i1l2389:	
  6780                           
  6781                           ;usart.c: 101: }
  6782                           ;usart.c: 102: SIM800L.cell[ci-8]='\0';
  6783  00F6  0020               	movlb	0	; select bank0
  6784  00F7  0822               	movf	USARTHandleRxInt@ci,w
  6785  00F8  3EF8               	addlw	248
  6786  00F9  00F0               	movwf	??_USARTHandleRxInt
  6787  00FA  30FF               	movlw	255
  6788  00FB  1803               	skipnc
  6789  00FC  3000               	movlw	0
  6790  00FD  00F1               	movwf	??_USARTHandleRxInt+1
  6791  00FE  307C               	movlw	124
  6792  00FF  00F2               	movwf	??_USARTHandleRxInt+2
  6793  0100  3020               	movlw	32
  6794  0101  00F3               	movwf	??_USARTHandleRxInt+3
  6795  0102  0870               	movf	??_USARTHandleRxInt,w
  6796  0103  0772               	addwf	??_USARTHandleRxInt+2,w
  6797  0104  0086               	movwf	6
  6798  0105  0871               	movf	??_USARTHandleRxInt+1,w
  6799  0106  3D73               	addwfc	??_USARTHandleRxInt+3,w
  6800  0107  0087               	movwf	7
  6801  0108  0181               	clrf	1
  6802                           
  6803                           ;usart.c: 103: task=1;
  6804  0109  01E0               	clrf	_task
  6805  010A  0AE0               	incf	_task,f
  6806  010B                     i1l2393:	
  6807                           
  6808                           ;usart.c: 104: }
  6809                           ;usart.c: 105: if(SIM800L.buffer[1]=='C' && SIM800L.buffer[2]=='M' && SIM800L.buffer[3]=
      +                          ='T' && SIM800L.buffer[4]=='I' )
  6810  010B  3078               	movlw	120
  6811  010C  0086               	movwf	6
  6812  010D  3020               	movlw	32
  6813  010E  0087               	movwf	7
  6814  010F  315B               	addfsr 1,27
  6815  0110  0801               	movf	1,w
  6816  0111  3A43               	xorlw	67
  6817  0112  1D03               	skipz
  6818  0113  299C               	goto	i1l2417
  6819  0114  3078               	movlw	120
  6820  0115  0086               	movwf	6
  6821  0116  3020               	movlw	32
  6822  0117  0087               	movwf	7
  6823  0118  315C               	addfsr 1,28
  6824  0119  0801               	movf	1,w
  6825  011A  3A4D               	xorlw	77
  6826  011B  1D03               	skipz
  6827  011C  299C               	goto	i1l2417
  6828  011D  3078               	movlw	120
  6829  011E  0086               	movwf	6
  6830  011F  3020               	movlw	32
  6831  0120  0087               	movwf	7
  6832  0121  315D               	addfsr 1,29
  6833  0122  0801               	movf	1,w
  6834  0123  3A54               	xorlw	84
  6835  0124  1D03               	skipz
  6836  0125  299C               	goto	i1l2417
  6837  0126  3078               	movlw	120
  6838  0127  0086               	movwf	6
  6839  0128  3020               	movlw	32
  6840  0129  0087               	movwf	7
  6841  012A  315E               	addfsr 1,30
  6842  012B  0801               	movf	1,w
  6843  012C  3A49               	xorlw	73
  6844  012D  1D03               	skipz
  6845  012E  299C               	goto	i1l2417
  6846                           
  6847                           ;usart.c: 106: {
  6848                           ;usart.c: 107: uint8_t ci=12;
  6849  012F  300C               	movlw	12
  6850  0130  00F0               	movwf	??_USARTHandleRxInt
  6851  0131  0870               	movf	??_USARTHandleRxInt,w
  6852  0132  00A3               	movwf	USARTHandleRxInt@ci_499
  6853                           
  6854                           ;usart.c: 108: while(SIM800L.buffer[ci]>='0' && SIM800L.buffer[ci]<='9' )
  6855  0133  295E               	goto	i1l2407
  6856  0134                     i1l2403:	
  6857                           
  6858                           ;usart.c: 109: {
  6859                           ;usart.c: 110: SIM800L.smsmem[ci-12]=SIM800L.buffer[ci];
  6860  0134  0823               	movf	USARTHandleRxInt@ci_499,w
  6861  0135  00F0               	movwf	??_USARTHandleRxInt
  6862  0136  01F1               	clrf	??_USARTHandleRxInt+1
  6863  0137  3092               	movlw	146
  6864  0138  00F2               	movwf	??_USARTHandleRxInt+2
  6865  0139  3020               	movlw	32
  6866  013A  00F3               	movwf	??_USARTHandleRxInt+3
  6867  013B  0870               	movf	??_USARTHandleRxInt,w
  6868  013C  0772               	addwf	??_USARTHandleRxInt+2,w
  6869  013D  0086               	movwf	6
  6870  013E  0871               	movf	??_USARTHandleRxInt+1,w
  6871  013F  3D73               	addwfc	??_USARTHandleRxInt+3,w
  6872  0140  0087               	movwf	7
  6873  0141  0801               	movf	1,w
  6874  0142  00F4               	movwf	??_USARTHandleRxInt+4
  6875  0143  0823               	movf	USARTHandleRxInt@ci_499,w
  6876  0144  3EF4               	addlw	244
  6877  0145  00F5               	movwf	??_USARTHandleRxInt+5
  6878  0146  30FF               	movlw	255
  6879  0147  1803               	skipnc
  6880  0148  3000               	movlw	0
  6881  0149  00F6               	movwf	??_USARTHandleRxInt+6
  6882  014A  308D               	movlw	141
  6883  014B  00F7               	movwf	??_USARTHandleRxInt+7
  6884  014C  3020               	movlw	32
  6885  014D  00F8               	movwf	??_USARTHandleRxInt+8
  6886  014E  0875               	movf	??_USARTHandleRxInt+5,w
  6887  014F  0777               	addwf	??_USARTHandleRxInt+7,w
  6888  0150  00F9               	movwf	??_USARTHandleRxInt+9
  6889  0151  0876               	movf	??_USARTHandleRxInt+6,w
  6890  0152  3D78               	addwfc	??_USARTHandleRxInt+8,w
  6891  0153  00FA               	movwf	??_USARTHandleRxInt+10
  6892  0154  0879               	movf	??_USARTHandleRxInt+9,w
  6893  0155  0086               	movwf	6
  6894  0156  087A               	movf	??_USARTHandleRxInt+10,w
  6895  0157  0087               	movwf	7
  6896  0158  0874               	movf	??_USARTHandleRxInt+4,w
  6897  0159  0081               	movwf	1
  6898                           
  6899                           ;usart.c: 111: ci++;
  6900  015A  3001               	movlw	1
  6901  015B  00F0               	movwf	??_USARTHandleRxInt
  6902  015C  0870               	movf	??_USARTHandleRxInt,w
  6903  015D  07A3               	addwf	USARTHandleRxInt@ci_499,f
  6904  015E                     i1l2407:	
  6905  015E  0823               	movf	USARTHandleRxInt@ci_499,w
  6906  015F  00F0               	movwf	??_USARTHandleRxInt
  6907  0160  01F1               	clrf	??_USARTHandleRxInt+1
  6908  0161  3092               	movlw	146
  6909  0162  00F2               	movwf	??_USARTHandleRxInt+2
  6910  0163  3020               	movlw	32
  6911  0164  00F3               	movwf	??_USARTHandleRxInt+3
  6912  0165  0870               	movf	??_USARTHandleRxInt,w
  6913  0166  0772               	addwf	??_USARTHandleRxInt+2,w
  6914  0167  0086               	movwf	6
  6915  0168  0871               	movf	??_USARTHandleRxInt+1,w
  6916  0169  3D73               	addwfc	??_USARTHandleRxInt+3,w
  6917  016A  0087               	movwf	7
  6918  016B  3030               	movlw	48
  6919  016C  0201               	subwf	1,w
  6920  016D  1C03               	skipc
  6921  016E  2980               	goto	i1l2411
  6922  016F  0823               	movf	USARTHandleRxInt@ci_499,w
  6923  0170  00F0               	movwf	??_USARTHandleRxInt
  6924  0171  01F1               	clrf	??_USARTHandleRxInt+1
  6925  0172  3092               	movlw	146
  6926  0173  00F2               	movwf	??_USARTHandleRxInt+2
  6927  0174  3020               	movlw	32
  6928  0175  00F3               	movwf	??_USARTHandleRxInt+3
  6929  0176  0870               	movf	??_USARTHandleRxInt,w
  6930  0177  0772               	addwf	??_USARTHandleRxInt+2,w
  6931  0178  0086               	movwf	6
  6932  0179  0871               	movf	??_USARTHandleRxInt+1,w
  6933  017A  3D73               	addwfc	??_USARTHandleRxInt+3,w
  6934  017B  0087               	movwf	7
  6935  017C  303A               	movlw	58
  6936  017D  0201               	subwf	1,w
  6937  017E  1C03               	skipc
  6938  017F  2934               	goto	i1l2403
  6939  0180                     i1l2411:	
  6940                           
  6941                           ;usart.c: 112: }
  6942                           ;usart.c: 113: SIM800L.smsmem[ci-12]=0;
  6943  0180  0823               	movf	USARTHandleRxInt@ci_499,w
  6944  0181  3EF4               	addlw	244
  6945  0182  00F0               	movwf	??_USARTHandleRxInt
  6946  0183  30FF               	movlw	255
  6947  0184  1803               	skipnc
  6948  0185  3000               	movlw	0
  6949  0186  00F1               	movwf	??_USARTHandleRxInt+1
  6950  0187  308D               	movlw	141
  6951  0188  00F2               	movwf	??_USARTHandleRxInt+2
  6952  0189  3020               	movlw	32
  6953  018A  00F3               	movwf	??_USARTHandleRxInt+3
  6954  018B  0870               	movf	??_USARTHandleRxInt,w
  6955  018C  0772               	addwf	??_USARTHandleRxInt+2,w
  6956  018D  0086               	movwf	6
  6957  018E  0871               	movf	??_USARTHandleRxInt+1,w
  6958  018F  3D73               	addwfc	??_USARTHandleRxInt+3,w
  6959  0190  0087               	movwf	7
  6960  0191  0181               	clrf	1
  6961                           
  6962                           ;usart.c: 114: SIM800L.unreadsms=1;
  6963  0192  308C               	movlw	140
  6964  0193  0086               	movwf	6
  6965  0194  3020               	movlw	32
  6966  0195  0087               	movwf	7
  6967  0196  3001               	movlw	1
  6968  0197  0081               	movwf	1
  6969                           
  6970                           ;usart.c: 115: task=2;
  6971  0198  3002               	movlw	2
  6972  0199  00F0               	movwf	??_USARTHandleRxInt
  6973  019A  0870               	movf	??_USARTHandleRxInt,w
  6974  019B  00E0               	movwf	_task
  6975  019C                     i1l2417:	
  6976                           
  6977                           ;usart.c: 116: }
  6978                           ;usart.c: 117: if(SIM800L.buffer[1]=='C' && SIM800L.buffer[2]=='S' && SIM800L.buffer[3]=
      +                          ='Q')
  6979  019C  3078               	movlw	120
  6980  019D  0086               	movwf	6
  6981  019E  3020               	movlw	32
  6982  019F  0087               	movwf	7
  6983  01A0  315B               	addfsr 1,27
  6984  01A1  0801               	movf	1,w
  6985  01A2  3A43               	xorlw	67
  6986  01A3  1D03               	skipz
  6987  01A4  2A0D               	goto	i1l2435
  6988  01A5  3078               	movlw	120
  6989  01A6  0086               	movwf	6
  6990  01A7  3020               	movlw	32
  6991  01A8  0087               	movwf	7
  6992  01A9  315C               	addfsr 1,28
  6993  01AA  0801               	movf	1,w
  6994  01AB  3A53               	xorlw	83
  6995  01AC  1D03               	skipz
  6996  01AD  2A0D               	goto	i1l2435
  6997  01AE  3078               	movlw	120
  6998  01AF  0086               	movwf	6
  6999  01B0  3020               	movlw	32
  7000  01B1  0087               	movwf	7
  7001  01B2  315D               	addfsr 1,29
  7002  01B3  0801               	movf	1,w
  7003  01B4  3A51               	xorlw	81
  7004  01B5  1D03               	skipz
  7005  01B6  2A0D               	goto	i1l2435
  7006                           
  7007                           ;usart.c: 118: {
  7008                           ;usart.c: 119: uint8_t ci=6;
  7009  01B7  3006               	movlw	6
  7010  01B8  00F0               	movwf	??_USARTHandleRxInt
  7011  01B9  0870               	movf	??_USARTHandleRxInt,w
  7012  01BA  00A4               	movwf	USARTHandleRxInt@ci_500
  7013                           
  7014                           ;usart.c: 120: while(SIM800L.buffer[ci]!=',' && (ci)<8)
  7015  01BB  29E6               	goto	i1l2429
  7016  01BC                     i1l2425:	
  7017                           
  7018                           ;usart.c: 121: {
  7019                           ;usart.c: 122: SIM800L.csq[ci-6]=SIM800L.buffer[ci];
  7020  01BC  0824               	movf	USARTHandleRxInt@ci_500,w
  7021  01BD  00F0               	movwf	??_USARTHandleRxInt
  7022  01BE  01F1               	clrf	??_USARTHandleRxInt+1
  7023  01BF  3092               	movlw	146
  7024  01C0  00F2               	movwf	??_USARTHandleRxInt+2
  7025  01C1  3020               	movlw	32
  7026  01C2  00F3               	movwf	??_USARTHandleRxInt+3
  7027  01C3  0870               	movf	??_USARTHandleRxInt,w
  7028  01C4  0772               	addwf	??_USARTHandleRxInt+2,w
  7029  01C5  0086               	movwf	6
  7030  01C6  0871               	movf	??_USARTHandleRxInt+1,w
  7031  01C7  3D73               	addwfc	??_USARTHandleRxInt+3,w
  7032  01C8  0087               	movwf	7
  7033  01C9  0801               	movf	1,w
  7034  01CA  00F4               	movwf	??_USARTHandleRxInt+4
  7035  01CB  0824               	movf	USARTHandleRxInt@ci_500,w
  7036  01CC  3EFA               	addlw	250
  7037  01CD  00F5               	movwf	??_USARTHandleRxInt+5
  7038  01CE  30FF               	movlw	255
  7039  01CF  1803               	skipnc
  7040  01D0  3000               	movlw	0
  7041  01D1  00F6               	movwf	??_USARTHandleRxInt+6
  7042  01D2  30EB               	movlw	235
  7043  01D3  00F7               	movwf	??_USARTHandleRxInt+7
  7044  01D4  3020               	movlw	32
  7045  01D5  00F8               	movwf	??_USARTHandleRxInt+8
  7046  01D6  0875               	movf	??_USARTHandleRxInt+5,w
  7047  01D7  0777               	addwf	??_USARTHandleRxInt+7,w
  7048  01D8  00F9               	movwf	??_USARTHandleRxInt+9
  7049  01D9  0876               	movf	??_USARTHandleRxInt+6,w
  7050  01DA  3D78               	addwfc	??_USARTHandleRxInt+8,w
  7051  01DB  00FA               	movwf	??_USARTHandleRxInt+10
  7052  01DC  0879               	movf	??_USARTHandleRxInt+9,w
  7053  01DD  0086               	movwf	6
  7054  01DE  087A               	movf	??_USARTHandleRxInt+10,w
  7055  01DF  0087               	movwf	7
  7056  01E0  0874               	movf	??_USARTHandleRxInt+4,w
  7057  01E1  0081               	movwf	1
  7058                           
  7059                           ;usart.c: 123: ci++;
  7060  01E2  3001               	movlw	1
  7061  01E3  00F0               	movwf	??_USARTHandleRxInt
  7062  01E4  0870               	movf	??_USARTHandleRxInt,w
  7063  01E5  07A4               	addwf	USARTHandleRxInt@ci_500,f
  7064  01E6                     i1l2429:	
  7065  01E6  0824               	movf	USARTHandleRxInt@ci_500,w
  7066  01E7  00F0               	movwf	??_USARTHandleRxInt
  7067  01E8  01F1               	clrf	??_USARTHandleRxInt+1
  7068  01E9  3092               	movlw	146
  7069  01EA  00F2               	movwf	??_USARTHandleRxInt+2
  7070  01EB  3020               	movlw	32
  7071  01EC  00F3               	movwf	??_USARTHandleRxInt+3
  7072  01ED  0870               	movf	??_USARTHandleRxInt,w
  7073  01EE  0772               	addwf	??_USARTHandleRxInt+2,w
  7074  01EF  0086               	movwf	6
  7075  01F0  0871               	movf	??_USARTHandleRxInt+1,w
  7076  01F1  3D73               	addwfc	??_USARTHandleRxInt+3,w
  7077  01F2  0087               	movwf	7
  7078  01F3  0801               	movf	1,w
  7079  01F4  3A2C               	xorlw	44
  7080  01F5  1903               	skipnz
  7081  01F6  29FB               	goto	i1l2433
  7082  01F7  3008               	movlw	8
  7083  01F8  0224               	subwf	USARTHandleRxInt@ci_500,w
  7084  01F9  1C03               	skipc
  7085  01FA  29BC               	goto	i1l2425
  7086  01FB                     i1l2433:	
  7087                           
  7088                           ;usart.c: 124: }
  7089                           ;usart.c: 125: SIM800L.csq[ci-6]=0;
  7090  01FB  0824               	movf	USARTHandleRxInt@ci_500,w
  7091  01FC  3EFA               	addlw	250
  7092  01FD  00F0               	movwf	??_USARTHandleRxInt
  7093  01FE  30FF               	movlw	255
  7094  01FF  1803               	skipnc
  7095  0200  3000               	movlw	0
  7096  0201  00F1               	movwf	??_USARTHandleRxInt+1
  7097  0202  30EB               	movlw	235
  7098  0203  00F2               	movwf	??_USARTHandleRxInt+2
  7099  0204  3020               	movlw	32
  7100  0205  00F3               	movwf	??_USARTHandleRxInt+3
  7101  0206  0870               	movf	??_USARTHandleRxInt,w
  7102  0207  0772               	addwf	??_USARTHandleRxInt+2,w
  7103  0208  0086               	movwf	6
  7104  0209  0871               	movf	??_USARTHandleRxInt+1,w
  7105  020A  3D73               	addwfc	??_USARTHandleRxInt+3,w
  7106  020B  0087               	movwf	7
  7107  020C  0181               	clrf	1
  7108  020D                     i1l2435:	
  7109                           
  7110                           ;usart.c: 126: }
  7111                           ;usart.c: 127: if(SIM800L.buffer[1]=='C' && SIM800L.buffer[2]=='M' && SIM800L.buffer[3]=
      +                          ='D')
  7112  020D  3078               	movlw	120
  7113  020E  0086               	movwf	6
  7114  020F  3020               	movlw	32
  7115  0210  0087               	movwf	7
  7116  0211  315B               	addfsr 1,27
  7117  0212  0801               	movf	1,w
  7118  0213  3A43               	xorlw	67
  7119  0214  1D03               	skipz
  7120  0215  2A99               	goto	i1l2459
  7121  0216  3078               	movlw	120
  7122  0217  0086               	movwf	6
  7123  0218  3020               	movlw	32
  7124  0219  0087               	movwf	7
  7125  021A  315C               	addfsr 1,28
  7126  021B  0801               	movf	1,w
  7127  021C  3A4D               	xorlw	77
  7128  021D  1D03               	skipz
  7129  021E  2A99               	goto	i1l2459
  7130  021F  3078               	movlw	120
  7131  0220  0086               	movwf	6
  7132  0221  3020               	movlw	32
  7133  0222  0087               	movwf	7
  7134  0223  315D               	addfsr 1,29
  7135  0224  0801               	movf	1,w
  7136  0225  3A44               	xorlw	68
  7137  0226  1D03               	skipz
  7138  0227  2A99               	goto	i1l2459
  7139                           
  7140                           ;usart.c: 128: {
  7141                           ;usart.c: 129: uint8_t ci=4;
  7142  0228  3004               	movlw	4
  7143  0229  00F0               	movwf	??_USARTHandleRxInt
  7144  022A  0870               	movf	??_USARTHandleRxInt,w
  7145  022B  00A1               	movwf	USARTHandleRxInt@ci_501
  7146                           
  7147                           ;usart.c: 130: while(SIM800L.buffer[ci]!='#' && (ci-4)<25)
  7148  022C  2A58               	goto	i1l2447
  7149  022D                     i1l2443:	
  7150                           
  7151                           ;usart.c: 131: {
  7152                           ;usart.c: 132: SIM800L.command[ci-4]=SIM800L.buffer[ci];
  7153  022D  0020               	movlb	0	; select bank0
  7154  022E  0821               	movf	USARTHandleRxInt@ci_501,w
  7155  022F  00F0               	movwf	??_USARTHandleRxInt
  7156  0230  01F1               	clrf	??_USARTHandleRxInt+1
  7157  0231  3092               	movlw	146
  7158  0232  00F2               	movwf	??_USARTHandleRxInt+2
  7159  0233  3020               	movlw	32
  7160  0234  00F3               	movwf	??_USARTHandleRxInt+3
  7161  0235  0870               	movf	??_USARTHandleRxInt,w
  7162  0236  0772               	addwf	??_USARTHandleRxInt+2,w
  7163  0237  0086               	movwf	6
  7164  0238  0871               	movf	??_USARTHandleRxInt+1,w
  7165  0239  3D73               	addwfc	??_USARTHandleRxInt+3,w
  7166  023A  0087               	movwf	7
  7167  023B  0801               	movf	1,w
  7168  023C  00F4               	movwf	??_USARTHandleRxInt+4
  7169  023D  0821               	movf	USARTHandleRxInt@ci_501,w
  7170  023E  3EFC               	addlw	252
  7171  023F  00F5               	movwf	??_USARTHandleRxInt+5
  7172  0240  30FF               	movlw	255
  7173  0241  1803               	skipnc
  7174  0242  3000               	movlw	0
  7175  0243  00F6               	movwf	??_USARTHandleRxInt+6
  7176  0244  30D2               	movlw	210
  7177  0245  00F7               	movwf	??_USARTHandleRxInt+7
  7178  0246  3020               	movlw	32
  7179  0247  00F8               	movwf	??_USARTHandleRxInt+8
  7180  0248  0875               	movf	??_USARTHandleRxInt+5,w
  7181  0249  0777               	addwf	??_USARTHandleRxInt+7,w
  7182  024A  00F9               	movwf	??_USARTHandleRxInt+9
  7183  024B  0876               	movf	??_USARTHandleRxInt+6,w
  7184  024C  3D78               	addwfc	??_USARTHandleRxInt+8,w
  7185  024D  00FA               	movwf	??_USARTHandleRxInt+10
  7186  024E  0879               	movf	??_USARTHandleRxInt+9,w
  7187  024F  0086               	movwf	6
  7188  0250  087A               	movf	??_USARTHandleRxInt+10,w
  7189  0251  0087               	movwf	7
  7190  0252  0874               	movf	??_USARTHandleRxInt+4,w
  7191  0253  0081               	movwf	1
  7192                           
  7193                           ;usart.c: 133: ci++;
  7194  0254  3001               	movlw	1
  7195  0255  00F0               	movwf	??_USARTHandleRxInt
  7196  0256  0870               	movf	??_USARTHandleRxInt,w
  7197  0257  07A1               	addwf	USARTHandleRxInt@ci_501,f
  7198  0258                     i1l2447:	
  7199  0258  0821               	movf	USARTHandleRxInt@ci_501,w
  7200  0259  00F0               	movwf	??_USARTHandleRxInt
  7201  025A  01F1               	clrf	??_USARTHandleRxInt+1
  7202  025B  3092               	movlw	146
  7203  025C  00F2               	movwf	??_USARTHandleRxInt+2
  7204  025D  3020               	movlw	32
  7205  025E  00F3               	movwf	??_USARTHandleRxInt+3
  7206  025F  0870               	movf	??_USARTHandleRxInt,w
  7207  0260  0772               	addwf	??_USARTHandleRxInt+2,w
  7208  0261  0086               	movwf	6
  7209  0262  0871               	movf	??_USARTHandleRxInt+1,w
  7210  0263  3D73               	addwfc	??_USARTHandleRxInt+3,w
  7211  0264  0087               	movwf	7
  7212  0265  0801               	movf	1,w
  7213  0266  3A23               	xorlw	35
  7214  0267  1903               	skipnz
  7215  0268  2A7B               	goto	i1l2451
  7216  0269  0821               	movf	USARTHandleRxInt@ci_501,w
  7217  026A  3EFC               	addlw	252
  7218  026B  00F0               	movwf	??_USARTHandleRxInt
  7219  026C  30FF               	movlw	255
  7220  026D  1803               	skipnc
  7221  026E  3000               	movlw	0
  7222  026F  00F1               	movwf	??_USARTHandleRxInt+1
  7223  0270  0871               	movf	??_USARTHandleRxInt+1,w
  7224  0271  3A80               	xorlw	128
  7225  0272  00F2               	movwf	??_USARTHandleRxInt+2
  7226  0273  3080               	movlw	128
  7227  0274  0272               	subwf	??_USARTHandleRxInt+2,w
  7228  0275  1D03               	skipz
  7229  0276  2A79               	goto	u200_25
  7230  0277  3019               	movlw	25
  7231  0278  0270               	subwf	??_USARTHandleRxInt,w
  7232  0279                     u200_25:	
  7233  0279  1C03               	skipc
  7234  027A  2A2D               	goto	i1l2443
  7235  027B                     i1l2451:	
  7236                           
  7237                           ;usart.c: 134: }
  7238                           ;usart.c: 135: task=3;
  7239  027B  3003               	movlw	3
  7240  027C  00F0               	movwf	??_USARTHandleRxInt
  7241  027D  0870               	movf	??_USARTHandleRxInt,w
  7242  027E  0020               	movlb	0	; select bank0
  7243  027F  00E0               	movwf	_task
  7244                           
  7245                           ;usart.c: 136: }
  7246                           ;usart.c: 137: }
  7247  0280  2A99               	goto	i1l2459
  7248  0281                     i1l2453:	
  7249                           
  7250                           ;usart.c: 138: else if(SIM800L.buffer[0]=='O' && SIM800L.buffer[1]=='K') SIM800L.ok=1;
  7251  0281  3078               	movlw	120
  7252  0282  0086               	movwf	6
  7253  0283  3020               	movlw	32
  7254  0284  0087               	movwf	7
  7255  0285  315A               	addfsr 1,26
  7256  0286  0801               	movf	1,w
  7257  0287  3A4F               	xorlw	79
  7258  0288  1D03               	skipz
  7259  0289  2A99               	goto	i1l2459
  7260  028A  3078               	movlw	120
  7261  028B  0086               	movwf	6
  7262  028C  3020               	movlw	32
  7263  028D  0087               	movwf	7
  7264  028E  315B               	addfsr 1,27
  7265  028F  0801               	movf	1,w
  7266  0290  3A4B               	xorlw	75
  7267  0291  1D03               	skipz
  7268  0292  2A99               	goto	i1l2459
  7269  0293  307A               	movlw	122
  7270  0294  0086               	movwf	6
  7271  0295  3020               	movlw	32
  7272  0296  0087               	movwf	7
  7273  0297  3001               	movlw	1
  7274  0298  0081               	movwf	1
  7275  0299                     i1l2459:	
  7276                           
  7277                           ;usart.c: 139: bufque=0;
  7278  0299  01DE               	clrf	_bufque
  7279  029A                     i1l2461:	
  7280                           
  7281                           ;usart.c: 140: }
  7282                           ;usart.c: 141: SIM800L.busy=0;
  7283  029A  3078               	movlw	120
  7284  029B  0086               	movwf	6
  7285  029C  3020               	movlw	32
  7286  029D  0087               	movwf	7
  7287  029E  3000               	movlw	0
  7288  029F  3FC0               	movwi [0]fsr1
  7289                           
  7290                           ;usart.c: 142: break;
  7291  02A0  2AC5               	goto	i1l342
  7292  02A1                     i1l2463:	
  7293                           ;usart.c: 143: default:
  7294                           
  7295                           
  7296                           ;usart.c: 144: if(bufque<(64-1))
  7297  02A1  303F               	movlw	63
  7298  02A2  025E               	subwf	_bufque,w
  7299  02A3  1803               	skipnc
  7300  02A4  2AC5               	goto	i1l342
  7301                           
  7302                           ;usart.c: 145: {
  7303                           ;usart.c: 146: SIM800L.buffer[bufque]=data;
  7304  02A5  085E               	movf	_bufque,w
  7305  02A6  00F0               	movwf	??_USARTHandleRxInt
  7306  02A7  01F1               	clrf	??_USARTHandleRxInt+1
  7307  02A8  3092               	movlw	146
  7308  02A9  00F2               	movwf	??_USARTHandleRxInt+2
  7309  02AA  3020               	movlw	32
  7310  02AB  00F3               	movwf	??_USARTHandleRxInt+3
  7311  02AC  0870               	movf	??_USARTHandleRxInt,w
  7312  02AD  0772               	addwf	??_USARTHandleRxInt+2,w
  7313  02AE  00F4               	movwf	??_USARTHandleRxInt+4
  7314  02AF  0871               	movf	??_USARTHandleRxInt+1,w
  7315  02B0  3D73               	addwfc	??_USARTHandleRxInt+3,w
  7316  02B1  00F5               	movwf	??_USARTHandleRxInt+5
  7317  02B2  0874               	movf	??_USARTHandleRxInt+4,w
  7318  02B3  0086               	movwf	6
  7319  02B4  0875               	movf	??_USARTHandleRxInt+5,w
  7320  02B5  0087               	movwf	7
  7321  02B6  0820               	movf	USARTHandleRxInt@data,w
  7322  02B7  0081               	movwf	1
  7323                           
  7324                           ;usart.c: 147: bufque++;
  7325  02B8  3001               	movlw	1
  7326  02B9  00F0               	movwf	??_USARTHandleRxInt
  7327  02BA  0870               	movf	??_USARTHandleRxInt,w
  7328  02BB  07DE               	addwf	_bufque,f
  7329                           
  7330                           ;usart.c: 150: }
  7331                           
  7332                           ;usart.c: 148: }
  7333                           ;usart.c: 149: break;
  7334  02BC  2AC5               	goto	i1l342
  7335  02BD                     i1l2471:	
  7336  02BD  0820               	movf	USARTHandleRxInt@data,w
  7337                           
  7338                           ; Switch size 1, requested type "space"
  7339                           ; Number of cases is 2, Range of values is 10 to 13
  7340                           ; switch strategies available:
  7341                           ; Name         Instructions Cycles
  7342                           ; simple_byte            7     4 (average)
  7343                           ; direct_byte           17     9 (fixed)
  7344                           ; jumptable            263     9 (fixed)
  7345                           ;	Chosen strategy is simple_byte
  7346  02BE  3A0A               	xorlw	10	; case 10
  7347  02BF  1903               	skipnz
  7348  02C0  2853               	goto	i1l2361
  7349  02C1  3A07               	xorlw	7	; case 13
  7350  02C2  1903               	skipnz
  7351  02C3  2840               	goto	i1l2355
  7352  02C4  2AA1               	goto	i1l2463
  7353  02C5                     i1l342:	
  7354                           
  7355                           ;usart.c: 151: LATCbits.LATC0=0;
  7356  02C5  0022               	movlb	2	; select bank2
  7357  02C6  100E               	bcf	14,0	;volatile
  7358  02C7  0008               	return
  7359  02C8                     __end_of_USARTHandleRxInt:	
  7360  007E                     btemp	set	126	;btemp
  7361  007E                     pic14e$flags	set	126
  7362  007E                     wtemp	set	126
  7363  007E                     wtemp0	set	126
  7364  0080                     wtemp1	set	128
  7365  0082                     wtemp2	set	130
  7366  0084                     wtemp3	set	132
  7367  0086                     wtemp4	set	134
  7368  0088                     wtemp5	set	136
  7369  007F                     wtemp6	set	127
  7370  007E                     ttemp	set	126
  7371  007E                     ttemp0	set	126
  7372  0081                     ttemp1	set	129
  7373  0084                     ttemp2	set	132
  7374  0087                     ttemp3	set	135
  7375  007F                     ttemp4	set	127
  7376  007E                     ltemp	set	126
  7377  007E                     ltemp0	set	126
  7378  0082                     ltemp1	set	130
  7379  0086                     ltemp2	set	134
  7380  0080                     ltemp3	set	128


Data Sizes:
    Strings     208
    Constant    0
    Data        0
    BSS         12
    Persistent  0
    Stack       0

Auto Spaces:
    Space          Size  Autos    Used
    COMMON           14     12      12
    BANK0            80     53      65
    BANK1            40      0       0
    BANK2             0      0       0

Pointer List with Targets:

    USARTWriteLine@str	PTR const unsigned char  size(2) Largest target is 14
		 -> STR_22(CODE[6]), STR_21(CODE[9]), STR_12(CODE[9]), STR_10(CODE[9]), 
		 -> STR_9(CODE[14]), STR_7(CODE[10]), STR_6(CODE[14]), STR_5(CODE[5]), 
		 -> STR_4(CODE[12]), STR_3(CODE[7]), STR_2(CODE[5]), STR_1(CODE[3]), 

    USARTWriteString@str	PTR const unsigned char  size(2) Largest target is 120
		 -> STR_24(CODE[2]), STR_23(CODE[2]), STR_22(CODE[6]), STR_21(CODE[9]), 
		 -> STR_20(CODE[15]), STR_19(CODE[11]), SIM800L.smsmem(BIGRAM[5]), STR_16(CODE[29]), 
		 -> STR_15(CODE[26]), STR_14(CODE[27]), SIM800L.cell(BIGRAM[15]), SIM800L(BIGRAM[120]), 
		 -> STR_13(CODE[3]), STR_12(CODE[9]), STR_11(CODE[3]), STR_10(CODE[9]), 
		 -> STR_9(CODE[14]), STR_8(CODE[4]), STR_7(CODE[10]), STR_6(CODE[14]), 
		 -> STR_5(CODE[5]), STR_4(CODE[12]), STR_3(CODE[7]), STR_2(CODE[5]), 
		 -> STR_1(CODE[3]), 

    SIM800DeleteSms@flag	PTR const unsigned char  size(2) Largest target is 2
		 -> STR_24(CODE[2]), 

    SIM800DeleteSms@index	PTR const unsigned char  size(2) Largest target is 2
		 -> STR_23(CODE[2]), 

    SIM800ReadSms@mem	PTR const unsigned char  size(2) Largest target is 120
		 -> SIM800L.smsmem(BIGRAM[5]), SIM800L(BIGRAM[120]), 

    SIM800SendSms@msg	PTR const unsigned char  size(2) Largest target is 29
		 -> STR_20(CODE[15]), STR_16(CODE[29]), STR_15(CODE[26]), STR_14(CODE[27]), 

    SIM800SendSms@nmbr	PTR const unsigned char  size(2) Largest target is 120
		 -> STR_19(CODE[11]), SIM800L.cell(BIGRAM[15]), SIM800L(BIGRAM[120]), 

    EEPROMCheckPassword@pass	PTR const unsigned char  size(2) Largest target is 120
		 -> SIM800L.command(BIGRAM[25]), SIM800L(BIGRAM[120]), 

    EEPROMUpdatePassword@pass	PTR const unsigned char  size(2) Largest target is 5
		 -> STR_18(CODE[5]), STR_17(CODE[5]), 

    EEPROMAdd@nmbr	PTR const unsigned char  size(2) Largest target is 120
		 -> SIM800L.cell(BIGRAM[15]), SIM800L(BIGRAM[120]), 

    EEPROMSearchNumber@nmbr	PTR const unsigned char  size(2) Largest target is 120
		 -> SIM800L.cell(BIGRAM[15]), SIM800L(BIGRAM[120]), 

    EEPROMSaveNumber@nmbr	PTR const unsigned char  size(2) Largest target is 120
		 -> SIM800L.cell(BIGRAM[15]), SIM800L(BIGRAM[120]), 


Critical Paths under _main in COMMON

    None.

Critical Paths under _ISR in COMMON

    _ISR->_USARTHandleRxInt

Critical Paths under _main in BANK0

    _main->_SIM800Command
    _SIM800init->_USARTWriteLine
    _SIM800ReadSms->_USARTWriteLine
    _SIM800DeleteSms->_USARTWriteLine
    _SIM800Command->_EEPROMAdd
    _SIM800SendSms->_USARTWriteLine
    _USARTWriteLine->_USARTWriteString
    _USARTWriteString->_USARTWriteChar
    _EEPROMUpdatePassword->_EepromWrite
    _EEPROMSearchNumber->_EepromRead
    _EEPROMEraseAll->_EepromOpCode
    _EEPROMDeleteNumber->_EepromWrite
    _EEPROMCheckPassword->_EepromRead
    _EEPROMAdd->_EEPROMSaveNumber
    _EepromRead->_EepromOpCode
    _EEPROMSaveNumber->_EepromWrite
    _EepromWrite->_EepromOpCode

Critical Paths under _ISR in BANK0

    _ISR->_USARTHandleRxInt

Critical Paths under _main in BANK1

    None.

Critical Paths under _ISR in BANK1

    None.

Critical Paths under _main in BANK2

    None.

Critical Paths under _ISR in BANK2

    None.

Call Graph Tables:

 ---------------------------------------------------------------------------------
 (Depth) Function   	        Calls       Base Space   Used Autos Params    Refs
 ---------------------------------------------------------------------------------
 (0) _main                                                 3     3      0   29162
                                             50 BANK0      3     3      0
                 _EEPROMSearchNumber
               _EEPROMUpdatePassword
                   _GPIOBlueLedBlink
                       _GPIOPortInit
                    _GPIORedLedBlink
                      _SIM800Command
                    _SIM800DeleteSms
                       _SIM800LClear
                      _SIM800ReadSms
                      _SIM800SendSms
                         _SIM800init
                         _SYSTEMInit
                          _USARTInit
                     _USARTWriteLine
 ---------------------------------------------------------------------------------
 (1) _USARTInit                                            2     0      2      86
                                              5 BANK0      2     0      2
 ---------------------------------------------------------------------------------
 (1) _SYSTEMInit                                           1     1      0      22
                                              5 BANK0      1     1      0
 ---------------------------------------------------------------------------------
 (1) _SIM800init                                           3     3      0    1455
                                             10 BANK0      3     3      0
                     _USARTWriteLine
 ---------------------------------------------------------------------------------
 (1) _SIM800ReadSms                                        5     3      2    2184
                                             10 BANK0      5     3      2
                     _USARTWriteLine
                   _USARTWriteString
 ---------------------------------------------------------------------------------
 (1) _SIM800LClear                                         5     5      0     204
                                              5 BANK0      5     5      0
 ---------------------------------------------------------------------------------
 (1) _SIM800DeleteSms                                      7     3      4    2292
                                             10 BANK0      7     3      4
                     _USARTWriteChar
                     _USARTWriteLine
                   _USARTWriteString
 ---------------------------------------------------------------------------------
 (1) _SIM800Command                                       12    12      0   14958
                                             38 BANK0     12    12      0
                          _EEPROMAdd
                _EEPROMCheckPassword
                 _EEPROMDeleteNumber
                     _EEPROMEraseAll
                 _EEPROMSearchNumber
               _EEPROMUpdatePassword
                      _SIM800SendSms
 ---------------------------------------------------------------------------------
 (1) _SIM800SendSms                                        7     3      4    2676
                                             10 BANK0      7     3      4
                     _USARTWriteChar
                     _USARTWriteLine
                   _USARTWriteString
 ---------------------------------------------------------------------------------
 (1) _USARTWriteLine                                       2     0      2    1455
                                              8 BANK0      2     0      2
                     _USARTWriteChar
                   _USARTWriteString
 ---------------------------------------------------------------------------------
 (2) _USARTWriteString                                     2     0      2     643
                                              6 BANK0      2     0      2
                     _USARTWriteChar
 ---------------------------------------------------------------------------------
 (3) _USARTWriteChar                                       1     1      0      22
                                              5 BANK0      1     1      0
 ---------------------------------------------------------------------------------
 (2) _EEPROMUpdatePassword                                 5     3      2    1702
                                             15 BANK0      5     3      2
                        _EepromWrite
 ---------------------------------------------------------------------------------
 (2) _EEPROMSearchNumber                                  15    12      3    2034
                                             16 BANK0     15    12      3
                         _EepromRead
                            ___lwdiv
 ---------------------------------------------------------------------------------
 (3) ___lwdiv                                              8     4      4     290
                                              5 BANK0      8     4      4
 ---------------------------------------------------------------------------------
 (2) _EEPROMEraseAll                                       3     3      0     455
                                             12 BANK0      3     3      0
                          _EepromEnd
                       _EepromOpCode
                        _EepromStart
 ---------------------------------------------------------------------------------
 (2) _EEPROMDeleteNumber                                   7     5      2    2269
                                             15 BANK0      7     5      2
                        _EepromWrite
                             ___wmul
 ---------------------------------------------------------------------------------
 (2) _EEPROMCheckPassword                                  3     1      2    1216
                                             16 BANK0      3     1      2
                         _EepromRead
 ---------------------------------------------------------------------------------
 (2) _EEPROMAdd                                            9     6      3    4561
                                             29 BANK0      9     6      3
                   _EEPROMSaveNumber
                         _EepromRead
                             ___wmul
 ---------------------------------------------------------------------------------
 (3) _EepromRead                                           4     2      2    1064
                                             12 BANK0      4     2      2
                          _EepromEnd
                       _EepromOpCode
                      _EepromReceive
                        _EepromStart
                             ___wmul (ARG)
 ---------------------------------------------------------------------------------
 (4) _EepromReceive                                        4     4      0     115
                                              5 BANK0      4     4      0
 ---------------------------------------------------------------------------------
 (3) _EEPROMSaveNumber                                    14     9      5    2583
                                             15 BANK0     14     9      5
                        _EepromWrite
                             ___wmul
 ---------------------------------------------------------------------------------
 (3) ___wmul                                               6     2      4     604
                                              5 BANK0      6     2      4
 ---------------------------------------------------------------------------------
 (3) _EepromWrite                                          3     0      3    1486
                                             12 BANK0      3     0      3
                          _EepromEnd
                       _EepromOpCode
                         _EepromSend
                        _EepromStart
 ---------------------------------------------------------------------------------
 (4) _EepromStart                                          1     1      0       0
                                              5 BANK0      1     1      0
 ---------------------------------------------------------------------------------
 (4) _EepromSend                                           4     4      0      91
                                              5 BANK0      4     4      0
 ---------------------------------------------------------------------------------
 (4) _EepromOpCode                                         7     5      2     455
                                              5 BANK0      7     5      2
 ---------------------------------------------------------------------------------
 (4) _EepromEnd                                            1     1      0       0
                                              5 BANK0      1     1      0
 ---------------------------------------------------------------------------------
 (1) _GPIORedLedBlink                                      5     5      0      47
                                              5 BANK0      5     5      0
 ---------------------------------------------------------------------------------
 (1) _GPIOPortInit                                         0     0      0       0
 ---------------------------------------------------------------------------------
 (1) _GPIOBlueLedBlink                                     5     5      0      47
                                              5 BANK0      5     5      0
 ---------------------------------------------------------------------------------
 Estimated maximum stack depth 4
 ---------------------------------------------------------------------------------
 (Depth) Function   	        Calls       Base Space   Used Autos Params    Refs
 ---------------------------------------------------------------------------------
 (6) _ISR                                                  1     1      0     471
                                             11 COMMON     1     1      0
                   _USARTHandleRxInt
 ---------------------------------------------------------------------------------
 (7) _USARTHandleRxInt                                    16    16      0     471
                                              0 COMMON    11    11      0
                                              0 BANK0      5     5      0
 ---------------------------------------------------------------------------------
 Estimated maximum stack depth 7
 ---------------------------------------------------------------------------------

 Call Graph Graphs:

 _main (ROOT)
   _EEPROMSearchNumber
     _EepromRead
       _EepromEnd
       _EepromOpCode
       _EepromReceive
       _EepromStart
       ___wmul (ARG)
     ___lwdiv
   _EEPROMUpdatePassword
     _EepromWrite
       _EepromEnd
       _EepromOpCode
       _EepromSend
       _EepromStart
   _GPIOBlueLedBlink
   _GPIOPortInit
   _GPIORedLedBlink
   _SIM800Command
     _EEPROMAdd
       _EEPROMSaveNumber
         _EepromWrite
           _EepromEnd
           _EepromOpCode
           _EepromSend
           _EepromStart
         ___wmul
       _EepromRead
         _EepromEnd
         _EepromOpCode
         _EepromReceive
         _EepromStart
         ___wmul (ARG)
       ___wmul
     _EEPROMCheckPassword
       _EepromRead
         _EepromEnd
         _EepromOpCode
         _EepromReceive
         _EepromStart
         ___wmul (ARG)
     _EEPROMDeleteNumber
       _EepromWrite
         _EepromEnd
         _EepromOpCode
         _EepromSend
         _EepromStart
       ___wmul
     _EEPROMEraseAll
       _EepromEnd
       _EepromOpCode
       _EepromStart
     _EEPROMSearchNumber
       _EepromRead
         _EepromEnd
         _EepromOpCode
         _EepromReceive
         _EepromStart
         ___wmul (ARG)
       ___lwdiv
     _EEPROMUpdatePassword
       _EepromWrite
         _EepromEnd
         _EepromOpCode
         _EepromSend
         _EepromStart
     _SIM800SendSms
       _USARTWriteChar
       _USARTWriteLine
         _USARTWriteChar
         _USARTWriteString
           _USARTWriteChar
       _USARTWriteString
         _USARTWriteChar
   _SIM800DeleteSms
     _USARTWriteChar
     _USARTWriteLine
       _USARTWriteChar
       _USARTWriteString
         _USARTWriteChar
     _USARTWriteString
       _USARTWriteChar
   _SIM800LClear
   _SIM800ReadSms
     _USARTWriteLine
       _USARTWriteChar
       _USARTWriteString
         _USARTWriteChar
     _USARTWriteString
       _USARTWriteChar
   _SIM800SendSms
     _USARTWriteChar
     _USARTWriteLine
       _USARTWriteChar
       _USARTWriteString
         _USARTWriteChar
     _USARTWriteString
       _USARTWriteChar
   _SIM800init
     _USARTWriteLine
       _USARTWriteChar
       _USARTWriteString
         _USARTWriteChar
   _SYSTEMInit
   _USARTInit
   _USARTWriteLine
     _USARTWriteChar
     _USARTWriteString
       _USARTWriteChar

 _ISR (ROOT)
   _USARTHandleRxInt

 Address spaces:
Name               Size   Autos  Total    Cost      Usage
BIGRAM              F0      0       0       0        0.0%
EEDATA             100      0       0       0        0.0%
NULL                 0      0       0       0        0.0%
CODE                 0      0       0       0        0.0%
BITCOMMON            E      0       0       1        0.0%
BITSFR0              0      0       0       1        0.0%
SFR0                 0      0       0       1        0.0%
COMMON               E      C       C       2       85.7%
BITSFR1              0      0       0       2        0.0%
SFR1                 0      0       0       2        0.0%
BITSFR2              0      0       0       3        0.0%
SFR2                 0      0       0       3        0.0%
STACK                0      0       0       3        0.0%
BITSFR3              0      0       0       4        0.0%
SFR3                 0      0       0       4        0.0%
ABS                  0      0      4D       4        0.0%
BITBANK0            50      0       0       5        0.0%
BITSFR4              0      0       0       5        0.0%
SFR4                 0      0       0       5        0.0%
BANK0               50     35      41       6       81.3%
BITSFR5              0      0       0       6        0.0%
SFR5                 0      0       0       6        0.0%
BITBANK1            50      0       0       7        0.0%
BITSFR6              0      0       0       7        0.0%
SFR6                 0      0       0       7        0.0%
BANK1               28      0       0       8        0.0%
BITSFR7              0      0       0       8        0.0%
SFR7                 0      0       0       8        0.0%
BITBANK2            50      0       0       9        0.0%
BITSFR8              0      0       0       9        0.0%
SFR8                 0      0       0       9        0.0%
BITSFR9              0      0       0      10        0.0%
SFR9                 0      0       0      10        0.0%
BANK2                0      0       0      10        0.0%
BITSFR10             0      0       0      11        0.0%
SFR10                0      0       0      11        0.0%
DATA                 0      0      4D      11        0.0%
BITSFR11             0      0       0      12        0.0%
SFR11                0      0       0      12        0.0%
BITSFR12             0      0       0      13        0.0%
SFR12                0      0       0      13        0.0%
BITSFR13             0      0       0      14        0.0%
SFR13                0      0       0      14        0.0%
BITSFR14             0      0       0      15        0.0%
SFR14                0      0       0      15        0.0%
BITSFR15             0      0       0      16        0.0%
SFR15                0      0       0      16        0.0%
BITSFR16             0      0       0      17        0.0%
SFR16                0      0       0      17        0.0%
BITSFR17             0      0       0      18        0.0%
SFR17                0      0       0      18        0.0%
BITSFR18             0      0       0      19        0.0%
SFR18                0      0       0      19        0.0%
BITSFR19             0      0       0      20        0.0%
SFR19                0      0       0      20        0.0%
BITSFR20             0      0       0      21        0.0%
SFR20                0      0       0      21        0.0%
BITSFR21             0      0       0      22        0.0%
SFR21                0      0       0      22        0.0%
BITSFR22             0      0       0      23        0.0%
SFR22                0      0       0      23        0.0%
BITSFR23             0      0       0      24        0.0%
SFR23                0      0       0      24        0.0%
BITSFR24             0      0       0      25        0.0%
SFR24                0      0       0      25        0.0%
BITSFR25             0      0       0      26        0.0%
SFR25                0      0       0      26        0.0%
BITSFR26             0      0       0      27        0.0%
SFR26                0      0       0      27        0.0%
BITSFR27             0      0       0      28        0.0%
SFR27                0      0       0      28        0.0%
BITSFR28             0      0       0      29        0.0%
SFR28                0      0       0      29        0.0%
BITSFR29             0      0       0      30        0.0%
SFR29                0      0       0      30        0.0%
BITSFR30             0      0       0      31        0.0%
SFR30                0      0       0      31        0.0%
BITSFR31             0      0       0      32        0.0%
SFR31                0      0       0      32        0.0%


Microchip Technology PIC Macro Assembler V1.33 build 59893 
Symbol Table                                                                                   Fri May 20 00:13:40 2016

      EEPROMCheckPassword@pass 0030                              _i 005F                    __CFG_CP$OFF 0000  
                           l34 0BE7                             l84 0E4C        __size_of_EEPROMEraseAll 003D  
          ___wmul@multiplicand 0027             USARTInit@baud_rate 0025    __size_of_EEPROMSearchNumber 0088  
                  __CFG_LVP$ON 0000  __size_of_EEPROMUpdatePassword 007E                            l324 0B0C  
                          l316 0DC0                            l451 05FE                            l277 0B9A  
                          l546 0BA4                            l458 066B                            _GIE 005F  
                 __CFG_CPD$OFF 0000                            _ISR 0004                   __CFG_BORV$LO 0000  
                          wreg 0009                   __CFG_IESO$ON 0000             __size_of_EEPROMAdd 004F  
                   _SYSTEMInit 0B7F                           ?_ISR 0070                    ?_SIM800init 0070  
                         l2201 06D8                           l2131 04DA                           l2203 06DB  
                         l2211 06F4                           l2063 0C08                           l2223 0718  
                         l2215 06FF                           l2129 04CF                           l2161 0CBB  
                         l2153 0C9D                           l2209 06EE                           l2251 0E48  
                         l2155 0CA9                           l2075 0B4B                           l2245 0E25  
                         l2165 0CC4                           l2079 0B9E                           l3071 0DAC  
                         l2337 0C3C                           l2257 0E5B                           l2601 07B7  
                         l3073 0DB1                           l2347 0C0E                           l2195 06A7  
                         l3075 0DB6                           l2197 06A9                           l2613 07D2  
                         l3077 0DBB                           l3069 0DA7                           l2535 032C  
                         l2607 07CD                           l2289 0EC0                           l2529 02F9  
                         l2633 0B82                           l2641 0B8E                           l2563 03EB  
                         l2547 038E                           l2539 034E                           l2619 07E8  
                         l2635 0B86                           l2651 0D8F                           l2557 03B8  
                         l2549 039A                           l2637 0B8A                           l2653 0D91  
                         l2645 0D89                           l2567 040D                           l2647 0D8B  
                         l2577 044E                           l2649 0D8D                           l2657 0D95  
                         l2851 0620                           l2861 0651                           l2863 0655  
                         l2847 0609                           l2881 0681                           l2867 0659  
                         l2885 0683      EEPROMDeleteNumber@address 0033                           STR_1 05CB  
                         STR_2 05B8                           STR_3 05AB                           STR_4 056F  
                         STR_5 05BD                           STR_6 0561                           STR_7 0586  
                         STR_8 05C7                           STR_9 0561                           _CREN 0CEC  
           EepromWrite@address 002C                           u1314 0C74                           u1315 0C73  
                         u3007 0D0F                           u1344 0F07                           u1345 0F05  
                         u1425 0BA5                           u3017 0D3B                           u1435 0BAA  
                         u3027 0CFB                           u1515 0CA0                           u3037 04E3  
                         u3047 0C49                           u1535 0CAA                           u1384 0BF4  
                         u3057 0C59                           u1385 0BF3                           u1545 0CB4  
                         u1625 06EC                           u3067 0C1B                           u1555 0CBC  
                         u3077 0C2B                           u2807 0647                           u2817 0F98  
                         u2907 0D4A                           u2827 0FA6                           _PEIE 005E  
                         u2917 0D80                           u2837 0FB6                           u2927 0F2F  
                         u2847 0FCC                           u2937 0F45                           u2857 0FE2  
                         u2947 0F6D                           u2867 0FF8                           u2787 0605  
                         _RCIE 048D                           _RCIF 008D                           u2957 0F89  
                         u2877 0DD9                           u2797 0618                           u2967 0730  
                         u2887 0DEF                           u2977 0751                           u2897 0E17  
                         u2987 0772                           u2997 0793                   __CFG_WRT$OFF 0000  
       __end_of_USARTWriteChar 0B12                  __CFG_FCMEN$ON 0000         __end_of_USARTWriteLine 0500  
                         _main 05D0                           _task 0060                           fsr0h 0005  
                         fsr1h 0007                           fsr0l 0004                           indf0 0000  
                         indf1 0001                           fsr1l 0006                           btemp 007E  
                         ltemp 007E                           start 0016                           ttemp 007E  
                         wtemp 007E            __end_of_EepromStart 0B4B            __end_of_EepromWrite 0BDE  
                        ??_ISR 007B                  ?_GPIOPortInit 0070              ?_USARTHandleRxInt 0070  
      EEPROMSearchNumber@count 0039                          ?_main 0070             ??_USARTHandleRxInt 0070  
                        STR_10 05A2                          STR_11 05C8                          STR_12 0599  
                        STR_20 0552                          STR_13 05C8                          STR_21 0590  
                        STR_22 05B2                          STR_14 051D                          STR_23 05CE  
                        STR_15 0538                          STR_24 05C5                          STR_16 0500  
                        STR_17 05C2                  __CFG_WDTE$OFF 0000                          STR_18 05C2  
                        STR_19 057B               USARTWriteChar@ch 0025                     _EepromRead 0B63  
                   _EepromSend 0C66                __end_of___lwdiv 0CCB                          i1l342 02C5  
                        i1l166 0011                          _RCREG 0199                          _SPBRG 019B  
                        _TXREG 019A                 __CFG_BOREN$OFF 0000                          ltemp0 007E  
                        ltemp1 0082                          ltemp2 0086                          ltemp3 0080  
      EEPROMDeleteNumber@count 0035             __size_of_USARTInit 004A                ?_USARTWriteChar 0070  
         __end_of_EepromOpCode 0F28                ?_USARTWriteLine 0028                          ttemp0 007E  
                        ttemp1 0081                          ttemp2 0084                          ttemp3 0087  
                        ttemp4 007F                          status 0003                          wtemp0 007E  
                        wtemp1 0080                          wtemp2 0082                          wtemp3 0084  
                        wtemp4 0086                          wtemp5 0088                          wtemp6 007F  
       __size_of_SIM800Command 01A9               _GPIOBlueLedBlink 0C0A         __size_of_SIM800ReadSms 004D  
             ?_SIM800DeleteSms 002A                 __CFG_MCLRE$OFF 0000              __end_of_EEPROMAdd 0E6E  
              __initialization 0018         __size_of_SIM800SendSms 0069                  ?_SIM800LClear 0070  
   EEPROMDeleteNumber@position 002F                   __end_of_main 0693                 ??_GPIOPortInit 0025  
          __size_of_SIM800init 006F       __end_of_EEPROMSaveNumber 04EE                         ??_main 0052  
               __CFG_PLLEN$OFF 0000             __size_of_EepromEnd 0009                    ?_SYSTEMInit 0070  
     EEPROMSearchNumber@result 003B                _GPIORedLedBlink 0C38                         _ANSELB 018D  
                       i1l2411 0180                         i1l2403 0134                         u200_25 0279  
                       i1l2407 015E                         i1l2433 01FB                         i1l2425 01BC  
                       i1l2417 019C                         i1l2361 0053                         i1l2451 027B  
                       i1l2443 022D                         i1l2435 020D                         i1l2355 0040  
                       i1l2429 01E6                         i1l2453 0281                         i1l2461 029A  
                       i1l2365 0062                         i1l2463 02A1                         i1l2447 0258  
                       i1l2471 02BD                         i1l2385 00D3                         i1l2393 010B  
                       i1l2459 0299                         i1l2379 009F                         i1l2389 00F6  
                  _EepromStart 0B38                    _EepromWrite 0BB9                         u184_25 00F4  
                       _OSCCON 0099                         _TRISC0 0470                         _TRISA4 0464  
                       _TRISC1 0471                         _TRISA5 0465                         _TRISC2 0472  
                       _TRISB4 046C                         _TRISC4 0474                         _TRISB6 046E  
                       _TRISC5 0475                         _TRISB7 046F                         _TRISC6 0476  
                       _TRISC7 0477                 __CFG_PWRTE$OFF 0000             _EEPROMDeleteNumber 0CCB  
               ??_SIM800LClear 0025              USARTWriteLine@str 0028                         ___wmul 0B9B  
               __CFG_STVREN$ON 0000                      ??___lwdiv 0029                 _EEPROMEraseAll 0D06  
                       _bufque 005E            ?_EEPROMDeleteNumber 002F       __end_of_USARTWriteString 0B63  
            __end_of_USARTInit 0DD2                    ?_EepromRead 002C                    ?_EepromSend 0070  
                _SIM800Command 02C8                  _SIM800ReadSms 0DD2            _EEPROMCheckPassword 0E6E  
                _SIM800SendSms 0F28          __end_of_EepromReceive 0C0A             USARTHandleRxInt@ci 0022  
         ??_EEPROMDeleteNumber 0031        __end_of__initialization 002D              __end_of_EepromEnd 0B1B  
         ?_EEPROMCheckPassword 0030         __end_of_EEPROMEraseAll 0D43                 __pcstackCOMMON 0070  
        EEPROMSearchNumber@aux 003D            __size_of_SYSTEMInit 001C                 ?_SIM800Command 0070  
      EEPROMSaveNumber@address 003B        __end_of_GPIORedLedBlink 0C66                 ?_SIM800ReadSms 002A  
               ?_SIM800SendSms 002A          __size_of_EepromOpCode 0066                   ??_SIM800init 002A  
         __end_of_GPIOPortInit 0B38          GPIOBlueLedBlink@times 0028                     __pbssBANK0 0055  
 __end_of_EEPROMUpdatePassword 0799            __size_of_EepromRead 001C            __size_of_EepromSend 002E  
        ??_EEPROMCheckPassword 0032                     __pmaintext 05D0                ?_EEPROMEraseAll 0070  
 EEPROMSearchNumber@nmbrLenght 0032                        ?___wmul 0025     __end_of_EEPROMSearchNumber 071B  
                   __pintentry 0004             __end_of_SIM800init 1000                   _EepromOpCode 0EC2  
     __end_of_GPIOBlueLedBlink 0C38                        _SIM800L 2078               ??_USARTWriteChar 0025  
         __end_of_SIM800LClear 0800                 EepromRead@data 002F               ??_USARTWriteLine 002A  
           USARTWriteInt@F3220 0055      __size_of_USARTHandleRxInt 0297                 EepromReceive@b 0027  
               EepromReceive@i 0028                __size_of___wmul 001E                        ___lwdiv 0C94  
                    _EEPROMAdd 0E1F                ??_SIM800Command 0046                        __ptext1 0D88  
                      __ptext2 0B7F                        __ptext3 0F91                        __ptext4 0DD2  
                      __ptext5 0799                        __ptext6 0D43                        __ptext7 02C8  
              ??_SIM800ReadSms 002C                        __ptext8 0F28                        __ptext9 04EE  
            ?_EEPROMSaveNumber 002F            SIM800DeleteSms@flag 002C                   __size_of_ISR 0012  
              ??_SIM800SendSms 002E               ?_GPIORedLedBlink 0070             ??_EEPROMSaveNumber 0034  
                 ??_SYSTEMInit 0025                        clrloop0 0B1C           end_of_initialization 002D  
                 ?_EepromStart 0070                   ?_EepromWrite 002C                  EEPROMAdd@nmbr 003D  
                    _RCSTAbits 019D             __end_of_SYSTEMInit 0B9B                   __pstringtext 0500  
                   ?_EEPROMAdd 003D              ?_USARTWriteString 0026       __size_of_SIM800DeleteSms 0045  
                    _PORTBbits 000D                   ??_EepromRead 002E           _EEPROMUpdatePassword 071B  
                 ??_EepromSend 0025             ??_USARTWriteString 0028               __CFG_FOSC$INTOSC 0000  
        __size_of_GPIOPortInit 0011                      _USARTInit 0D88                      _TXSTAbits 019E  
           __end_of_EepromRead 0B7F             __end_of_EepromSend 0C94         EEPROMSearchNumber@nmbr 0030  
                    _EepromEnd 0B12                   _GPIOPortInit 0B27                 __end_of___wmul 0BB9  
                  _BAUDCONbits 019F          ?_EEPROMUpdatePassword 002F          __size_of_SIM800LClear 0067  
          start_initialization 0018                     ?_USARTInit 0025                    __end_of_ISR 0016  
          EepromOpCode@address 0025                 SYSTEMInit@freq 0025               _USARTHandleRxInt 0031  
  __size_of_EEPROMDeleteNumber 003B               ??_EEPROMEraseAll 002C                    _APFCON0bits 011D  
                 _SIM800LClear 0799                       ??___wmul 0029                     ?_EepromEnd 0070  
                  ??_EEPROMAdd 0040         __size_of_EepromReceive 002C     EEPROMSaveNumber@nmbrLenght 0031  
                  __pbssBIGRAM 2078       EEPROMSaveNumber@position 0032                      ___latbits 0001  
         GPIORedLedBlink@times 0028              ?_GPIOBlueLedBlink 0070                  __pcstackBANK0 0020  
           _EEPROMSearchNumber 0693            __end_of__stringdata 05D0              ??_SIM800DeleteSms 002E  
           ??_GPIOBlueLedBlink 0025    __end_of_EEPROMCheckPassword 0EC2            ?_EEPROMSearchNumber 0030  
         __size_of_EepromStart 0013         EEPROMSaveNumber@result 0037           __size_of_EepromWrite 0025  
             ___lwdiv@dividend 0027                       ?___lwdiv 0025         ??_EEPROMUpdatePassword 0031  
                EepromOpCode@i 002B           ??_EEPROMSearchNumber 0033                  SIM800LClear@i 0029  
                  ??_USARTInit 0027               ___lwdiv@quotient 002A            EEPROMAdd@nmbrLenght 003F  
                _EepromReceive 0BDE       EEPROMUpdatePassword@pass 002F      __size_of_EEPROMSaveNumber 007D  
               ___wmul@product 0029                       _LATAbits 010C                       _LATBbits 010D  
                     _LATCbits 010E                   EEPROMAdd@aux 0043                      clear_ram0 0B1B  
                     _PIR1bits 0011                    ??_EepromEnd 0025               SIM800Command@add 0051  
                  __stringdata 0500              ___wmul@multiplier 0025          __end_of_SIM800Command 0471  
        __end_of_SIM800ReadSms 0E1F          __end_of_SIM800SendSms 0F91                 ?_EepromReceive 0070  
     __size_of_GPIORedLedBlink 002E      __size_of_USARTWriteString 0018        __size_of_USARTWriteChar 0008  
      __size_of_USARTWriteLine 0012             EepromOpCode@opcode 002A       __end_of_USARTHandleRxInt 02C8  
             __size_of___lwdiv 0037              SIM800SendSms@nmbr 002A          EEPROMSaveNumber@count 0039  
            GPIOBlueLedBlink@i 0029                ___lwdiv@divisor 0025                ___lwdiv@counter 002C  
                     __ptext10 0B4B                       __ptext11 0B0A                       __ptext20 0BDE  
                     __ptext12 071B                       __ptext21 0471                       __ptext13 0693  
                     __ptext30 0C0A                       __ptext22 0B9B                       __ptext14 0C94  
                     __ptext23 0BB9                       __ptext15 0D06                       __ptext32 0031  
                     __ptext24 0B38                       __ptext16 0CCB                       __ptext25 0C66  
                     __ptext17 0E6E                       __ptext26 0EC2                       __ptext18 0E1F  
                     __ptext27 0B12                       __ptext19 0B63                       __ptext28 0C38  
                     __ptext29 0B27               SIM800ReadSms@mem 002A           SIM800DeleteSms@index 002A  
       USARTHandleRxInt@ci_500 0024         USARTHandleRxInt@ci_501 0021         USARTHandleRxInt@ci_499 0023  
             GPIORedLedBlink@i 0029                  __size_of_main 00C3                       _password 005A  
              _SIM800DeleteSms 0D43                EepromWrite@data 002E                  ?_EepromOpCode 0025  
               EEPROMAdd@empty 0044                 EEPROMAdd@found 0041                ??_EepromReceive 0025  
   __end_of_EEPROMDeleteNumber 0D06                    pic14e$flags 007E                     _SIM800init 0F91  
             SIM800SendSms@msg 002C                       intlevel1 0000           EEPROMSaveNumber@nmbr 002F  
             _EEPROMSaveNumber 0471              __CFG_CLKOUTEN$OFF 0000                    EepromSend@b 0027  
                  EepromSend@i 0028      __size_of_GPIOBlueLedBlink 002E              ??_GPIORedLedBlink 0025  
          USARTWriteString@str 0026                 ??_EepromOpCode 0027              EepromRead@address 002C  
         USARTHandleRxInt@data 0020                  ??_EepromStart 0025               _USARTWriteString 0B4B  
                ??_EepromWrite 002F                 _USARTWriteChar 0B0A                 _USARTWriteLine 04EE  
      __end_of_SIM800DeleteSms 0D88   __size_of_EEPROMCheckPassword 0054  
